///////////////////////////////////////////////////////////////////////////////
//                                                                            /
// IAR C/C++ Compiler V8.10.1.10194/W32 for 8051        24/Nov/2016  15:08:47 /
// Copyright 2004-2011 IAR Systems AB.                                        /
//                                                                            /
//    Core               =  plain                                             /
//    Code model         =  banked                                            /
//    Data model         =  large                                             /
//    Calling convention =  xdata reentrant                                   /
//    Constant location  =  data_rom                                          /
//    Dptr setup         =  1,16                                              /
//    Source file        =  E:\work\zigbee\ZStack-Smart-2.5.2b\Projects\zstac /
//                          k\Applications\SmartApp\Source\Common\CommonApp.c /
//    Command line       =  -f E:\work\zigbee\ZStack-Smart-2.5.2b\Projects\zs /
//                          tack\Applications\SmartApp\CC2530DB\Devices\..\.. /
//                          \..\..\Tools\CC2530DB\f8wEndev.cfg (-DCPU32MHZ    /
//                          -DROOT=__near_func -DMAC_CFG_TX_DATA_MAX=3        /
//                          -DMAC_CFG_TX_MAX=6 -DMAC_CFG_RX_MAX=3             /
//                          -DSSA_ENDNODE) -f E:\work\zigbee\ZStack-Smart-2.5 /
//                          .2b\Projects\zstack\Applications\SmartApp\CC2530D /
//                          B\Devices\..\..\..\..\Tools\CC2530DB\f8wConfig.cf /
//                          g (-DZIGBEEPRO -DSECURE=1 -DZG_SECURE_DYNAMIC=1   /
//                          -DREFLECTOR -DDEFAULT_CHANLIST=0x00000800         /
//                          -DZDAPP_CONFIG_PAN_ID=0xFFFF                      /
//                          -DNWK_START_DELAY=100 -DEXTENDED_JOINING_RANDOM_M /
//                          ASK=0x007F -DBEACON_REQUEST_DELAY=100             /
//                          -DBEACON_REQ_DELAY_MASK=0x00FF                    /
//                          -DLINK_STATUS_JITTER_MASK=0x007F                  /
//                          -DROUTE_EXPIRY_TIME=30 -DAPSC_ACK_WAIT_DURATION_P /
//                          OLLED=3000 -DNWK_INDIRECT_MSG_TIMEOUT=7           /
//                          -DMAX_RREQ_ENTRIES=8 -DAPSC_MAX_FRAME_RETRIES=3   /
//                          -DNWK_MAX_DATA_RETRIES=2                          /
//                          -DMAX_POLL_FAILURE_RETRIES=2 -DMAX_BCAST=9        /
//                          -DAPS_MAX_GROUPS=16 -DMAX_RTG_ENTRIES=40          /
//                          -DNWK_MAX_BINDING_ENTRIES=4                       /
//                          -DMAX_BINDING_CLUSTER_IDS=4                       /
//                          "-DDEFAULT_KEY={0x01, 0x03, 0x05, 0x07, 0x09,     /
//                          0x0B, 0x0D, 0x0F, 0x00, 0x02, 0x04, 0x06, 0x08,   /
//                          0x0A, 0x0C, 0x0D}" -DMAC_MAX_FRAME_SIZE=116       /
//                          -DZDNWKMGR_MIN_TRANSMISSIONS=20 "-DCONST=const    /
//                          __code" -DGENERIC=__generic                       /
//                          -DRFD_RCVC_ALWAYS_ON=FALSE -DPOLL_RATE=600        /
//                          -DQUEUED_POLL_RATE=100 -DRESPONSE_POLL_RATE=100)  /
//                          -DREJOIN_POLL_RATE=440 E:\work\zigbee\ZStack-Smar /
//                          t-2.5.2b\Projects\zstack\Applications\SmartApp\So /
//                          urce\Common\CommonApp.c -D SECURE=1 -D ZTOOL_P1   /
//                          -D DEVICE_TYPE_ID=0xFE -D                         /
//                          SIGNAL_AMPLIFIER_SETTING -D xNWK_AUTO_POLL -D     /
//                          xHAL_UART_DMA=2 -D xHAL_UART_DMA_ALT1 -D          /
//                          xJIAJU_BUILDIN -D MT_TASK -D MT_SYS_FUNC -D       /
//                          MT_ZDO_FUNC -D NV_INIT -D NV_RESTORE -lC          /
//                          E:\work\zigbee\ZStack-Smart-2.5.2b\Projects\zstac /
//                          k\Applications\SmartApp\CC2530DB\bin\DemoBaseZD\L /
//                          ist\ -lA E:\work\zigbee\ZStack-Smart-2.5.2b\Proje /
//                          cts\zstack\Applications\SmartApp\CC2530DB\bin\Dem /
//                          oBaseZD\List\ --diag_suppress Pe001,Pa010 -o      /
//                          E:\work\zigbee\ZStack-Smart-2.5.2b\Projects\zstac /
//                          k\Applications\SmartApp\CC2530DB\bin\DemoBaseZD\O /
//                          bj\ -e --debug --core=plain --dptr=16,1           /
//                          --data_model=large --code_model=banked            /
//                          --calling_convention=xdata_reentrant              /
//                          --place_constants=data_rom --nr_virtual_regs 16   /
//                          -I E:\work\zigbee\ZStack-Smart-2.5.2b\Projects\zs /
//                          tack\Applications\SmartApp\CC2530DB\Devices\ -I   /
//                          E:\work\zigbee\ZStack-Smart-2.5.2b\Projects\zstac /
//                          k\Applications\SmartApp\CC2530DB\Devices\..\..\So /
//                          urce\Common\ -I E:\work\zigbee\ZStack-Smart-2.5.2 /
//                          b\Projects\zstack\Applications\SmartApp\CC2530DB\ /
//                          Devices\..\..\Source\Connector\ -I                /
//                          E:\work\zigbee\ZStack-Smart-2.5.2b\Projects\zstac /
//                          k\Applications\SmartApp\CC2530DB\Devices\..\..\So /
//                          urce\\EndNode\ -I E:\work\zigbee\ZStack-Smart-2.5 /
//                          .2b\Projects\zstack\Applications\SmartApp\CC2530D /
//                          B\Devices\..\..\Source\Board\ -I                  /
//                          E:\work\zigbee\ZStack-Smart-2.5.2b\Projects\zstac /
//                          k\Applications\SmartApp\CC2530DB\Devices\..\..\So /
//                          urce\Manage\ -I E:\work\zigbee\ZStack-Smart-2.5.2 /
//                          b\Projects\zstack\Applications\SmartApp\CC2530DB\ /
//                          Devices\..\..\Source\Manage\Callbacks\ -I         /
//                          E:\work\zigbee\ZStack-Smart-2.5.2b\Projects\zstac /
//                          k\Applications\SmartApp\CC2530DB\Devices\..\..\So /
//                          urce\Manage\debug\ -I E:\work\zigbee\ZStack-Smart /
//                          -2.5.2b\Projects\zstack\Applications\SmartApp\CC2 /
//                          530DB\Devices\..\..\Source\Manage\HeartBeat\ -I   /
//                          E:\work\zigbee\ZStack-Smart-2.5.2b\Projects\zstac /
//                          k\Applications\SmartApp\CC2530DB\Devices\..\..\So /
//                          urce\Manage\incode\ -I E:\work\zigbee\ZStack-Smar /
//                          t-2.5.2b\Projects\zstack\Applications\SmartApp\CC /
//                          2530DB\Devices\..\..\..\..\ZMain\TI2530DB\ -I     /
//                          E:\work\zigbee\ZStack-Smart-2.5.2b\Projects\zstac /
//                          k\Applications\SmartApp\CC2530DB\Devices\..\..\.. /
//                          \..\..\..\Components\hal\include\ -I              /
//                          E:\work\zigbee\ZStack-Smart-2.5.2b\Projects\zstac /
//                          k\Applications\SmartApp\CC2530DB\Devices\..\..\.. /
//                          \..\..\..\Components\hal\target\CC2530EB\ -I      /
//                          E:\work\zigbee\ZStack-Smart-2.5.2b\Projects\zstac /
//                          k\Applications\SmartApp\CC2530DB\Devices\..\..\.. /
//                          \..\..\..\Components\mac\include\ -I              /
//                          E:\work\zigbee\ZStack-Smart-2.5.2b\Projects\zstac /
//                          k\Applications\SmartApp\CC2530DB\Devices\..\..\.. /
//                          \..\..\..\Components\mac\high_level\ -I           /
//                          E:\work\zigbee\ZStack-Smart-2.5.2b\Projects\zstac /
//                          k\Applications\SmartApp\CC2530DB\Devices\..\..\.. /
//                          \..\..\..\Components\mac\low_level\srf04\ -I      /
//                          E:\work\zigbee\ZStack-Smart-2.5.2b\Projects\zstac /
//                          k\Applications\SmartApp\CC2530DB\Devices\..\..\.. /
//                          \..\..\..\Components\mac\low_level\srf04\single_c /
//                          hip\ -I E:\work\zigbee\ZStack-Smart-2.5.2b\Projec /
//                          ts\zstack\Applications\SmartApp\CC2530DB\Devices\ /
//                          ..\..\..\..\..\..\Components\mt\ -I               /
//                          E:\work\zigbee\ZStack-Smart-2.5.2b\Projects\zstac /
//                          k\Applications\SmartApp\CC2530DB\Devices\..\..\.. /
//                          \..\..\..\Components\osal\include\ -I             /
//                          E:\work\zigbee\ZStack-Smart-2.5.2b\Projects\zstac /
//                          k\Applications\SmartApp\CC2530DB\Devices\..\..\.. /
//                          \..\..\..\Components\services\saddr\ -I           /
//                          E:\work\zigbee\ZStack-Smart-2.5.2b\Projects\zstac /
//                          k\Applications\SmartApp\CC2530DB\Devices\..\..\.. /
//                          \..\..\..\Components\services\sdata\ -I           /
//                          E:\work\zigbee\ZStack-Smart-2.5.2b\Projects\zstac /
//                          k\Applications\SmartApp\CC2530DB\Devices\..\..\.. /
//                          \..\..\..\Components\stack\af\ -I                 /
//                          E:\work\zigbee\ZStack-Smart-2.5.2b\Projects\zstac /
//                          k\Applications\SmartApp\CC2530DB\Devices\..\..\.. /
//                          \..\..\..\Components\stack\nwk\ -I                /
//                          E:\work\zigbee\ZStack-Smart-2.5.2b\Projects\zstac /
//                          k\Applications\SmartApp\CC2530DB\Devices\..\..\.. /
//                          \..\..\..\Components\stack\sapi\ -I               /
//                          E:\work\zigbee\ZStack-Smart-2.5.2b\Projects\zstac /
//                          k\Applications\SmartApp\CC2530DB\Devices\..\..\.. /
//                          \..\..\..\Components\stack\sec\ -I                /
//                          E:\work\zigbee\ZStack-Smart-2.5.2b\Projects\zstac /
//                          k\Applications\SmartApp\CC2530DB\Devices\..\..\.. /
//                          \..\..\..\Components\stack\sys\ -I                /
//                          E:\work\zigbee\ZStack-Smart-2.5.2b\Projects\zstac /
//                          k\Applications\SmartApp\CC2530DB\Devices\..\..\.. /
//                          \..\..\..\Components\stack\zdo\ -I                /
//                          E:\work\zigbee\ZStack-Smart-2.5.2b\Projects\zstac /
//                          k\Applications\SmartApp\CC2530DB\Devices\..\..\.. /
//                          \..\..\..\Components\zmac\ -I                     /
//                          E:\work\zigbee\ZStack-Smart-2.5.2b\Projects\zstac /
//                          k\Applications\SmartApp\CC2530DB\Devices\..\..\.. /
//                          \..\..\..\Components\zmac\f8w\ -Oh                /
//                          --require_prototypes                              /
//    List file          =  E:\work\zigbee\ZStack-Smart-2.5.2b\Projects\zstac /
//                          k\Applications\SmartApp\CC2530DB\bin\DemoBaseZD\L /
//                          ist\CommonApp.s51                                 /
//                                                                            /
//                                                                            /
///////////////////////////////////////////////////////////////////////////////

        NAME CommonApp

        RTMODEL "__SystemLibrary", "CLib"
        RTMODEL "__calling_convention", "xdata_reentrant"
        RTMODEL "__code_model", "banked"
        RTMODEL "__core", "plain"
        RTMODEL "__data_model", "large"
        RTMODEL "__dptr_size", "16"
        RTMODEL "__extended_stack", "disabled"
        RTMODEL "__location_for_constants", "data"
        RTMODEL "__number_of_dptrs", "1"
        RTMODEL "__rt_version", "1"

        RSEG DOVERLAY:DATA:NOROOT(0)
        RSEG IOVERLAY:IDATA:NOROOT(0)
        RSEG ISTACK:IDATA:NOROOT(0)
        RSEG PSTACK:XDATA:NOROOT(0)
        RSEG XSTACK:XDATA:NOROOT(0)

        EXTERN ?ALLOC_XSTACK8
        EXTERN ?BANKED_ENTER_XDATA
        EXTERN ?BANKED_LEAVE_XDATA
        EXTERN ?BDISPATCH
        EXTERN ?BRET
        EXTERN ?DEALLOC_XSTACK8
        EXTERN ?MOVE_LONG8_XDATA_XDATA
        EXTERN ?PUSH_XSTACK_I_ONE
        EXTERN ?PUSH_XSTACK_I_THREE
        EXTERN ?PUSH_XSTACK_I_TWO
        EXTERN ?V0
        EXTERN ?XSP
        EXTERN ?XSTACK_DISP0_8
        EXTERN __INIT_XDATA_I
        EXTERN __INIT_XDATA_Z

        PUBLIC ??CommonApp_CmdPeroidCB?relay
        FUNCTION ??CommonApp_CmdPeroidCB?relay,0203H
        PUBLIC ??CommonApp_GetDevDataSend?relay
        FUNCTION ??CommonApp_GetDevDataSend?relay,0203H
        PUBLIC ??CommonApp_GetDeviceInfo?relay
        FUNCTION ??CommonApp_GetDeviceInfo?relay,0203H
        FUNCTION ??CommonApp_HandleKeys?relay,0203H
        PUBLIC ??CommonApp_Init?relay
        FUNCTION ??CommonApp_Init?relay,0203H
        PUBLIC ??CommonApp_PermitJoiningRequest?relay
        FUNCTION ??CommonApp_PermitJoiningRequest?relay,0203H
        PUBLIC ??CommonApp_PowerOnFactorySetting?relay
        FUNCTION ??CommonApp_PowerOnFactorySetting?relay,0203H
        PUBLIC ??CommonApp_PowerSettingCountCB?relay
        FUNCTION ??CommonApp_PowerSettingCountCB?relay,0203H
        PUBLIC ??CommonApp_ProcessEvent?relay
        FUNCTION ??CommonApp_ProcessEvent?relay,0203H
        PUBLIC ??CommonApp_SendTheMessage?relay
        FUNCTION ??CommonApp_SendTheMessage?relay,0203H
        PUBLIC ??CommonDevice_GetData?relay
        FUNCTION ??CommonDevice_GetData?relay,0203H
        PUBLIC ??CommonDevice_SetData?relay
        FUNCTION ??CommonDevice_SetData?relay,0203H
        PUBLIC ??DataCmd_Ctrl?relay
        FUNCTION ??DataCmd_Ctrl?relay,0203H
        PUBLIC ??PermitJoin_Refresh?relay
        FUNCTION ??PermitJoin_Refresh?relay,0203H
        PUBLIC ??RS485_GetDevDataSend?relay
        FUNCTION ??RS485_GetDevDataSend?relay,0203H
        PUBLIC ??Update_Refresh?relay
        FUNCTION ??Update_Refresh?relay,0203H
        PUBLIC CommonApp_CmdPeroidCB
        FUNCTION CommonApp_CmdPeroidCB,021203H
        ARGFRAME XSTACK, 2, STACK
        LOCFRAME ISTACK, 4, STACK
        LOCFRAME XSTACK, 129, STACK
        PUBLIC CommonApp_DstAddr
        PUBLIC CommonApp_GetDevDataSend
        FUNCTION CommonApp_GetDevDataSend,021203H
        ARGFRAME XSTACK, 0, STACK
        LOCFRAME ISTACK, 2, STACK
        PUBLIC CommonApp_GetDeviceInfo
        FUNCTION CommonApp_GetDeviceInfo,021203H
        ARGFRAME XSTACK, 0, STACK
        LOCFRAME XSTACK, 14, STACK
        FUNCTION CommonApp_HandleKeys,021203H
        ARGFRAME XSTACK, 14, STACK
        ARGFRAME IOVERLAY, 0, STATIC
        ARGFRAME DOVERLAY, 0, STATIC
        LOCFRAME XSTACK, 30, STACK
        PUBLIC CommonApp_InClusterList
        PUBLIC CommonApp_Init
        FUNCTION CommonApp_Init,021203H
        ARGFRAME XSTACK, 0, STACK
        LOCFRAME XSTACK, 9, STACK
        PUBLIC CommonApp_NwkState
        PUBLIC CommonApp_OutClusterList
        PUBLIC CommonApp_PermitJoiningRequest
        FUNCTION CommonApp_PermitJoiningRequest,0203H
        ARGFRAME XSTACK, 0, STACK
        PUBLIC CommonApp_PowerOnFactorySetting
        FUNCTION CommonApp_PowerOnFactorySetting,021203H
        ARGFRAME XSTACK, 14, STACK
        ARGFRAME IOVERLAY, 0, STATIC
        ARGFRAME DOVERLAY, 0, STATIC
        LOCFRAME XSTACK, 16, STACK
        PUBLIC CommonApp_PowerSettingCountCB
        FUNCTION CommonApp_PowerSettingCountCB,021603H
        ARGFRAME XSTACK, 2, STACK
        LOCFRAME ISTACK, 2, STACK
        PUBLIC CommonApp_ProcessEvent
        FUNCTION CommonApp_ProcessEvent,021203H
        ARGFRAME XSTACK, 0, STACK
        LOCFRAME XSTACK, 14, STACK
        PUBLIC CommonApp_SendTheMessage
        FUNCTION CommonApp_SendTheMessage,021203H
        ARGFRAME XSTACK, 59, STACK
        ARGFRAME IOVERLAY, 0, STATIC
        ARGFRAME DOVERLAY, 0, STATIC
        LOCFRAME XSTACK, 19, STACK
        PUBLIC CommonApp_SimpleDesc
        PUBLIC CommonApp_TaskID
        PUBLIC CommonApp_TransID
        PUBLIC CommonApp_epDesc
        PUBLIC CommonDevice_GetData
        FUNCTION CommonDevice_GetData,021203H
        ARGFRAME XSTACK, 0, STACK
        LOCFRAME ISTACK, 2, STACK
        PUBLIC CommonDevice_SetData
        FUNCTION CommonDevice_SetData,021203H
        ARGFRAME XSTACK, 9, STACK
        ARGFRAME IOVERLAY, 0, STATIC
        ARGFRAME DOVERLAY, 0, STATIC
        LOCFRAME XSTACK, 15, STACK
        PUBLIC DataCmd_Ctrl
        FUNCTION DataCmd_Ctrl,021203H
        ARGFRAME XSTACK, 0, STACK
        LOCFRAME XSTACK, 9, STACK
        PUBLIC EXT_ADDR_G
        PUBLIC PermitJoin_Refresh
        FUNCTION PermitJoin_Refresh,021203H
        ARGFRAME XSTACK, 0, STACK
        LOCFRAME ISTACK, 2, STACK
        LOCFRAME XSTACK, 61, STACK
        PUBLIC RS485_GetDevDataSend
        FUNCTION RS485_GetDevDataSend,021203H
        ARGFRAME XSTACK, 0, STACK
        LOCFRAME ISTACK, 1, STACK
        LOCFRAME XSTACK, 78, STACK
        PUBLIC SHORT_ADDR_G
        PUBLIC Update_Refresh
        FUNCTION Update_Refresh,021203H
        ARGFRAME XSTACK, 129, STACK
        ARGFRAME IOVERLAY, 0, STATIC
        ARGFRAME DOVERLAY, 0, STATIC
        LOCFRAME ISTACK, 1, STACK
        LOCFRAME XSTACK, 34, STACK
        PUBWEAK WDCTL
        PUBLIC isFirstState
        PUBLIC isPermitJoining
        PUBLIC macAddr
        PUBLIC nwkAddr
        PUBLIC nwkAddr_buf
        PUBLIC optData
        PUBLIC optDataLen
        
        CFI Names cfiNames0
        CFI StackFrame CFA_SP SP IDATA
        CFI StackFrame CFA_PSP16 PSP16 XDATA
        CFI StackFrame CFA_XSP16 XSP16 XDATA
        CFI StaticOverlayFrame CFA_IOVERLAY IOVERLAY
        CFI StaticOverlayFrame CFA_DOVERLAY DOVERLAY
        CFI Resource `PSW.CY`:1, `B.BR0`:1, `B.BR1`:1, `B.BR2`:1, `B.BR3`:1
        CFI Resource `B.BR4`:1, `B.BR5`:1, `B.BR6`:1, `B.BR7`:1, `VB.BR8`:1
        CFI Resource `VB.BR9`:1, `VB.BR10`:1, `VB.BR11`:1, `VB.BR12`:1
        CFI Resource `VB.BR13`:1, `VB.BR14`:1, `VB.BR15`:1, VB:8, B:8, A:8
        CFI Resource PSW:8, DPL0:8, DPH0:8, R0:8, R1:8, R2:8, R3:8, R4:8, R5:8
        CFI Resource R6:8, R7:8, V0:8, V1:8, V2:8, V3:8, V4:8, V5:8, V6:8, V7:8
        CFI Resource V8:8, V9:8, V10:8, V11:8, V12:8, V13:8, V14:8, V15:8, SP:8
        CFI Resource PSPH:8, PSPL:8, PSP16:16, XSPH:8, XSPL:8, XSP16:16
        CFI VirtualResource ?RET:24
        CFI Resource ?BRET_EXT:8
        CFI VirtualResource ?RET_HIGH:8, ?RET_LOW:8
        CFI ResourceParts PSP16 PSPH, PSPL
        CFI ResourceParts XSP16 XSPH, XSPL
        CFI ResourceParts ?RET ?BRET_EXT, ?RET_HIGH, ?RET_LOW
        CFI EndNames cfiNames0
        
        CFI Common cfiCommon0 Using cfiNames0
        CFI CodeAlign 1
        CFI DataAlign -1
        CFI ReturnAddress ?RET CODE
        CFI CFA_DOVERLAY Used
        CFI CFA_IOVERLAY Used
        CFI CFA_SP SP+-3
        CFI CFA_PSP16 PSP16+0
        CFI CFA_XSP16 XSP16+0
        CFI `PSW.CY` SameValue
        CFI `B.BR0` SameValue
        CFI `B.BR1` SameValue
        CFI `B.BR2` SameValue
        CFI `B.BR3` SameValue
        CFI `B.BR4` SameValue
        CFI `B.BR5` SameValue
        CFI `B.BR6` SameValue
        CFI `B.BR7` SameValue
        CFI `VB.BR8` SameValue
        CFI `VB.BR9` SameValue
        CFI `VB.BR10` SameValue
        CFI `VB.BR11` SameValue
        CFI `VB.BR12` SameValue
        CFI `VB.BR13` SameValue
        CFI `VB.BR14` SameValue
        CFI `VB.BR15` SameValue
        CFI VB SameValue
        CFI B Undefined
        CFI A Undefined
        CFI PSW SameValue
        CFI DPL0 SameValue
        CFI DPH0 SameValue
        CFI R0 Undefined
        CFI R1 Undefined
        CFI R2 Undefined
        CFI R3 Undefined
        CFI R4 Undefined
        CFI R5 Undefined
        CFI R6 SameValue
        CFI R7 SameValue
        CFI V0 SameValue
        CFI V1 SameValue
        CFI V2 SameValue
        CFI V3 SameValue
        CFI V4 SameValue
        CFI V5 SameValue
        CFI V6 SameValue
        CFI V7 SameValue
        CFI V8 SameValue
        CFI V9 SameValue
        CFI V10 SameValue
        CFI V11 SameValue
        CFI V12 SameValue
        CFI V13 SameValue
        CFI V14 SameValue
        CFI V15 SameValue
        CFI PSPH Undefined
        CFI PSPL Undefined
        CFI XSPH Undefined
        CFI XSPL Undefined
        CFI ?RET Concat
        CFI ?BRET_EXT Frame(CFA_SP, 3)
        CFI ?RET_HIGH Frame(CFA_SP, 2)
        CFI ?RET_LOW Frame(CFA_SP, 1)
        CFI EndCommon cfiCommon0
        
        
        CFI Common cfiCommon1 Using cfiNames0
        CFI CodeAlign 1
        CFI DataAlign -1
        CFI ReturnAddress ?RET CODE
        CFI CFA_DOVERLAY Used
        CFI CFA_IOVERLAY Used
        CFI CFA_SP SP+-2
        CFI CFA_PSP16 PSP16+0
        CFI CFA_XSP16 XSP16+0
        CFI `PSW.CY` SameValue
        CFI `B.BR0` SameValue
        CFI `B.BR1` SameValue
        CFI `B.BR2` SameValue
        CFI `B.BR3` SameValue
        CFI `B.BR4` SameValue
        CFI `B.BR5` SameValue
        CFI `B.BR6` SameValue
        CFI `B.BR7` SameValue
        CFI `VB.BR8` SameValue
        CFI `VB.BR9` SameValue
        CFI `VB.BR10` SameValue
        CFI `VB.BR11` SameValue
        CFI `VB.BR12` SameValue
        CFI `VB.BR13` SameValue
        CFI `VB.BR14` SameValue
        CFI `VB.BR15` SameValue
        CFI VB SameValue
        CFI B SameValue
        CFI A SameValue
        CFI PSW SameValue
        CFI DPL0 SameValue
        CFI DPH0 SameValue
        CFI R0 SameValue
        CFI R1 SameValue
        CFI R2 SameValue
        CFI R3 SameValue
        CFI R4 SameValue
        CFI R5 SameValue
        CFI R6 SameValue
        CFI R7 SameValue
        CFI V0 SameValue
        CFI V1 SameValue
        CFI V2 SameValue
        CFI V3 SameValue
        CFI V4 SameValue
        CFI V5 SameValue
        CFI V6 SameValue
        CFI V7 SameValue
        CFI V8 SameValue
        CFI V9 SameValue
        CFI V10 SameValue
        CFI V11 SameValue
        CFI V12 SameValue
        CFI V13 SameValue
        CFI V14 SameValue
        CFI V15 SameValue
        CFI PSPH Undefined
        CFI PSPL Undefined
        CFI XSPH Undefined
        CFI XSPL Undefined
        CFI ?RET Concat
        CFI ?BRET_EXT SameValue
        CFI ?RET_HIGH Frame(CFA_SP, 2)
        CFI ?RET_LOW Frame(CFA_SP, 1)
        CFI EndCommon cfiCommon1
        
Serial_Init         SYMBOL "Serial_Init"
afRegister          SYMBOL "afRegister"
RegisterForKeys     SYMBOL "RegisterForKeys"
ZDO_RegisterForZDOMsg SYMBOL "ZDO_RegisterForZDOMsg"
CommonApp_InitConfirm SYMBOL "CommonApp_InitConfirm"
osal_msg_receive    SYMBOL "osal_msg_receive"
ZDO_ParseEPListRsp  SYMBOL "ZDO_ParseEPListRsp"
osal_mem_free       SYMBOL "osal_mem_free"
HalLedSet           SYMBOL "HalLedSet"
CommonApp_MessageMSGCB SYMBOL "CommonApp_MessageMSGCB"
osal_set_event      SYMBOL "osal_set_event"
osal_msg_deallocate SYMBOL "osal_msg_deallocate"
NLME_GetShortAddr   SYMBOL "NLME_GetShortAddr"
osal_start_timerEx  SYMBOL "osal_start_timerEx"
process_event       SYMBOL "process_event"
osal_nv_item_init   SYMBOL "osal_nv_item_init"
osal_nv_read        SYMBOL "osal_nv_read"
set_user_event      SYMBOL "set_user_event"
osal_nv_write       SYMBOL "osal_nv_write"
zgReadStartupOptions SYMBOL "zgReadStartupOptions"
HalLedBlink         SYMBOL "HalLedBlink"
zgWriteStartupOptions SYMBOL "zgWriteStartupOptions"
ZDP_EndDeviceBindReq SYMBOL "ZDP_EndDeviceBindReq"
ZDP_MatchDescReq    SYMBOL "ZDP_MatchDescReq"
halGetKeyCount      SYMBOL "halGetKeyCount"
CommonApp_HandleCombineKeys SYMBOL "CommonApp_HandleCombineKeys"
osal_memcpy         SYMBOL "osal_memcpy"
osal_mem_alloc      SYMBOL "osal_mem_alloc"
set_device_data     SYMBOL "set_device_data"
get_device_data     SYMBOL "get_device_data"
memcpy              SYMBOL "memcpy"
SSAFrame_Package    SYMBOL "SSAFrame_Package"
HalUARTWrite        SYMBOL "HalUARTWrite"
AF_DataRequest      SYMBOL "AF_DataRequest"
setNodeList         SYMBOL "setNodeList"
??AF_DataRequest?relay SYMBOL "?relay", AF_DataRequest
??CommonApp_HandleCombineKeys?relay SYMBOL "?relay", CommonApp_HandleCombineKeys
??CommonApp_InitConfirm?relay SYMBOL "?relay", CommonApp_InitConfirm
??CommonApp_MessageMSGCB?relay SYMBOL "?relay", CommonApp_MessageMSGCB
`?<Name Data_TxHandler 39>` SYMBOL "Data_TxHandler"
??Data_TxHandler?relay SYMBOL "?relay", `?<Name Data_TxHandler 39>`
??HalLedBlink?relay SYMBOL "?relay", HalLedBlink
??HalLedSet?relay   SYMBOL "?relay", HalLedSet
??HalUARTWrite?relay SYMBOL "?relay", HalUARTWrite
??NLME_GetShortAddr?relay SYMBOL "?relay", NLME_GetShortAddr
??RegisterForKeys?relay SYMBOL "?relay", RegisterForKeys
??SSAFrame_Package?relay SYMBOL "?relay", SSAFrame_Package
??Serial_Init?relay SYMBOL "?relay", Serial_Init
??ZDO_ParseEPListRsp?relay SYMBOL "?relay", ZDO_ParseEPListRsp
??ZDO_RegisterForZDOMsg?relay SYMBOL "?relay", ZDO_RegisterForZDOMsg
??ZDP_EndDeviceBindReq?relay SYMBOL "?relay", ZDP_EndDeviceBindReq
??ZDP_MatchDescReq?relay SYMBOL "?relay", ZDP_MatchDescReq
??afRegister?relay  SYMBOL "?relay", afRegister
??get_device_data?relay SYMBOL "?relay", get_device_data
??halGetKeyCount?relay SYMBOL "?relay", halGetKeyCount
??memcpy?relay      SYMBOL "?relay", memcpy
??osal_mem_alloc?relay SYMBOL "?relay", osal_mem_alloc
??osal_mem_free?relay SYMBOL "?relay", osal_mem_free
??osal_memcpy?relay SYMBOL "?relay", osal_memcpy
??osal_msg_deallocate?relay SYMBOL "?relay", osal_msg_deallocate
??osal_msg_receive?relay SYMBOL "?relay", osal_msg_receive
??osal_nv_item_init?relay SYMBOL "?relay", osal_nv_item_init
??osal_nv_read?relay SYMBOL "?relay", osal_nv_read
??osal_nv_write?relay SYMBOL "?relay", osal_nv_write
??osal_set_event?relay SYMBOL "?relay", osal_set_event
??osal_start_timerEx?relay SYMBOL "?relay", osal_start_timerEx
??process_event?relay SYMBOL "?relay", process_event
??setNodeList?relay SYMBOL "?relay", setNodeList
??set_device_data?relay SYMBOL "?relay", set_device_data
??set_user_event?relay SYMBOL "?relay", set_user_event
??zgReadStartupOptions?relay SYMBOL "?relay", zgReadStartupOptions
??zgWriteStartupOptions?relay SYMBOL "?relay", zgWriteStartupOptions
CommonApp_CmdPeroidCB SYMBOL "CommonApp_CmdPeroidCB"
??CommonApp_CmdPeroidCB?relay SYMBOL "?relay", CommonApp_CmdPeroidCB
CommonApp_GetDevDataSend SYMBOL "CommonApp_GetDevDataSend"
??CommonApp_GetDevDataSend?relay SYMBOL "?relay", CommonApp_GetDevDataSend
CommonApp_GetDeviceInfo SYMBOL "CommonApp_GetDeviceInfo"
??CommonApp_GetDeviceInfo?relay SYMBOL "?relay", CommonApp_GetDeviceInfo
CommonApp_Init      SYMBOL "CommonApp_Init"
??CommonApp_Init?relay SYMBOL "?relay", CommonApp_Init
CommonApp_PermitJoiningRequest SYMBOL "CommonApp_PermitJoiningRequest"
??CommonApp_PermitJoiningRequest?relay SYMBOL "?relay", CommonApp_PermitJoiningRequest
CommonApp_PowerOnFactorySetting SYMBOL "CommonApp_PowerOnFactorySetting"
??CommonApp_PowerOnFactorySetting?relay SYMBOL "?relay", CommonApp_PowerOnFactorySetting
CommonApp_PowerSettingCountCB SYMBOL "CommonApp_PowerSettingCountCB"
??CommonApp_PowerSettingCountCB?relay SYMBOL "?relay", CommonApp_PowerSettingCountCB
CommonApp_ProcessEvent SYMBOL "CommonApp_ProcessEvent"
??CommonApp_ProcessEvent?relay SYMBOL "?relay", CommonApp_ProcessEvent
CommonApp_SendTheMessage SYMBOL "CommonApp_SendTheMessage"
??CommonApp_SendTheMessage?relay SYMBOL "?relay", CommonApp_SendTheMessage
CommonDevice_GetData SYMBOL "CommonDevice_GetData"
??CommonDevice_GetData?relay SYMBOL "?relay", CommonDevice_GetData
CommonDevice_SetData SYMBOL "CommonDevice_SetData"
??CommonDevice_SetData?relay SYMBOL "?relay", CommonDevice_SetData
DataCmd_Ctrl        SYMBOL "DataCmd_Ctrl"
??DataCmd_Ctrl?relay SYMBOL "?relay", DataCmd_Ctrl
PermitJoin_Refresh  SYMBOL "PermitJoin_Refresh"
??PermitJoin_Refresh?relay SYMBOL "?relay", PermitJoin_Refresh
RS485_GetDevDataSend SYMBOL "RS485_GetDevDataSend"
??RS485_GetDevDataSend?relay SYMBOL "?relay", RS485_GetDevDataSend
Update_Refresh      SYMBOL "Update_Refresh"
??Update_Refresh?relay SYMBOL "?relay", Update_Refresh

        EXTERN Serial_Init
        FUNCTION Serial_Init,0202H
        ARGFRAME ISTACK, 0, STACK
        ARGFRAME PSTACK, 0, STACK
        ARGFRAME XSTACK, 9, STACK
        ARGFRAME IOVERLAY, 0, STATIC
        ARGFRAME DOVERLAY, 0, STATIC
        EXTERN afRegister
        FUNCTION afRegister,0202H
        ARGFRAME ISTACK, 0, STACK
        ARGFRAME PSTACK, 0, STACK
        ARGFRAME XSTACK, 9, STACK
        ARGFRAME IOVERLAY, 0, STATIC
        ARGFRAME DOVERLAY, 0, STATIC
        EXTERN RegisterForKeys
        FUNCTION RegisterForKeys,0202H
        ARGFRAME ISTACK, 0, STACK
        ARGFRAME PSTACK, 0, STACK
        ARGFRAME XSTACK, 9, STACK
        ARGFRAME IOVERLAY, 0, STATIC
        ARGFRAME DOVERLAY, 0, STATIC
        EXTERN ZDO_RegisterForZDOMsg
        FUNCTION ZDO_RegisterForZDOMsg,0202H
        ARGFRAME ISTACK, 0, STACK
        ARGFRAME PSTACK, 0, STACK
        ARGFRAME XSTACK, 9, STACK
        ARGFRAME IOVERLAY, 0, STATIC
        ARGFRAME DOVERLAY, 0, STATIC
        EXTERN CommonApp_InitConfirm
        FUNCTION CommonApp_InitConfirm,0202H
        ARGFRAME ISTACK, 0, STACK
        ARGFRAME PSTACK, 0, STACK
        ARGFRAME XSTACK, 9, STACK
        ARGFRAME IOVERLAY, 0, STATIC
        ARGFRAME DOVERLAY, 0, STATIC
        EXTERN osal_msg_receive
        FUNCTION osal_msg_receive,0202H
        ARGFRAME ISTACK, 0, STACK
        ARGFRAME PSTACK, 0, STACK
        ARGFRAME XSTACK, 14, STACK
        ARGFRAME IOVERLAY, 0, STATIC
        ARGFRAME DOVERLAY, 0, STATIC
        EXTERN ZDO_ParseEPListRsp
        FUNCTION ZDO_ParseEPListRsp,0202H
        ARGFRAME ISTACK, 0, STACK
        ARGFRAME PSTACK, 0, STACK
        ARGFRAME XSTACK, 14, STACK
        ARGFRAME IOVERLAY, 0, STATIC
        ARGFRAME DOVERLAY, 0, STATIC
        EXTERN osal_mem_free
        FUNCTION osal_mem_free,0202H
        ARGFRAME ISTACK, 0, STACK
        ARGFRAME PSTACK, 0, STACK
        ARGFRAME XSTACK, 14, STACK
        ARGFRAME IOVERLAY, 0, STATIC
        ARGFRAME DOVERLAY, 0, STATIC
        EXTERN HalLedSet
        FUNCTION HalLedSet,0202H
        ARGFRAME ISTACK, 0, STACK
        ARGFRAME PSTACK, 0, STACK
        ARGFRAME XSTACK, 21, STACK
        ARGFRAME IOVERLAY, 0, STATIC
        ARGFRAME DOVERLAY, 0, STATIC
        EXTERN CommonApp_MessageMSGCB
        FUNCTION CommonApp_MessageMSGCB,0202H
        ARGFRAME ISTACK, 0, STACK
        ARGFRAME PSTACK, 0, STACK
        ARGFRAME XSTACK, 14, STACK
        ARGFRAME IOVERLAY, 0, STATIC
        ARGFRAME DOVERLAY, 0, STATIC
        EXTERN osal_set_event
        FUNCTION osal_set_event,0202H
        ARGFRAME ISTACK, 0, STACK
        ARGFRAME PSTACK, 0, STACK
        ARGFRAME XSTACK, 14, STACK
        ARGFRAME IOVERLAY, 0, STATIC
        ARGFRAME DOVERLAY, 0, STATIC
        EXTERN osal_msg_deallocate
        FUNCTION osal_msg_deallocate,0202H
        ARGFRAME ISTACK, 0, STACK
        ARGFRAME PSTACK, 0, STACK
        ARGFRAME XSTACK, 14, STACK
        ARGFRAME IOVERLAY, 0, STATIC
        ARGFRAME DOVERLAY, 0, STATIC
        EXTERN NLME_GetShortAddr
        FUNCTION NLME_GetShortAddr,0202H
        ARGFRAME ISTACK, 0, STACK
        ARGFRAME PSTACK, 0, STACK
        ARGFRAME XSTACK, 21, STACK
        ARGFRAME IOVERLAY, 0, STATIC
        ARGFRAME DOVERLAY, 0, STATIC
        EXTERN osal_start_timerEx
        FUNCTION osal_start_timerEx,0202H
        ARGFRAME ISTACK, 0, STACK
        ARGFRAME PSTACK, 0, STACK
        ARGFRAME XSTACK, 14, STACK
        ARGFRAME IOVERLAY, 0, STATIC
        ARGFRAME DOVERLAY, 0, STATIC
        EXTERN process_event
        FUNCTION process_event,0202H
        ARGFRAME ISTACK, 0, STACK
        ARGFRAME PSTACK, 0, STACK
        ARGFRAME XSTACK, 14, STACK
        ARGFRAME IOVERLAY, 0, STATIC
        ARGFRAME DOVERLAY, 0, STATIC
        EXTERN osal_nv_item_init
        FUNCTION osal_nv_item_init,0202H
        ARGFRAME ISTACK, 0, STACK
        ARGFRAME PSTACK, 0, STACK
        ARGFRAME XSTACK, 13, STACK
        ARGFRAME IOVERLAY, 0, STATIC
        ARGFRAME DOVERLAY, 0, STATIC
        EXTERN osal_nv_read
        FUNCTION osal_nv_read,0202H
        ARGFRAME ISTACK, 0, STACK
        ARGFRAME PSTACK, 0, STACK
        ARGFRAME XSTACK, 15, STACK
        ARGFRAME IOVERLAY, 0, STATIC
        ARGFRAME DOVERLAY, 0, STATIC
        EXTERN set_user_event
        FUNCTION set_user_event,0202H
        ARGFRAME ISTACK, 0, STACK
        ARGFRAME PSTACK, 0, STACK
        ARGFRAME XSTACK, 16, STACK
        ARGFRAME IOVERLAY, 0, STATIC
        ARGFRAME DOVERLAY, 0, STATIC
        EXTERN osal_nv_write
        FUNCTION osal_nv_write,0202H
        ARGFRAME ISTACK, 0, STACK
        ARGFRAME PSTACK, 0, STACK
        ARGFRAME XSTACK, 15, STACK
        ARGFRAME IOVERLAY, 0, STATIC
        ARGFRAME DOVERLAY, 0, STATIC
        EXTERN zgReadStartupOptions
        FUNCTION zgReadStartupOptions,0202H
        ARGFRAME ISTACK, 0, STACK
        ARGFRAME PSTACK, 0, STACK
        ARGFRAME XSTACK, 11, STACK
        ARGFRAME IOVERLAY, 0, STATIC
        ARGFRAME DOVERLAY, 0, STATIC
        EXTERN HalLedBlink
        FUNCTION HalLedBlink,0202H
        ARGFRAME ISTACK, 2, STACK
        ARGFRAME PSTACK, 0, STACK
        ARGFRAME XSTACK, 11, STACK
        ARGFRAME IOVERLAY, 0, STATIC
        ARGFRAME DOVERLAY, 0, STATIC
        EXTERN zgWriteStartupOptions
        FUNCTION zgWriteStartupOptions,0202H
        ARGFRAME ISTACK, 0, STACK
        ARGFRAME PSTACK, 0, STACK
        ARGFRAME XSTACK, 11, STACK
        ARGFRAME IOVERLAY, 0, STATIC
        ARGFRAME DOVERLAY, 0, STATIC
        EXTERN ZDP_EndDeviceBindReq
        FUNCTION ZDP_EndDeviceBindReq,0202H
        ARGFRAME ISTACK, 0, STACK
        ARGFRAME PSTACK, 0, STACK
        ARGFRAME XSTACK, 30, STACK
        ARGFRAME IOVERLAY, 0, STATIC
        ARGFRAME DOVERLAY, 0, STATIC
        EXTERN ZDP_MatchDescReq
        FUNCTION ZDP_MatchDescReq,0202H
        ARGFRAME ISTACK, 0, STACK
        ARGFRAME PSTACK, 0, STACK
        ARGFRAME XSTACK, 29, STACK
        ARGFRAME IOVERLAY, 0, STATIC
        ARGFRAME DOVERLAY, 0, STATIC
        EXTERN halGetKeyCount
        FUNCTION halGetKeyCount,0202H
        ARGFRAME ISTACK, 0, STACK
        ARGFRAME PSTACK, 0, STACK
        ARGFRAME XSTACK, 21, STACK
        ARGFRAME IOVERLAY, 0, STATIC
        ARGFRAME DOVERLAY, 0, STATIC
        EXTERN CommonApp_HandleCombineKeys
        FUNCTION CommonApp_HandleCombineKeys,0202H
        ARGFRAME ISTACK, 0, STACK
        ARGFRAME PSTACK, 0, STACK
        ARGFRAME XSTACK, 21, STACK
        ARGFRAME IOVERLAY, 0, STATIC
        ARGFRAME DOVERLAY, 0, STATIC
        EXTERN osal_memcpy
        FUNCTION osal_memcpy,0202H
        ARGFRAME ISTACK, 0, STACK
        ARGFRAME PSTACK, 0, STACK
        ARGFRAME XSTACK, 78, STACK
        ARGFRAME IOVERLAY, 0, STATIC
        ARGFRAME DOVERLAY, 0, STATIC
        EXTERN osal_mem_alloc
        FUNCTION osal_mem_alloc,0202H
        ARGFRAME ISTACK, 0, STACK
        ARGFRAME PSTACK, 0, STACK
        ARGFRAME XSTACK, 75, STACK
        ARGFRAME IOVERLAY, 0, STATIC
        ARGFRAME DOVERLAY, 0, STATIC
        EXTERN set_device_data
        FUNCTION set_device_data,0202H
        ARGFRAME ISTACK, 0, STACK
        ARGFRAME PSTACK, 0, STACK
        ARGFRAME XSTACK, 12, STACK
        ARGFRAME IOVERLAY, 0, STATIC
        ARGFRAME DOVERLAY, 0, STATIC
        EXTERN get_device_data
        FUNCTION get_device_data,0202H
        ARGFRAME ISTACK, 2, STACK
        ARGFRAME PSTACK, 0, STACK
        ARGFRAME XSTACK, 129, STACK
        ARGFRAME IOVERLAY, 0, STATIC
        ARGFRAME DOVERLAY, 0, STATIC
        EXTERN memcpy
        FUNCTION memcpy,010202H
        ARGFRAME ISTACK, 0, STACK
        ARGFRAME PSTACK, 0, STACK
        ARGFRAME XSTACK, 61, STACK
        ARGFRAME IOVERLAY, 0, STATIC
        ARGFRAME DOVERLAY, 0, STATIC
        EXTERN SSAFrame_Package
        FUNCTION SSAFrame_Package,0202H
        ARGFRAME ISTACK, 0, STACK
        ARGFRAME PSTACK, 0, STACK
        ARGFRAME XSTACK, 34, STACK
        ARGFRAME IOVERLAY, 0, STATIC
        ARGFRAME DOVERLAY, 0, STATIC
        EXTERN HalUARTWrite
        FUNCTION HalUARTWrite,0202H
        ARGFRAME ISTACK, 2, STACK
        ARGFRAME PSTACK, 0, STACK
        ARGFRAME XSTACK, 75, STACK
        ARGFRAME IOVERLAY, 0, STATIC
        ARGFRAME DOVERLAY, 0, STATIC
        EXTERN AF_DataRequest
        FUNCTION AF_DataRequest,0202H
        ARGFRAME ISTACK, 0, STACK
        ARGFRAME PSTACK, 0, STACK
        ARGFRAME XSTACK, 19, STACK
        ARGFRAME IOVERLAY, 0, STATIC
        ARGFRAME DOVERLAY, 0, STATIC
        EXTERN setNodeList
        FUNCTION setNodeList,0202H
        ARGFRAME ISTACK, 0, STACK
        ARGFRAME PSTACK, 0, STACK
        ARGFRAME XSTACK, 75, STACK
        ARGFRAME IOVERLAY, 0, STATIC
        ARGFRAME DOVERLAY, 0, STATIC
        EXTERN ??AF_DataRequest?relay
        FUNCTION ??AF_DataRequest?relay,00H
        EXTERN ??CommonApp_HandleCombineKeys?relay
        FUNCTION ??CommonApp_HandleCombineKeys?relay,00H
        EXTERN ??CommonApp_InitConfirm?relay
        FUNCTION ??CommonApp_InitConfirm?relay,00H
        EXTERN ??CommonApp_MessageMSGCB?relay
        FUNCTION ??CommonApp_MessageMSGCB?relay,00H
        EXTERN ??Data_TxHandler?relay
        FUNCTION ??Data_TxHandler?relay,00H
        EXTERN ??HalLedBlink?relay
        FUNCTION ??HalLedBlink?relay,00H
        EXTERN ??HalLedSet?relay
        FUNCTION ??HalLedSet?relay,00H
        EXTERN ??HalUARTWrite?relay
        FUNCTION ??HalUARTWrite?relay,00H
        EXTERN ??NLME_GetShortAddr?relay
        FUNCTION ??NLME_GetShortAddr?relay,00H
        EXTERN ??RegisterForKeys?relay
        FUNCTION ??RegisterForKeys?relay,00H
        EXTERN ??SSAFrame_Package?relay
        FUNCTION ??SSAFrame_Package?relay,00H
        EXTERN ??Serial_Init?relay
        FUNCTION ??Serial_Init?relay,00H
        EXTERN ??ZDO_ParseEPListRsp?relay
        FUNCTION ??ZDO_ParseEPListRsp?relay,00H
        EXTERN ??ZDO_RegisterForZDOMsg?relay
        FUNCTION ??ZDO_RegisterForZDOMsg?relay,00H
        EXTERN ??ZDP_EndDeviceBindReq?relay
        FUNCTION ??ZDP_EndDeviceBindReq?relay,00H
        EXTERN ??ZDP_MatchDescReq?relay
        FUNCTION ??ZDP_MatchDescReq?relay,00H
        EXTERN ??afRegister?relay
        FUNCTION ??afRegister?relay,00H
        EXTERN ??get_device_data?relay
        FUNCTION ??get_device_data?relay,00H
        EXTERN ??halGetKeyCount?relay
        FUNCTION ??halGetKeyCount?relay,00H
        EXTERN ??memcpy?relay
        FUNCTION ??memcpy?relay,00H
        EXTERN ??osal_mem_alloc?relay
        FUNCTION ??osal_mem_alloc?relay,00H
        EXTERN ??osal_mem_free?relay
        FUNCTION ??osal_mem_free?relay,00H
        EXTERN ??osal_memcpy?relay
        FUNCTION ??osal_memcpy?relay,00H
        EXTERN ??osal_msg_deallocate?relay
        FUNCTION ??osal_msg_deallocate?relay,00H
        EXTERN ??osal_msg_receive?relay
        FUNCTION ??osal_msg_receive?relay,00H
        EXTERN ??osal_nv_item_init?relay
        FUNCTION ??osal_nv_item_init?relay,00H
        EXTERN ??osal_nv_read?relay
        FUNCTION ??osal_nv_read?relay,00H
        EXTERN ??osal_nv_write?relay
        FUNCTION ??osal_nv_write?relay,00H
        EXTERN ??osal_set_event?relay
        FUNCTION ??osal_set_event?relay,00H
        EXTERN ??osal_start_timerEx?relay
        FUNCTION ??osal_start_timerEx?relay,00H
        EXTERN ??process_event?relay
        FUNCTION ??process_event?relay,00H
        EXTERN ??setNodeList?relay
        FUNCTION ??setNodeList?relay,00H
        EXTERN ??set_device_data?relay
        FUNCTION ??set_device_data?relay,00H
        EXTERN ??set_user_event?relay
        FUNCTION ??set_user_event?relay,00H
        EXTERN ??zgReadStartupOptions?relay
        FUNCTION ??zgReadStartupOptions?relay,00H
        EXTERN ??zgWriteStartupOptions?relay
        FUNCTION ??zgWriteStartupOptions?relay,00H
        EXTERN Address_dev
        EXTERN _NIB
        EXTERN aExtendedAddress
        EXTERN devState
        EXTERN f_tail

// E:\work\zigbee\ZStack-Smart-2.5.2b\Projects\zstack\Applications\SmartApp\Source\Common\CommonApp.c
//    1 /**************************************************************************************************
//    2   Filename:       CommonApp.c
//    3   Revised:        $Date: 2014-04-16 16:00:27 -0800 (Wed, 16 Apr 2014) $
//    4   Revision:       $Revision: 29217 $
//    5 
//    6   Description:    Common Application
//    7 **************************************************************************************************/
//    8 
//    9 /**************************************************************************************************
//   10 Modify by Sam_Chen
//   11 Date:2015-07-31
//   12 **************************************************************************************************/
//   13 
//   14 
//   15 /*********************************************************************
//   16  * INCLUDES
//   17  */
//   18 #include "CommonApp.h"

        ASEGN SFR_AN:DATA:NOROOT,0c9H
// unsigned char volatile __sfr WDCTL
WDCTL:
        DATA8
        DS 1
//   19 
//   20 #include "OSAL.h"
//   21 #include "OSAL_Nv.h"
//   22 #include "OnBoard.h"
//   23 
//   24 /* HAL */
//   25 #include "hal_lcd.h"
//   26 #include "hal_led.h"
//   27 #include "hal_key.h"
//   28 #include "hal_uart.h"
//   29 
//   30 
//   31 
//   32 /*********************************************************************
//   33  * MACROS
//   34  */
//   35 
//   36 /*********************************************************************
//   37  * CONSTANTS
//   38  */
//   39 
//   40 /*********************************************************************
//   41  * TYPEDEFS
//   42  */
//   43 
//   44 /*********************************************************************
//   45  * EXTERNAL VARIABLES
//   46  */
//   47 
//   48 /*********************************************************************
//   49  * GLOBAL VARIABLES
//   50  */
//   51 // This list should be filled with Application specific Cluster IDs.
//   52 //Õ®”√cluster list

        RSEG XDATA_ROM_C:CONST:REORDER:NOROOT(0)
        DATA16
//   53 const cId_t CommonApp_InClusterList[COMMONAPP_MAX_INCLUSTERS] =
CommonApp_InClusterList:
        DW 1
//   54 {
//   55   COMMONAPP_CLUSTERID,
//   56 };
//   57 

        RSEG XDATA_ROM_C:CONST:REORDER:NOROOT(0)
        DATA16
//   58 const cId_t CommonApp_OutClusterList[COMMONAPP_MAX_OUTCLUSTERS] =
CommonApp_OutClusterList:
        DW 1
//   59 {
//   60   COMMONAPP_CLUSTERID,
//   61 };
//   62 

        RSEG XDATA_ROM_C:CONST:REORDER:NOROOT(0)
        DATA8
//   63 const SimpleDescriptionFormat_t CommonApp_SimpleDesc =
CommonApp_SimpleDesc:
        DB 16
        DATA16
        DW 3848
        DW 1
        DATA8
        DB 1
        DB 1
        DATA16
        DW CommonApp_InClusterList
        DATA8
        DB 1
        DATA16
        DW CommonApp_OutClusterList
//   64 {
//   65   COMMONAPP_ENDPOINT,              //  int Endpoint;
//   66   COMMONAPP_PROFID,                //  uint16 AppProfId[2];
//   67   COMMONAPP_DEVICEID,              //  uint16 AppDeviceId[2];
//   68   COMMONAPP_DEVICE_VERSION,        //  int   AppDevVer:4;
//   69   COMMONAPP_FLAGS,                 //  int   AppFlags:4;
//   70   COMMONAPP_MAX_INCLUSTERS,          //  byte  AppNumInClusters;
//   71   (cId_t *)CommonApp_InClusterList,  //  byte *pAppInClusterList;
//   72   COMMONAPP_MAX_OUTCLUSTERS,          //  byte  AppNumOutClusters;
//   73   (cId_t *)CommonApp_OutClusterList   //  byte *pAppOutClusterList;
//   74 };
//   75 
//   76 // This is the Endpoint/Interface description.  It is defined here, but
//   77 // filled-in in CommonApp_Init().  Another way to go would be to fill
//   78 // in the structure here and make it a "const" (in code space).  The
//   79 // way it's defined in this sample app it is define in RAM.

        RSEG XDATA_Z:XDATA:NOROOT(0)
        DATA8
//   80 endPointDesc_t CommonApp_epDesc;
CommonApp_epDesc:
        DS 6
        REQUIRE __INIT_XDATA_Z
//   81 
//   82 

        RSEG XDATA_Z:XDATA:NOROOT(0)
        DATA8
//   83 byte CommonApp_TaskID;   // Task ID for internal task/event processing
CommonApp_TaskID:
        DS 1
        REQUIRE __INIT_XDATA_Z
//   84                           // This variable will be received when
//   85                           // CommonApp_Init() is called.

        RSEG XDATA_Z:XDATA:NOROOT(0)
        DATA8
//   86 devStates_t CommonApp_NwkState;
CommonApp_NwkState:
        DS 1
        REQUIRE __INIT_XDATA_Z

        RSEG XDATA_Z:XDATA:NOROOT(0)
        DATA8
//   87 byte CommonApp_TransID;  // This is the unique message ID (counter)
CommonApp_TransID:
        DS 1
        REQUIRE __INIT_XDATA_Z
//   88 

        RSEG XDATA_Z:XDATA:NOROOT(0)
        DATA8
//   89 afAddrType_t CommonApp_DstAddr;
CommonApp_DstAddr:
        DS 12
        REQUIRE __INIT_XDATA_Z
//   90 
//   91 //network address

        RSEG XDATA_Z:XDATA:NOROOT(0)
        DATA16
//   92 uint16 nwkAddr;
nwkAddr:
        DS 2
        REQUIRE __INIT_XDATA_Z

        RSEG XDATA_Z:XDATA:NOROOT(0)
        DATA8
//   93 uint8 nwkAddr_buf[3];
nwkAddr_buf:
        DS 3
        REQUIRE __INIT_XDATA_Z
//   94 //mac address

        RSEG XDATA_Z:XDATA:NOROOT(0)
        DATA8
//   95 ZLongAddr_t macAddr;
macAddr:
        DS 8
        REQUIRE __INIT_XDATA_Z
//   96 

        RSEG XDATA_Z:XDATA:NOROOT(0)
        DATA32
//   97 uint8 SHORT_ADDR_G[4] = "";
SHORT_ADDR_G:
        DS 4
        REQUIRE __INIT_XDATA_Z
//   98 

        RSEG XDATA_Z:XDATA:NOROOT(0)
        DATA8
//   99 uint8 EXT_ADDR_G[16] = "";
EXT_ADDR_G:
        DS 16
        REQUIRE __INIT_XDATA_Z
//  100 

        RSEG XDATA_I:XDATA:NOROOT(0)
//  101 uint8 isFirstState = 1;
isFirstState:
        DATA8
        DS 1
        REQUIRE `?<Initializer for isFirstState>`
        REQUIRE __INIT_XDATA_I
//  102 
//  103 
//  104 
//  105 #if(DEVICE_TYPE_ID!=0)
//  106 /* operations data */

        RSEG XDATA_Z:XDATA:NOROOT(0)
        DATA16
//  107 uint8 *optData = NULL;
optData:
        DS 2
        REQUIRE __INIT_XDATA_Z

        RSEG XDATA_Z:XDATA:NOROOT(0)
        DATA8
//  108 uint8 optDataLen = 0;
optDataLen:
        DS 1
        REQUIRE __INIT_XDATA_Z
//  109 #endif
//  110 
//  111 
//  112 /*********************************************************************
//  113  * EXTERNAL FUNCTIONS
//  114  */
//  115 extern const uint8 f_tail[4]; 
//  116 
//  117 /*********************************************************************
//  118  * LOCAL FUNCTIONS
//  119  */
//  120 #if defined(POWERON_FACTORY_SETTING) && !defined(RTR_NWK)
//  121 void CommonApp_PowerOnFactorySetting(devStates_t status);
//  122 void CommonApp_PowerSettingCountCB( void *params, 
//  123 										uint16 *duration, uint8 *count);
//  124 #endif
//  125 static void CommonApp_ProcessZDOMsgs( zdoIncomingMsg_t *inMsg );
//  126 static void CommonApp_afDatacfm(afDataConfirm_t *data);
//  127 static void CommonApp_HandleKeys( byte shift, uint16 keys );
//  128 #ifdef RTR_NWK
//  129 static void CommonApp_PermitJoiningLedIndicate(
//  130 				void *params, uint16 *duration, uint8 *count);
//  131 #endif
//  132 
//  133 /*********************************************************************
//  134  * LOCAL VARIABLES
//  135  */
//  136 
//  137 /*********************************************************************
//  138  * PUBLIC FUNCTIONS
//  139  */
//  140 
//  141 /*********************************************************************
//  142  * @fn      CommonApp_Init
//  143  *
//  144  * @brief   Initialization function for the Commonr App Task.
//  145  *          This is called during initialization and should contain
//  146  *          any application specific initialization (ie. hardware
//  147  *          initialization/setup, table initialization, power up
//  148  *          notificaiton ... ).
//  149  *
//  150  * @param   task_id - the ID assigned by OSAL.  This ID should be
//  151  *                    used to send messages and set timers.
//  152  *
//  153  * @return  none
//  154  */
//  155 

        RSEG BANKED_CODE:CODE:NOROOT(0)
//  156 void CommonApp_Init( uint8 task_id )
CommonApp_Init:
        CFI Block cfiBlock0 Using cfiCommon0
        CFI Function CommonApp_Init
        CODE
//  157 {
        FUNCALL CommonApp_Init, Serial_Init
        LOCFRAME ISTACK, 0, STACK
        LOCFRAME PSTACK, 0, STACK
        LOCFRAME XSTACK, 9, STACK
        LOCFRAME IOVERLAY, 0, STATIC
        LOCFRAME DOVERLAY, 0, STATIC
        ARGFRAME ISTACK, 0, STACK
        ARGFRAME PSTACK, 0, STACK
        ARGFRAME XSTACK, 9, STACK
        ARGFRAME IOVERLAY, 0, STATIC
        ARGFRAME DOVERLAY, 0, STATIC
        FUNCALL CommonApp_Init, afRegister
        LOCFRAME ISTACK, 0, STACK
        LOCFRAME PSTACK, 0, STACK
        LOCFRAME XSTACK, 9, STACK
        LOCFRAME IOVERLAY, 0, STATIC
        LOCFRAME DOVERLAY, 0, STATIC
        ARGFRAME ISTACK, 0, STACK
        ARGFRAME PSTACK, 0, STACK
        ARGFRAME XSTACK, 9, STACK
        ARGFRAME IOVERLAY, 0, STATIC
        ARGFRAME DOVERLAY, 0, STATIC
        FUNCALL CommonApp_Init, RegisterForKeys
        LOCFRAME ISTACK, 0, STACK
        LOCFRAME PSTACK, 0, STACK
        LOCFRAME XSTACK, 9, STACK
        LOCFRAME IOVERLAY, 0, STATIC
        LOCFRAME DOVERLAY, 0, STATIC
        ARGFRAME ISTACK, 0, STACK
        ARGFRAME PSTACK, 0, STACK
        ARGFRAME XSTACK, 9, STACK
        ARGFRAME IOVERLAY, 0, STATIC
        ARGFRAME DOVERLAY, 0, STATIC
        FUNCALL CommonApp_Init, ZDO_RegisterForZDOMsg
        LOCFRAME ISTACK, 0, STACK
        LOCFRAME PSTACK, 0, STACK
        LOCFRAME XSTACK, 9, STACK
        LOCFRAME IOVERLAY, 0, STATIC
        LOCFRAME DOVERLAY, 0, STATIC
        ARGFRAME ISTACK, 0, STACK
        ARGFRAME PSTACK, 0, STACK
        ARGFRAME XSTACK, 9, STACK
        ARGFRAME IOVERLAY, 0, STATIC
        ARGFRAME DOVERLAY, 0, STATIC
        FUNCALL CommonApp_Init, ZDO_RegisterForZDOMsg
        LOCFRAME ISTACK, 0, STACK
        LOCFRAME PSTACK, 0, STACK
        LOCFRAME XSTACK, 9, STACK
        LOCFRAME IOVERLAY, 0, STATIC
        LOCFRAME DOVERLAY, 0, STATIC
        ARGFRAME ISTACK, 0, STACK
        ARGFRAME PSTACK, 0, STACK
        ARGFRAME XSTACK, 9, STACK
        ARGFRAME IOVERLAY, 0, STATIC
        ARGFRAME DOVERLAY, 0, STATIC
        FUNCALL CommonApp_Init, CommonApp_InitConfirm
        LOCFRAME ISTACK, 0, STACK
        LOCFRAME PSTACK, 0, STACK
        LOCFRAME XSTACK, 9, STACK
        LOCFRAME IOVERLAY, 0, STATIC
        LOCFRAME DOVERLAY, 0, STATIC
        ARGFRAME ISTACK, 0, STACK
        ARGFRAME PSTACK, 0, STACK
        ARGFRAME XSTACK, 9, STACK
        ARGFRAME IOVERLAY, 0, STATIC
        ARGFRAME DOVERLAY, 0, STATIC
        MOV     A,#-0x9
        LCALL   ?BANKED_ENTER_XDATA
        CFI DPH0 load(1, XDATA, add(CFA_XSP16, literal(-1)))
        CFI DPL0 load(1, XDATA, add(CFA_XSP16, literal(-2)))
        CFI ?BRET_EXT load(1, XDATA, add(CFA_XSP16, literal(-3)))
        CFI ?RET_HIGH load(1, XDATA, add(CFA_XSP16, literal(-4)))
        CFI ?RET_LOW load(1, XDATA, add(CFA_XSP16, literal(-5)))
        CFI R7 load(1, XDATA, add(CFA_XSP16, literal(-6)))
        CFI V0 load(1, XDATA, add(CFA_XSP16, literal(-7)))
        CFI VB load(1, XDATA, add(CFA_XSP16, literal(-8)))
        CFI R6 load(1, XDATA, add(CFA_XSP16, literal(-9)))
        CFI CFA_SP SP+0
        CFI CFA_XSP16 add(XSP16, 9)
        ; Saved register size: 9
        ; Auto size: 0
        MOV     A,R1
        MOV     R6,A
//  158     CommonApp_TaskID = task_id;
        MOV     DPTR,#CommonApp_TaskID
        MOVX    @DPTR,A
//  159     CommonApp_NwkState = DEV_INIT;
        MOV     DPTR,#CommonApp_NwkState
        MOV     A,#0x1
        MOVX    @DPTR,A
//  160     CommonApp_TransID = 0;
        MOV     DPTR,#CommonApp_TransID
        CLR     A
        MOVX    @DPTR,A
//  161 
//  162 #if(HAL_UART==TRUE)
//  163 #ifndef HAL_UART01_BOTH
//  164 	Serial_Init(Data_TxHandler);
        ; Setup parameters for call to function Serial_Init
        MOV     R2,#??Data_TxHandler?relay & 0xff
        MOV     R3,#(??Data_TxHandler?relay >> 8) & 0xff
        LCALL   ??Serial_Init?relay
//  165 #else
//  166 	Serial_Init(Data0_TxHandler, Data1_TxHandler);
//  167 #endif
//  168 #endif
//  169   
//  170     // Device hardware initialization can be added here or in main() (Zmain.c).
//  171     // If the hardware is application specific - add it here.
//  172     // If the hardware is other parts of the device add it in main().
//  173   
//  174     CommonApp_DstAddr.addrMode = (afAddrMode_t)AddrBroadcast;
        MOV     DPTR,#CommonApp_DstAddr + 8
        MOV     A,#0xf
        MOVX    @DPTR,A
//  175     CommonApp_DstAddr.endPoint = COMMONAPP_ENDPOINT;
        INC     DPTR
        INC     A
        MOVX    @DPTR,A
//  176     CommonApp_DstAddr.addr.shortAddr = 0xFFFF;
        MOV     DPTR,#CommonApp_DstAddr
        MOV     A,#-0x1
        MOVX    @DPTR,A
        INC     DPTR
        MOVX    @DPTR,A
//  177 
//  178   // Fill out the endpoint description.
//  179     CommonApp_epDesc.endPoint = COMMONAPP_ENDPOINT;
        MOV     DPTR,#CommonApp_epDesc
        MOV     A,#0x10
        MOVX    @DPTR,A
//  180     CommonApp_epDesc.task_id = &CommonApp_TaskID;
        INC     DPTR
        MOV     A,#CommonApp_TaskID & 0xff
        MOVX    @DPTR,A
        INC     DPTR
        MOV     A,#(CommonApp_TaskID >> 8) & 0xff
        MOVX    @DPTR,A
//  181     CommonApp_epDesc.simpleDesc
//  182               = (SimpleDescriptionFormat_t *)&CommonApp_SimpleDesc;
        INC     DPTR
        MOV     A,#CommonApp_SimpleDesc & 0xff
        MOVX    @DPTR,A
        INC     DPTR
        MOV     A,#(CommonApp_SimpleDesc >> 8) & 0xff
        MOVX    @DPTR,A
//  183     CommonApp_epDesc.latencyReq = noLatencyReqs;
        INC     DPTR
        CLR     A
        MOVX    @DPTR,A
//  184   
//  185     // Register the endpoint description with the AF
//  186     afRegister( &CommonApp_epDesc );
        ; Setup parameters for call to function afRegister
        MOV     R2,#CommonApp_epDesc & 0xff
        MOV     R3,#(CommonApp_epDesc >> 8) & 0xff
        LCALL   ??afRegister?relay
//  187   
//  188     // Register for all key events - This app will handle all key events
//  189     RegisterForKeys( CommonApp_TaskID );
        ; Setup parameters for call to function RegisterForKeys
        MOV     DPTR,#CommonApp_TaskID
        MOVX    A,@DPTR
        MOV     R1,A
        LCALL   ??RegisterForKeys?relay
//  190   
//  191     ZDO_RegisterForZDOMsg( CommonApp_TaskID, End_Device_Bind_rsp );
        ; Setup parameters for call to function ZDO_RegisterForZDOMsg
        MOV     R2,#0x20
        MOV     R3,#-0x80
        MOV     DPTR,#CommonApp_TaskID
        MOVX    A,@DPTR
        MOV     R1,A
        LCALL   ??ZDO_RegisterForZDOMsg?relay
//  192     ZDO_RegisterForZDOMsg( CommonApp_TaskID, Match_Desc_rsp );
        ; Setup parameters for call to function ZDO_RegisterForZDOMsg
        MOV     R2,#0x6
        MOV     R3,#-0x80
        MOV     DPTR,#CommonApp_TaskID
        MOVX    A,@DPTR
        MOV     R1,A
        LCALL   ??ZDO_RegisterForZDOMsg?relay
//  193 
//  194     CommonApp_InitConfirm(task_id);
        ; Setup parameters for call to function CommonApp_InitConfirm
        MOV     A,R6
        MOV     R1,A
        LCALL   ??CommonApp_InitConfirm?relay
        CFI EndBlock cfiBlock0
//  195 }
        REQUIRE ?Subroutine0
        ; // Fall through to label ?Subroutine0

        RSEG BANKED_CODE:CODE:NOROOT(0)
?Subroutine0:
        CFI Block cfiBlock1 Using cfiCommon0
        CFI NoFunction
        CFI CFA_SP SP+0
        CFI CFA_XSP16 add(XSP16, 9)
        CFI VB load(1, XDATA, add(CFA_XSP16, literal(-8)))
        CFI DPL0 load(1, XDATA, add(CFA_XSP16, literal(-2)))
        CFI DPH0 load(1, XDATA, add(CFA_XSP16, literal(-1)))
        CFI R6 load(1, XDATA, add(CFA_XSP16, literal(-9)))
        CFI R7 load(1, XDATA, add(CFA_XSP16, literal(-6)))
        CFI V0 load(1, XDATA, add(CFA_XSP16, literal(-7)))
        CFI ?BRET_EXT load(1, XDATA, add(CFA_XSP16, literal(-3)))
        CFI ?RET_HIGH load(1, XDATA, add(CFA_XSP16, literal(-4)))
        CFI ?RET_LOW load(1, XDATA, add(CFA_XSP16, literal(-5)))
        MOV     R7,#0x1
        LJMP    ?BANKED_LEAVE_XDATA
        CFI EndBlock cfiBlock1
//  196 
//  197 
//  198 /*********************************************************************
//  199  * @fn      CommonrApp_ProcessEvent
//  200  *
//  201  * @brief   Common Application Task event processor.  This function
//  202  *          is called to process all events for the task.  Events
//  203  *          include timers, messages and any other user defined events.
//  204  *
//  205  * @param   task_id  - The OSAL assigned task ID.
//  206  * @param   events - events to process.  This is a bit map and can
//  207  *                   contain more than one event.
//  208  *
//  209  * @return  none
//  210  */

        RSEG BANKED_CODE:CODE:NOROOT(0)
//  211 uint16 CommonApp_ProcessEvent(uint8 task_id, uint16 events)
CommonApp_ProcessEvent:
        CFI Block cfiBlock2 Using cfiCommon0
        CFI Function CommonApp_ProcessEvent
        CODE
//  212 {
        FUNCALL CommonApp_ProcessEvent, osal_msg_receive
        LOCFRAME ISTACK, 0, STACK
        LOCFRAME PSTACK, 0, STACK
        LOCFRAME XSTACK, 14, STACK
        LOCFRAME IOVERLAY, 0, STATIC
        LOCFRAME DOVERLAY, 0, STATIC
        ARGFRAME ISTACK, 0, STACK
        ARGFRAME PSTACK, 0, STACK
        ARGFRAME XSTACK, 14, STACK
        ARGFRAME IOVERLAY, 0, STATIC
        ARGFRAME DOVERLAY, 0, STATIC
        FUNCALL CommonApp_ProcessEvent, ZDO_ParseEPListRsp
        LOCFRAME ISTACK, 0, STACK
        LOCFRAME PSTACK, 0, STACK
        LOCFRAME XSTACK, 14, STACK
        LOCFRAME IOVERLAY, 0, STATIC
        LOCFRAME DOVERLAY, 0, STATIC
        ARGFRAME ISTACK, 0, STACK
        ARGFRAME PSTACK, 0, STACK
        ARGFRAME XSTACK, 14, STACK
        ARGFRAME IOVERLAY, 0, STATIC
        ARGFRAME DOVERLAY, 0, STATIC
        FUNCALL CommonApp_ProcessEvent, osal_mem_free
        LOCFRAME ISTACK, 0, STACK
        LOCFRAME PSTACK, 0, STACK
        LOCFRAME XSTACK, 14, STACK
        LOCFRAME IOVERLAY, 0, STATIC
        LOCFRAME DOVERLAY, 0, STATIC
        ARGFRAME ISTACK, 0, STACK
        ARGFRAME PSTACK, 0, STACK
        ARGFRAME XSTACK, 14, STACK
        ARGFRAME IOVERLAY, 0, STATIC
        ARGFRAME DOVERLAY, 0, STATIC
        FUNCALL CommonApp_ProcessEvent, CommonApp_HandleKeys
        LOCFRAME ISTACK, 0, STACK
        LOCFRAME PSTACK, 0, STACK
        LOCFRAME XSTACK, 14, STACK
        LOCFRAME IOVERLAY, 0, STATIC
        LOCFRAME DOVERLAY, 0, STATIC
        ARGFRAME ISTACK, 0, STACK
        ARGFRAME PSTACK, 0, STACK
        ARGFRAME XSTACK, 14, STACK
        ARGFRAME IOVERLAY, 0, STATIC
        ARGFRAME DOVERLAY, 0, STATIC
        FUNCALL CommonApp_ProcessEvent, HalLedSet
        LOCFRAME ISTACK, 0, STACK
        LOCFRAME PSTACK, 0, STACK
        LOCFRAME XSTACK, 14, STACK
        LOCFRAME IOVERLAY, 0, STATIC
        LOCFRAME DOVERLAY, 0, STATIC
        ARGFRAME ISTACK, 0, STACK
        ARGFRAME PSTACK, 0, STACK
        ARGFRAME XSTACK, 14, STACK
        ARGFRAME IOVERLAY, 0, STATIC
        ARGFRAME DOVERLAY, 0, STATIC
        FUNCALL CommonApp_ProcessEvent, CommonApp_MessageMSGCB
        LOCFRAME ISTACK, 0, STACK
        LOCFRAME PSTACK, 0, STACK
        LOCFRAME XSTACK, 14, STACK
        LOCFRAME IOVERLAY, 0, STATIC
        LOCFRAME DOVERLAY, 0, STATIC
        ARGFRAME ISTACK, 0, STACK
        ARGFRAME PSTACK, 0, STACK
        ARGFRAME XSTACK, 14, STACK
        ARGFRAME IOVERLAY, 0, STATIC
        ARGFRAME DOVERLAY, 0, STATIC
        FUNCALL CommonApp_ProcessEvent, HalLedSet
        LOCFRAME ISTACK, 0, STACK
        LOCFRAME PSTACK, 0, STACK
        LOCFRAME XSTACK, 14, STACK
        LOCFRAME IOVERLAY, 0, STATIC
        LOCFRAME DOVERLAY, 0, STATIC
        ARGFRAME ISTACK, 0, STACK
        ARGFRAME PSTACK, 0, STACK
        ARGFRAME XSTACK, 14, STACK
        ARGFRAME IOVERLAY, 0, STATIC
        ARGFRAME DOVERLAY, 0, STATIC
        FUNCALL CommonApp_ProcessEvent, CommonApp_PowerOnFactorySetting
        LOCFRAME ISTACK, 0, STACK
        LOCFRAME PSTACK, 0, STACK
        LOCFRAME XSTACK, 14, STACK
        LOCFRAME IOVERLAY, 0, STATIC
        LOCFRAME DOVERLAY, 0, STATIC
        ARGFRAME ISTACK, 0, STACK
        ARGFRAME PSTACK, 0, STACK
        ARGFRAME XSTACK, 14, STACK
        ARGFRAME IOVERLAY, 0, STATIC
        ARGFRAME DOVERLAY, 0, STATIC
        FUNCALL CommonApp_ProcessEvent, osal_set_event
        LOCFRAME ISTACK, 0, STACK
        LOCFRAME PSTACK, 0, STACK
        LOCFRAME XSTACK, 14, STACK
        LOCFRAME IOVERLAY, 0, STATIC
        LOCFRAME DOVERLAY, 0, STATIC
        ARGFRAME ISTACK, 0, STACK
        ARGFRAME PSTACK, 0, STACK
        ARGFRAME XSTACK, 14, STACK
        ARGFRAME IOVERLAY, 0, STATIC
        ARGFRAME DOVERLAY, 0, STATIC
        FUNCALL CommonApp_ProcessEvent, osal_msg_deallocate
        LOCFRAME ISTACK, 0, STACK
        LOCFRAME PSTACK, 0, STACK
        LOCFRAME XSTACK, 14, STACK
        LOCFRAME IOVERLAY, 0, STATIC
        LOCFRAME DOVERLAY, 0, STATIC
        ARGFRAME ISTACK, 0, STACK
        ARGFRAME PSTACK, 0, STACK
        ARGFRAME XSTACK, 14, STACK
        ARGFRAME IOVERLAY, 0, STATIC
        ARGFRAME DOVERLAY, 0, STATIC
        FUNCALL CommonApp_ProcessEvent, osal_msg_receive
        LOCFRAME ISTACK, 0, STACK
        LOCFRAME PSTACK, 0, STACK
        LOCFRAME XSTACK, 14, STACK
        LOCFRAME IOVERLAY, 0, STATIC
        LOCFRAME DOVERLAY, 0, STATIC
        ARGFRAME ISTACK, 0, STACK
        ARGFRAME PSTACK, 0, STACK
        ARGFRAME XSTACK, 14, STACK
        ARGFRAME IOVERLAY, 0, STATIC
        ARGFRAME DOVERLAY, 0, STATIC
        FUNCALL CommonApp_ProcessEvent, NLME_GetShortAddr
        LOCFRAME ISTACK, 0, STACK
        LOCFRAME PSTACK, 0, STACK
        LOCFRAME XSTACK, 14, STACK
        LOCFRAME IOVERLAY, 0, STATIC
        LOCFRAME DOVERLAY, 0, STATIC
        ARGFRAME ISTACK, 0, STACK
        ARGFRAME PSTACK, 0, STACK
        ARGFRAME XSTACK, 14, STACK
        ARGFRAME IOVERLAY, 0, STATIC
        ARGFRAME DOVERLAY, 0, STATIC
        FUNCALL CommonApp_ProcessEvent, CommonApp_SendTheMessage
        LOCFRAME ISTACK, 0, STACK
        LOCFRAME PSTACK, 0, STACK
        LOCFRAME XSTACK, 14, STACK
        LOCFRAME IOVERLAY, 0, STATIC
        LOCFRAME DOVERLAY, 0, STATIC
        ARGFRAME ISTACK, 0, STACK
        ARGFRAME PSTACK, 0, STACK
        ARGFRAME XSTACK, 14, STACK
        ARGFRAME IOVERLAY, 0, STATIC
        ARGFRAME DOVERLAY, 0, STATIC
        FUNCALL CommonApp_ProcessEvent, osal_start_timerEx
        LOCFRAME ISTACK, 0, STACK
        LOCFRAME PSTACK, 0, STACK
        LOCFRAME XSTACK, 14, STACK
        LOCFRAME IOVERLAY, 0, STATIC
        LOCFRAME DOVERLAY, 0, STATIC
        ARGFRAME ISTACK, 0, STACK
        ARGFRAME PSTACK, 0, STACK
        ARGFRAME XSTACK, 14, STACK
        ARGFRAME IOVERLAY, 0, STATIC
        ARGFRAME DOVERLAY, 0, STATIC
        FUNCALL CommonApp_ProcessEvent, process_event
        LOCFRAME ISTACK, 0, STACK
        LOCFRAME PSTACK, 0, STACK
        LOCFRAME XSTACK, 14, STACK
        LOCFRAME IOVERLAY, 0, STATIC
        LOCFRAME DOVERLAY, 0, STATIC
        ARGFRAME ISTACK, 0, STACK
        ARGFRAME PSTACK, 0, STACK
        ARGFRAME XSTACK, 14, STACK
        ARGFRAME IOVERLAY, 0, STATIC
        ARGFRAME DOVERLAY, 0, STATIC
        MOV     A,#-0xe
        LCALL   ?BANKED_ENTER_XDATA
        CFI DPH0 load(1, XDATA, add(CFA_XSP16, literal(-1)))
        CFI DPL0 load(1, XDATA, add(CFA_XSP16, literal(-2)))
        CFI ?BRET_EXT load(1, XDATA, add(CFA_XSP16, literal(-3)))
        CFI ?RET_HIGH load(1, XDATA, add(CFA_XSP16, literal(-4)))
        CFI ?RET_LOW load(1, XDATA, add(CFA_XSP16, literal(-5)))
        CFI R7 load(1, XDATA, add(CFA_XSP16, literal(-6)))
        CFI V5 load(1, XDATA, add(CFA_XSP16, literal(-7)))
        CFI V4 load(1, XDATA, add(CFA_XSP16, literal(-8)))
        CFI V3 load(1, XDATA, add(CFA_XSP16, literal(-9)))
        CFI V2 load(1, XDATA, add(CFA_XSP16, literal(-10)))
        CFI V1 load(1, XDATA, add(CFA_XSP16, literal(-11)))
        CFI V0 load(1, XDATA, add(CFA_XSP16, literal(-12)))
        CFI VB load(1, XDATA, add(CFA_XSP16, literal(-13)))
        CFI R6 load(1, XDATA, add(CFA_XSP16, literal(-14)))
        CFI CFA_SP SP+0
        CFI CFA_XSP16 add(XSP16, 14)
        ; Saved register size: 14
        ; Auto size: 0
        MOV     ?V0 + 0,R2
        MOV     ?V0 + 1,R3
//  213     afIncomingMSGPacket_t *MSGpkt;
//  214     afDataConfirm_t *afDataConfirm;
//  215   
//  216     // Data Confirmation message fields
//  217     byte sentEP;
//  218     ZStatus_t sentStatus;
//  219     byte sentTransID;       // This should match the value sent
//  220     (void)task_id;  // Intentionally unreferenced parameter
//  221     
//  222     if ( events & SYS_EVENT_MSG )
        MOV     A,R3
        ANL     A,#0x80
        JNZ     $+5
        LJMP    ??CommonApp_ProcessEvent_0 & 0xFFFF
//  223     {
//  224       MSGpkt = (afIncomingMSGPacket_t *)osal_msg_receive( CommonApp_TaskID );
        ; Setup parameters for call to function osal_msg_receive
        LCALL   ?Subroutine6 & 0xFFFF
//  225       while ( MSGpkt )
??CrossCallReturnLabel_2:
        JNZ     $+5
        LJMP    ??CommonApp_ProcessEvent_1 & 0xFFFF
//  226       {
//  227         switch ( MSGpkt->hdr.event )
??CommonApp_ProcessEvent_2:
        MOV     DPL,R6
        MOV     DPH,R7
        MOVX    A,@DPTR
        ADD     A,#-0x1a
        JNZ     $+5
        LJMP    ??CommonApp_ProcessEvent_3 & 0xFFFF
        ADD     A,#0x5a
        JZ      ??CommonApp_ProcessEvent_4
        ADD     A,#-0x11
        JNZ     $+5
        LJMP    ??CommonApp_ProcessEvent_5 & 0xFFFF
        ADD     A,#-0x2
        JZ      $+5
        LJMP    ??CommonApp_ProcessEvent_6 & 0xFFFF
//  228         {
//  229         case ZDO_CB_MSG:
//  230 		  CommonApp_ProcessZDOMsgs( (zdoIncomingMsg_t *)MSGpkt );
        MOV     A,R6
        ADD     A,#0xc
        MOV     DPL,A
        MOV     A,R7
        ADDC    A,#0x0
        MOV     DPH,A
        MOVX    A,@DPTR
        XRL     A,#0x6
        JNZ     ??CommonApp_ProcessEvent_7
        INC     DPTR
        MOVX    A,@DPTR
        XRL     A,#0x80
??CommonApp_ProcessEvent_7:
        JZ      $+5
        LJMP    ??CommonApp_ProcessEvent_6 & 0xFFFF
        ; Setup parameters for call to function ZDO_ParseEPListRsp
        MOV     A,R6
        MOV     R2,A
        MOV     A,R7
        MOV     R3,A
        LCALL   ??ZDO_ParseEPListRsp?relay
        MOV     A,R2
        ORL     A,R3
        JNZ     $+5
        LJMP    ??CommonApp_ProcessEvent_6 & 0xFFFF
        MOV     DPL,R2
        MOV     DPH,R3
        MOVX    A,@DPTR
        JNZ     ??CommonApp_ProcessEvent_8
        INC     DPTR
        INC     DPTR
        INC     DPTR
        MOVX    A,@DPTR
        JZ      ??CommonApp_ProcessEvent_8
        MOV     DPTR,#CommonApp_DstAddr + 8
        MOV     A,#0x2
        MOVX    @DPTR,A
        MOV     DPL,R2
        MOV     DPH,R3
        INC     DPTR
        MOVX    A,@DPTR
        MOV     R0,A
        INC     DPTR
        MOVX    A,@DPTR
        MOV     R1,A
        MOV     DPTR,#CommonApp_DstAddr
        MOV     A,R0
        MOVX    @DPTR,A
        INC     DPTR
        MOV     A,R1
        MOVX    @DPTR,A
        MOV     DPL,R2
        MOV     DPH,R3
        INC     DPTR
        INC     DPTR
        INC     DPTR
        INC     DPTR
        MOVX    A,@DPTR
        MOV     DPTR,#CommonApp_DstAddr + 9
        MOVX    @DPTR,A
??CommonApp_ProcessEvent_8:
        ; Setup parameters for call to function osal_mem_free
        LCALL   ??osal_mem_free?relay
        SJMP    ??CommonApp_ProcessEvent_6
//  231           break;
//  232 
//  233         case KEY_CHANGE:
//  234 		  CommonApp_HandleKeys( ((keyChange_t *)MSGpkt)->state, ((keyChange_t *)MSGpkt)->keys );
??CommonApp_ProcessEvent_4:
        ; Setup parameters for call to function CommonApp_HandleKeys
        INC     DPTR
        INC     DPTR
        INC     DPTR
        LCALL   ??Subroutine12_0 & 0xFFFF
??CrossCallReturnLabel_16:
        MOV     DPL,R6
        MOV     DPH,R7
        INC     DPTR
        INC     DPTR
        MOVX    A,@DPTR
        MOV     R1,A
        LCALL   ??CommonApp_HandleKeys?relay
//  235           break;
        SJMP    ??CommonApp_ProcessEvent_6
//  236 
//  237         case AF_DATA_CONFIRM_CMD:
//  238           // This message is received as a confirmation of a data packet sent.
//  239           // The status is of ZStatus_t type [defined in ZComDef.h]
//  240           // The message fields are defined in AF.h
//  241           afDataConfirm = (afDataConfirm_t *)MSGpkt;
//  242           sentEP = afDataConfirm->endpoint;
//  243           sentStatus = afDataConfirm->hdr.status;
//  244           sentTransID = afDataConfirm->transID;
//  245           (void)sentEP;
//  246           (void)sentTransID;
//  247 
//  248           // Action taken when confirmation is received.
//  249           if ( sentStatus != ZSuccess )
//  250           {
//  251             CommonApp_afDatacfm( afDataConfirm );
//  252           }
//  253           break;
//  254 
//  255         case AF_INCOMING_MSG_CMD:
//  256 #ifndef POWER_SAVING
//  257 #if defined(HAL_MT7620_GPIO_MAP) || (DEVICE_TYPE_ID==13) || (DEVICE_TYPE_ID==14)
//  258 		  HalLedSet( HAL_LED_1,  HAL_LED_MODE_BLINK);
//  259 #else
//  260 		  HalLedSet(HAL_LED_2, HAL_LED_MODE_BLINK);
??CommonApp_ProcessEvent_3:
        ; Setup parameters for call to function HalLedSet
        MOV     R2,#0x2
        MOV     R1,#0x2
        LCALL   ??HalLedSet?relay
//  261 #endif
//  262           CommonApp_MessageMSGCB( MSGpkt );
        ; Setup parameters for call to function CommonApp_MessageMSGCB
        MOV     A,R6
        MOV     R2,A
        MOV     A,R7
        MOV     R3,A
        LCALL   ??CommonApp_MessageMSGCB?relay
//  263 #endif
//  264           break;
        SJMP    ??CommonApp_ProcessEvent_6
//  265 
//  266         case ZDO_STATE_CHANGE:
//  267 		  HalLedSet(HAL_LED_3, HAL_LED_MODE_BLINK);
??CommonApp_ProcessEvent_5:
        ; Setup parameters for call to function HalLedSet
        MOV     R2,#0x2
        MOV     R1,#0x4
        LCALL   ??HalLedSet?relay
//  268 		  CommonApp_NwkState = (devStates_t)(MSGpkt->hdr.status);
        MOV     DPL,R6
        MOV     DPH,R7
        INC     DPTR
        MOVX    A,@DPTR
        MOV     DPTR,#CommonApp_NwkState
        MOVX    @DPTR,A
//  269 #if defined(POWERON_FACTORY_SETTING) && !defined(RTR_NWK)
//  270 		  CommonApp_PowerOnFactorySetting(CommonApp_NwkState);
        ; Setup parameters for call to function CommonApp_PowerOnFactorySetting
        MOV     R1,A
        LCALL   ??CommonApp_PowerOnFactorySetting?relay
//  271 #endif
//  272 #ifndef RS485_DEV
//  273 		  CommonApp_ProcessZDOStates( CommonApp_NwkState );
//  274 #endif
//  275         if( CommonApp_NwkState == DEV_ROUTER || CommonApp_NwkState == DEV_END_DEVICE)
        MOV     DPTR,#CommonApp_NwkState
        MOVX    A,@DPTR
        XRL     A,#0x7
        JZ      ??CommonApp_ProcessEvent_9
        MOVX    A,@DPTR
        XRL     A,#0x6
        JNZ     ??CommonApp_ProcessEvent_10
//  276           {      
//  277             osal_set_event(CommonApp_TaskID,RS485_HEART_EVT);
??CommonApp_ProcessEvent_9:
        ; Setup parameters for call to function osal_set_event
        MOV     R2,#0x0
        MOV     R3,#0x2
        MOV     DPTR,#CommonApp_TaskID
        MOVX    A,@DPTR
        MOV     R1,A
        LCALL   ??osal_set_event?relay
//  278           }
//  279 		  isFirstState = 0;
??CommonApp_ProcessEvent_10:
        MOV     DPTR,#isFirstState
        CLR     A
        MOVX    @DPTR,A
//  280           break;
//  281 
//  282         default:
//  283           break;
//  284       }
//  285 
//  286       // Release the memory
//  287       osal_msg_deallocate( (uint8 *)MSGpkt );
??CommonApp_ProcessEvent_6:
        ; Setup parameters for call to function osal_msg_deallocate
        MOV     A,R6
        MOV     R2,A
        MOV     A,R7
        MOV     R3,A
        LCALL   ??osal_msg_deallocate?relay
//  288 
//  289       // Next
//  290       MSGpkt = (afIncomingMSGPacket_t *)osal_msg_receive( CommonApp_TaskID );
        ; Setup parameters for call to function osal_msg_receive
        LCALL   ?Subroutine6 & 0xFFFF
//  291     }
??CrossCallReturnLabel_3:
        JZ      $+5
        LJMP    ??CommonApp_ProcessEvent_2 & 0xFFFF
//  292 
//  293     // return unprocessed events
//  294     return (events ^ SYS_EVENT_MSG);
??CommonApp_ProcessEvent_1:
        MOV     R2,?V0 + 0
        MOV     A,?V0 + 1
        XRL     A,#0x80
??CommonApp_ProcessEvent_11:
        MOV     R3,A
        SJMP    ??CommonApp_ProcessEvent_12
//  295   }
//  296   
//  297    if ( events & RS485_HEART_EVT )
??CommonApp_ProcessEvent_0:
        MOV     A,R3
        ANL     A,#0x2
        JZ      ??CommonApp_ProcessEvent_13
//  298   {
//  299     nwkAddr = NLME_GetShortAddr();//’˝≥£◊÷Ω⁄–Ú£¨∏ﬂŒª‘⁄«∞£¨µÕŒª‘⁄∫Û
        ; Setup parameters for call to function NLME_GetShortAddr
        LCALL   ??NLME_GetShortAddr?relay
        MOV     DPTR,#nwkAddr
        MOV     A,R2
        MOVX    @DPTR,A
        INC     DPTR
        MOV     A,R3
        MOVX    @DPTR,A
//  300     
//  301     nwkAddr_buf[0]=nwkAddr>>8;
        MOV     DPTR,#nwkAddr_buf
        MOVX    @DPTR,A
//  302     nwkAddr_buf[1]=nwkAddr&0x00ff;
        MOV     DPTR,#nwkAddr
        MOVX    A,@DPTR
        MOV     DPTR,#nwkAddr_buf + 1
        MOVX    @DPTR,A
//  303     nwkAddr_buf[2]=Address_dev;
        MOV     DPTR,#Address_dev
        MOVX    A,@DPTR
        MOV     DPTR,#nwkAddr_buf + 2
        MOVX    @DPTR,A
//  304 #ifdef UART_DEBUG
//  305     Data_TxHandler(nwkAddr_buf, 3);
//  306 #endif
//  307     CommonApp_SendTheMessage(COORDINATOR_ADDR, nwkAddr_buf, 3);
        ; Setup parameters for call to function CommonApp_SendTheMessage
        MOV     R1,#0x3
        MOV     R4,#nwkAddr_buf & 0xff
        MOV     R5,#(nwkAddr_buf >> 8) & 0xff
        MOV     R2,#0x0
        MOV     R3,#0x0
        LCALL   ??CommonApp_SendTheMessage?relay
//  308     osal_start_timerEx( CommonApp_TaskID,
//  309                         RS485_HEART_EVT,
//  310                         RS485_SEND_realtime_TIMEOUT );
        ; Setup parameters for call to function osal_start_timerEx
        MOV     R4,#0x30
        MOV     R5,#0x75
        MOV     R2,#0x0
        MOV     R3,#0x2
        MOV     DPTR,#CommonApp_TaskID
        MOVX    A,@DPTR
        MOV     R1,A
        LCALL   ??osal_start_timerEx?relay
//  311     return (events ^ RS485_HEART_EVT);
        MOV     R2,?V0 + 0
        MOV     A,?V0 + 1
        XRL     A,#0x2
        SJMP    ??CommonApp_ProcessEvent_11
//  312   }
//  313 
//  314   return process_event(task_id, events);
??CommonApp_ProcessEvent_13:
        ; Setup parameters for call to function process_event
        LCALL   ??process_event?relay
??CommonApp_ProcessEvent_12:
        MOV     R7,#0x6
        LJMP    ?BANKED_LEAVE_XDATA
        CFI EndBlock cfiBlock2
//  315 }

        RSEG BANKED_CODE:CODE:NOROOT(0)
?Subroutine6:
        CFI Block cfiCond3 Using cfiCommon0
        CFI NoFunction
        CFI Conditional ??CrossCallReturnLabel_2
        CFI R6 load(1, XDATA, add(CFA_XSP16, literal(-14)))
        CFI VB load(1, XDATA, add(CFA_XSP16, literal(-13)))
        CFI V0 load(1, XDATA, add(CFA_XSP16, literal(-12)))
        CFI V1 load(1, XDATA, add(CFA_XSP16, literal(-11)))
        CFI V2 load(1, XDATA, add(CFA_XSP16, literal(-10)))
        CFI V3 load(1, XDATA, add(CFA_XSP16, literal(-9)))
        CFI V4 load(1, XDATA, add(CFA_XSP16, literal(-8)))
        CFI V5 load(1, XDATA, add(CFA_XSP16, literal(-7)))
        CFI R7 load(1, XDATA, add(CFA_XSP16, literal(-6)))
        CFI ?RET_LOW load(1, XDATA, add(CFA_XSP16, literal(-5)))
        CFI ?RET_HIGH load(1, XDATA, add(CFA_XSP16, literal(-4)))
        CFI ?BRET_EXT load(1, XDATA, add(CFA_XSP16, literal(-3)))
        CFI DPL0 load(1, XDATA, add(CFA_XSP16, literal(-2)))
        CFI DPH0 load(1, XDATA, add(CFA_XSP16, literal(-1)))
        CFI CFA_SP SP+0
        CFI CFA_XSP16 add(XSP16, 14)
        CFI Block cfiCond4 Using cfiCommon0
        CFI (cfiCond4) NoFunction
        CFI (cfiCond4) Conditional ??CrossCallReturnLabel_3
        CFI (cfiCond4) R6 load(1, XDATA, add(CFA_XSP16, literal(-14)))
        CFI (cfiCond4) VB load(1, XDATA, add(CFA_XSP16, literal(-13)))
        CFI (cfiCond4) V0 load(1, XDATA, add(CFA_XSP16, literal(-12)))
        CFI (cfiCond4) V1 load(1, XDATA, add(CFA_XSP16, literal(-11)))
        CFI (cfiCond4) V2 load(1, XDATA, add(CFA_XSP16, literal(-10)))
        CFI (cfiCond4) V3 load(1, XDATA, add(CFA_XSP16, literal(-9)))
        CFI (cfiCond4) V4 load(1, XDATA, add(CFA_XSP16, literal(-8)))
        CFI (cfiCond4) V5 load(1, XDATA, add(CFA_XSP16, literal(-7)))
        CFI (cfiCond4) R7 load(1, XDATA, add(CFA_XSP16, literal(-6)))
        CFI (cfiCond4) ?RET_LOW load(1, XDATA, add(CFA_XSP16, literal(-5)))
        CFI (cfiCond4) ?RET_HIGH load(1, XDATA, add(CFA_XSP16, literal(-4)))
        CFI (cfiCond4) ?BRET_EXT load(1, XDATA, add(CFA_XSP16, literal(-3)))
        CFI (cfiCond4) DPL0 load(1, XDATA, add(CFA_XSP16, literal(-2)))
        CFI (cfiCond4) DPH0 load(1, XDATA, add(CFA_XSP16, literal(-1)))
        CFI (cfiCond4) CFA_SP SP+0
        CFI (cfiCond4) CFA_XSP16 add(XSP16, 14)
        CFI Block cfiPicker5 Using cfiCommon1
        CFI (cfiPicker5) NoFunction
        CFI (cfiPicker5) Picker
        MOV     DPTR,#CommonApp_TaskID
        MOVX    A,@DPTR
        MOV     R1,A
        LCALL   ??osal_msg_receive?relay
        MOV     ?V0 + 4,R2
        MOV     ?V0 + 5,R3
        MOV     R6,?V0 + 4
        MOV     R7,?V0 + 5
        MOV     A,R6
        ORL     A,R7
        RET
        CFI EndBlock cfiCond3
        CFI EndBlock cfiCond4
        CFI EndBlock cfiPicker5
//  316 
//  317 
//  318 /*********************************************************************
//  319  * Event Generation Functions
//  320  */
//  321 
//  322 #if defined(POWERON_FACTORY_SETTING) && !defined(RTR_NWK)
//  323 #define POWERSETTING_COUNT	3

        RSEG XDATA_Z:XDATA:NOROOT(0)
        DATA8
//  324 static uint8 hasConn = 0;
hasConn:
        DS 1
        REQUIRE __INIT_XDATA_Z

        RSEG XDATA_I:XDATA:NOROOT(0)
//  325 static uint8 isNotTimeOut = 1;
isNotTimeOut:
        DATA8
        DS 1
        REQUIRE `?<Initializer for isNotTimeOut>`
        REQUIRE __INIT_XDATA_I

        RSEG XDATA_Z:XDATA:NOROOT(0)
        DATA8
//  326 static uint8 isPowerSetCount = 0;
isPowerSetCount:
        DS 1
        REQUIRE __INIT_XDATA_Z

        RSEG XDATA_Z:XDATA:NOROOT(0)
        DATA8
//  327 static uint8 powerSetCount = 0;
powerSetCount:
        DS 1
        REQUIRE __INIT_XDATA_Z
//  328 /*********************************************************************
//  329  * @fn      CommonApp_PowerOnFactorySetting
//  330  *
//  331  * @brief   reset to factory setting by power on off
//  332  *
//  333  * @param   network status
//  334  *
//  335  * @return  none
//  336  */

        RSEG BANKED_CODE:CODE:NOROOT(0)
//  337 void CommonApp_PowerOnFactorySetting(devStates_t status)
CommonApp_PowerOnFactorySetting:
        CFI Block cfiBlock6 Using cfiCommon0
        CFI Function CommonApp_PowerOnFactorySetting
        CODE
//  338 {
        FUNCALL CommonApp_PowerOnFactorySetting, osal_nv_item_init
        LOCFRAME ISTACK, 0, STACK
        LOCFRAME PSTACK, 0, STACK
        LOCFRAME XSTACK, 13, STACK
        LOCFRAME IOVERLAY, 0, STATIC
        LOCFRAME DOVERLAY, 0, STATIC
        ARGFRAME ISTACK, 0, STACK
        ARGFRAME PSTACK, 0, STACK
        ARGFRAME XSTACK, 13, STACK
        ARGFRAME IOVERLAY, 0, STATIC
        ARGFRAME DOVERLAY, 0, STATIC
        FUNCALL CommonApp_PowerOnFactorySetting, osal_nv_read
        LOCFRAME ISTACK, 0, STACK
        LOCFRAME PSTACK, 0, STACK
        LOCFRAME XSTACK, 15, STACK
        LOCFRAME IOVERLAY, 0, STATIC
        LOCFRAME DOVERLAY, 0, STATIC
        ARGFRAME ISTACK, 0, STACK
        ARGFRAME PSTACK, 0, STACK
        ARGFRAME XSTACK, 15, STACK
        ARGFRAME IOVERLAY, 0, STATIC
        ARGFRAME DOVERLAY, 0, STATIC
        FUNCALL CommonApp_PowerOnFactorySetting, set_user_event
        LOCFRAME ISTACK, 0, STACK
        LOCFRAME PSTACK, 0, STACK
        LOCFRAME XSTACK, 16, STACK
        LOCFRAME IOVERLAY, 0, STATIC
        LOCFRAME DOVERLAY, 0, STATIC
        ARGFRAME ISTACK, 0, STACK
        ARGFRAME PSTACK, 0, STACK
        ARGFRAME XSTACK, 16, STACK
        ARGFRAME IOVERLAY, 0, STATIC
        ARGFRAME DOVERLAY, 0, STATIC
        FUNCALL CommonApp_PowerOnFactorySetting, osal_nv_item_init
        LOCFRAME ISTACK, 0, STACK
        LOCFRAME PSTACK, 0, STACK
        LOCFRAME XSTACK, 13, STACK
        LOCFRAME IOVERLAY, 0, STATIC
        LOCFRAME DOVERLAY, 0, STATIC
        ARGFRAME ISTACK, 0, STACK
        ARGFRAME PSTACK, 0, STACK
        ARGFRAME XSTACK, 13, STACK
        ARGFRAME IOVERLAY, 0, STATIC
        ARGFRAME DOVERLAY, 0, STATIC
        FUNCALL CommonApp_PowerOnFactorySetting, osal_nv_write
        LOCFRAME ISTACK, 0, STACK
        LOCFRAME PSTACK, 0, STACK
        LOCFRAME XSTACK, 15, STACK
        LOCFRAME IOVERLAY, 0, STATIC
        LOCFRAME DOVERLAY, 0, STATIC
        ARGFRAME ISTACK, 0, STACK
        ARGFRAME PSTACK, 0, STACK
        ARGFRAME XSTACK, 15, STACK
        ARGFRAME IOVERLAY, 0, STATIC
        ARGFRAME DOVERLAY, 0, STATIC
        FUNCALL CommonApp_PowerOnFactorySetting, zgReadStartupOptions
        LOCFRAME ISTACK, 0, STACK
        LOCFRAME PSTACK, 0, STACK
        LOCFRAME XSTACK, 11, STACK
        LOCFRAME IOVERLAY, 0, STATIC
        LOCFRAME DOVERLAY, 0, STATIC
        ARGFRAME ISTACK, 0, STACK
        ARGFRAME PSTACK, 0, STACK
        ARGFRAME XSTACK, 11, STACK
        ARGFRAME IOVERLAY, 0, STATIC
        ARGFRAME DOVERLAY, 0, STATIC
        FUNCALL CommonApp_PowerOnFactorySetting, osal_nv_item_init
        LOCFRAME ISTACK, 0, STACK
        LOCFRAME PSTACK, 0, STACK
        LOCFRAME XSTACK, 13, STACK
        LOCFRAME IOVERLAY, 0, STATIC
        LOCFRAME DOVERLAY, 0, STATIC
        ARGFRAME ISTACK, 0, STACK
        ARGFRAME PSTACK, 0, STACK
        ARGFRAME XSTACK, 13, STACK
        ARGFRAME IOVERLAY, 0, STATIC
        ARGFRAME DOVERLAY, 0, STATIC
        FUNCALL CommonApp_PowerOnFactorySetting, osal_nv_write
        LOCFRAME ISTACK, 0, STACK
        LOCFRAME PSTACK, 0, STACK
        LOCFRAME XSTACK, 15, STACK
        LOCFRAME IOVERLAY, 0, STATIC
        LOCFRAME DOVERLAY, 0, STATIC
        ARGFRAME ISTACK, 0, STACK
        ARGFRAME PSTACK, 0, STACK
        ARGFRAME XSTACK, 15, STACK
        ARGFRAME IOVERLAY, 0, STATIC
        ARGFRAME DOVERLAY, 0, STATIC
        FUNCALL CommonApp_PowerOnFactorySetting, HalLedBlink
        LOCFRAME ISTACK, 0, STACK
        LOCFRAME PSTACK, 0, STACK
        LOCFRAME XSTACK, 11, STACK
        LOCFRAME IOVERLAY, 0, STATIC
        LOCFRAME DOVERLAY, 0, STATIC
        ARGFRAME ISTACK, 0, STACK
        ARGFRAME PSTACK, 0, STACK
        ARGFRAME XSTACK, 11, STACK
        ARGFRAME IOVERLAY, 0, STATIC
        ARGFRAME DOVERLAY, 0, STATIC
        FUNCALL CommonApp_PowerOnFactorySetting, osal_nv_item_init
        LOCFRAME ISTACK, 0, STACK
        LOCFRAME PSTACK, 0, STACK
        LOCFRAME XSTACK, 13, STACK
        LOCFRAME IOVERLAY, 0, STATIC
        LOCFRAME DOVERLAY, 0, STATIC
        ARGFRAME ISTACK, 0, STACK
        ARGFRAME PSTACK, 0, STACK
        ARGFRAME XSTACK, 13, STACK
        ARGFRAME IOVERLAY, 0, STATIC
        ARGFRAME DOVERLAY, 0, STATIC
        FUNCALL CommonApp_PowerOnFactorySetting, osal_nv_write
        LOCFRAME ISTACK, 0, STACK
        LOCFRAME PSTACK, 0, STACK
        LOCFRAME XSTACK, 15, STACK
        LOCFRAME IOVERLAY, 0, STATIC
        LOCFRAME DOVERLAY, 0, STATIC
        ARGFRAME ISTACK, 0, STACK
        ARGFRAME PSTACK, 0, STACK
        ARGFRAME XSTACK, 15, STACK
        ARGFRAME IOVERLAY, 0, STATIC
        ARGFRAME DOVERLAY, 0, STATIC
        FUNCALL CommonApp_PowerOnFactorySetting, zgWriteStartupOptions
        LOCFRAME ISTACK, 0, STACK
        LOCFRAME PSTACK, 0, STACK
        LOCFRAME XSTACK, 11, STACK
        LOCFRAME IOVERLAY, 0, STATIC
        LOCFRAME DOVERLAY, 0, STATIC
        ARGFRAME ISTACK, 0, STACK
        ARGFRAME PSTACK, 0, STACK
        ARGFRAME XSTACK, 11, STACK
        ARGFRAME IOVERLAY, 0, STATIC
        ARGFRAME DOVERLAY, 0, STATIC
        MOV     A,#-0xa
        LCALL   ?BANKED_ENTER_XDATA
        CFI DPH0 load(1, XDATA, add(CFA_XSP16, literal(-1)))
        CFI DPL0 load(1, XDATA, add(CFA_XSP16, literal(-2)))
        CFI ?BRET_EXT load(1, XDATA, add(CFA_XSP16, literal(-3)))
        CFI ?RET_HIGH load(1, XDATA, add(CFA_XSP16, literal(-4)))
        CFI ?RET_LOW load(1, XDATA, add(CFA_XSP16, literal(-5)))
        CFI R7 load(1, XDATA, add(CFA_XSP16, literal(-6)))
        CFI V1 load(1, XDATA, add(CFA_XSP16, literal(-7)))
        CFI V0 load(1, XDATA, add(CFA_XSP16, literal(-8)))
        CFI VB load(1, XDATA, add(CFA_XSP16, literal(-9)))
        CFI R6 load(1, XDATA, add(CFA_XSP16, literal(-10)))
        CFI CFA_SP SP+0
        CFI CFA_XSP16 add(XSP16, 10)
        ; Saved register size: 10
        ; Auto size: 1
        MOV     A,#-0x1
        LCALL   ?ALLOC_XSTACK8
        CFI CFA_XSP16 add(XSP16, 11)
        MOV     A,R1
        MOV     R6,A
//  339   if(isFirstState)
        MOV     DPTR,#isFirstState
        MOVX    A,@DPTR
        JZ      ??CommonApp_PowerOnFactorySetting_0
//  340   {
//  341 	if ( osal_nv_item_init( ZCD_NV_POWER_SETTING_COUNT,
//  342                               sizeof(powerSetCount),
//  343                               &powerSetCount ) == ZSUCCESS )
        ; Setup parameters for call to function osal_nv_item_init
        MOV     ?V0 + 0,#powerSetCount & 0xff
        MOV     ?V0 + 1,#(powerSetCount >> 8) & 0xff
        MOV     R0,#?V0 + 0
        LCALL   ?PUSH_XSTACK_I_TWO
        CFI CFA_XSP16 add(XSP16, 13)
        LCALL   ?Subroutine8 & 0xFFFF
??CrossCallReturnLabel_4:
        LCALL   ?DEALLOC_XSTACK8
        CFI CFA_XSP16 add(XSP16, 11)
        MOV     A,R1
        JNZ     ??CommonApp_PowerOnFactorySetting_1
//  344 	{
//  345 		osal_nv_read( ZCD_NV_POWER_SETTING_COUNT,
//  346 		            	0,
//  347 		                sizeof( powerSetCount ),
//  348 		                &powerSetCount);
        ; Setup parameters for call to function osal_nv_read
        MOV     R0,#?V0 + 0
        LCALL   ?PUSH_XSTACK_I_TWO
        CFI CFA_XSP16 add(XSP16, 13)
        MOV     ?V0 + 0,#0x1
        MOV     ?V0 + 1,#0x0
        MOV     R0,#?V0 + 0
        LCALL   ?PUSH_XSTACK_I_TWO
        CFI CFA_XSP16 add(XSP16, 15)
        MOV     R4,#0x0
        MOV     R5,#0x0
        MOV     R2,#0x12
        MOV     R3,#0x4
        LCALL   ??osal_nv_read?relay
        MOV     A,#0x4
        LCALL   ?DEALLOC_XSTACK8
        CFI CFA_XSP16 add(XSP16, 11)
//  349 	}
//  350 
//  351 	set_user_event(CommonApp_TaskID, POWERSETTING_COUNT_EVT, CommonApp_PowerSettingCountCB, 
//  352   		POWERSETTING_TIMEOUT, TIMER_ONE_EXECUTION, NULL);
??CommonApp_PowerOnFactorySetting_1:
        ; Setup parameters for call to function set_user_event
        CLR     A
        MOV     ?V0 + 0,A
        MOV     ?V0 + 1,A
        MOV     R0,#?V0 + 0
        LCALL   ?PUSH_XSTACK_I_TWO
        CFI CFA_XSP16 add(XSP16, 13)
        MOV     ?V0 + 0,#0x1
        MOV     R0,#?V0 + 0
        LCALL   ?PUSH_XSTACK_I_ONE
        CFI CFA_XSP16 add(XSP16, 14)
        MOV     ?V0 + 0,#-0x48
        MOV     ?V0 + 1,#0xb
        MOV     R0,#?V0 + 0
        LCALL   ?PUSH_XSTACK_I_TWO
        CFI CFA_XSP16 add(XSP16, 16)
        MOV     R4,#??CommonApp_PowerSettingCountCB?relay & 0xff
        MOV     R5,#(??CommonApp_PowerSettingCountCB?relay >> 8) & 0xff
        MOV     R2,#0x8
        MOV     R3,#0x0
        MOV     DPTR,#CommonApp_TaskID
        MOVX    A,@DPTR
        MOV     R1,A
        LCALL   ??set_user_event?relay
        MOV     A,#0x5
        LCALL   ?DEALLOC_XSTACK8
        CFI CFA_XSP16 add(XSP16, 11)
//  353   }
//  354 	
//  355   if(status == DEV_ZB_COORD || status == DEV_ROUTER 
//  356   		|| status == DEV_END_DEVICE)
??CommonApp_PowerOnFactorySetting_0:
        MOV     A,#0x9
        XRL     A,R6
        JZ      ??CommonApp_PowerOnFactorySetting_2
        MOV     A,#0x7
        XRL     A,R6
        JZ      ??CommonApp_PowerOnFactorySetting_2
        MOV     A,#0x6
        XRL     A,R6
        JNZ     ??CommonApp_PowerOnFactorySetting_3
//  357   {
//  358 	hasConn = 1;
??CommonApp_PowerOnFactorySetting_2:
        MOV     DPTR,#hasConn
        MOV     A,#0x1
        MOVX    @DPTR,A
//  359 	
//  360 	if(powerSetCount != 0)
        MOV     DPTR,#powerSetCount
        MOVX    A,@DPTR
        JNZ     $+5
        LJMP    ??CommonApp_PowerOnFactorySetting_4 & 0xFFFF
//  361 	{
//  362 		powerSetCount = 0;
        CLR     A
        LCALL   ?Subroutine5 & 0xFFFF
//  363 		if ( osal_nv_item_init( ZCD_NV_POWER_SETTING_COUNT,
//  364                               sizeof(powerSetCount),
//  365                               &powerSetCount ) == ZSUCCESS )
??CrossCallReturnLabel_0:
        LCALL   ?PUSH_XSTACK_I_TWO
        CFI CFA_XSP16 add(XSP16, 13)
        LCALL   ?Subroutine8 & 0xFFFF
??CrossCallReturnLabel_5:
        LCALL   ?DEALLOC_XSTACK8
        CFI CFA_XSP16 add(XSP16, 11)
        MOV     A,R1
        JZ      $+5
        LJMP    ??CommonApp_PowerOnFactorySetting_4 & 0xFFFF
//  366 		{
//  367 		    osal_nv_write( ZCD_NV_POWER_SETTING_COUNT,
//  368 		                  0,
//  369 		                  sizeof( powerSetCount ),
//  370 		                  &powerSetCount);
        ; Setup parameters for call to function osal_nv_write
        MOV     R0,#?V0 + 0
        LCALL   ?PUSH_XSTACK_I_TWO
        CFI CFA_XSP16 add(XSP16, 13)
        MOV     ?V0 + 0,#0x1
        MOV     ?V0 + 1,#0x0
        MOV     R0,#?V0 + 0
        LCALL   ?PUSH_XSTACK_I_TWO
        CFI CFA_XSP16 add(XSP16, 15)
        MOV     R4,#0x0
        MOV     R5,#0x0
        MOV     R2,#0x12
        MOV     R3,#0x4
        LCALL   ??osal_nv_write?relay
        MOV     A,#0x4
        LCALL   ?DEALLOC_XSTACK8
        CFI CFA_XSP16 add(XSP16, 11)
        LJMP    ??CommonApp_PowerOnFactorySetting_4 & 0xFFFF
//  371 		}
//  372 	}
//  373 
//  374 	return;
//  375   }
//  376   
//  377   if ((zgReadStartupOptions()&ZCD_STARTOPT_DEFAULT_NETWORK_STATE)
//  378   		|| hasConn || isNotTimeOut)
??CommonApp_PowerOnFactorySetting_3:
        ; Setup parameters for call to function zgReadStartupOptions
        LCALL   ??zgReadStartupOptions?relay
        MOV     A,R1
        MOV     C,0xE0 /* A   */.1
        JNC     $+5
        LJMP    ??CommonApp_PowerOnFactorySetting_4 & 0xFFFF
        MOV     DPTR,#hasConn
        MOVX    A,@DPTR
        JZ      $+5
        LJMP    ??CommonApp_PowerOnFactorySetting_4 & 0xFFFF
        MOV     DPTR,#isNotTimeOut
        MOVX    A,@DPTR
        JZ      $+5
        LJMP    ??CommonApp_PowerOnFactorySetting_4 & 0xFFFF
//  379   {
//  380     return;
//  381   }
//  382 
//  383   if(!isPowerSetCount)
        MOV     DPTR,#isPowerSetCount
        MOVX    A,@DPTR
        JZ      $+5
        LJMP    ??CommonApp_PowerOnFactorySetting_4 & 0xFFFF
//  384   {
//  385   	isPowerSetCount = 1;
        MOV     A,#0x1
        MOVX    @DPTR,A
//  386   	powerSetCount++;
        MOV     DPTR,#powerSetCount
        MOVX    A,@DPTR
        INC     A
        LCALL   ?Subroutine5 & 0xFFFF
//  387   	if ( osal_nv_item_init( ZCD_NV_POWER_SETTING_COUNT,
//  388                             sizeof(powerSetCount),
//  389                             &powerSetCount ) == ZSUCCESS )
??CrossCallReturnLabel_1:
        LCALL   ?PUSH_XSTACK_I_TWO
        CFI CFA_XSP16 add(XSP16, 13)
        LCALL   ?Subroutine8 & 0xFFFF
??CrossCallReturnLabel_6:
        LCALL   ?DEALLOC_XSTACK8
        CFI CFA_XSP16 add(XSP16, 11)
        MOV     A,R1
        JNZ     ??CommonApp_PowerOnFactorySetting_5
//  390   	{
//  391 	  osal_nv_write( ZCD_NV_POWER_SETTING_COUNT,
//  392 		             0,
//  393 		             sizeof( powerSetCount ),
//  394 		             &powerSetCount);
        ; Setup parameters for call to function osal_nv_write
        MOV     R0,#?V0 + 0
        LCALL   ?PUSH_XSTACK_I_TWO
        CFI CFA_XSP16 add(XSP16, 13)
        MOV     ?V0 + 0,#0x1
        MOV     ?V0 + 1,#0x0
        MOV     R0,#?V0 + 0
        LCALL   ?PUSH_XSTACK_I_TWO
        CFI CFA_XSP16 add(XSP16, 15)
        MOV     R4,#0x0
        MOV     R5,#0x0
        MOV     R2,#0x12
        MOV     R3,#0x4
        LCALL   ??osal_nv_write?relay
        MOV     A,#0x4
        LCALL   ?DEALLOC_XSTACK8
        CFI CFA_XSP16 add(XSP16, 11)
//  395   	}
//  396 
//  397 	if(powerSetCount <= POWERSETTING_COUNT)
??CommonApp_PowerOnFactorySetting_5:
        MOV     DPTR,#powerSetCount
        MOVX    A,@DPTR
        CLR     C
        SUBB    A,#0x4
        JC      ??CommonApp_PowerOnFactorySetting_4
//  398   	{
//  399 	  return;
//  400   	}
//  401 
//  402 #if defined(HOLD_INIT_AUTHENTICATION)
//  403     if(devState != DEV_HOLD)
        MOV     DPTR,#devState
        MOVX    A,@DPTR
        JZ      ??CommonApp_PowerOnFactorySetting_4
//  404     {
//  405       HalLedBlink ( HAL_LED_4, 0, 50, 100 );
        ; Setup parameters for call to function HalLedBlink
        MOV     R4,#0x64
        MOV     R5,#0x0
        MOV     R3,#0x32
        MOV     R2,#0x0
        MOV     R1,#0x8
        LCALL   ??HalLedBlink?relay
//  406       devStates_t tStates;
//  407       if (ZSUCCESS == osal_nv_item_init( 
//  408                           ZCD_NV_NWK_HOLD_STARTUP, sizeof(tStates),  &tStates))
        ; Setup parameters for call to function osal_nv_item_init
        MOV     DPL,?XSP + 0
        MOV     DPH,?XSP + 1
        MOV     ?V0 + 0,DPL
        MOV     ?V0 + 1,DPH
        MOV     R0,#?V0 + 0
        LCALL   ?PUSH_XSTACK_I_TWO
        CFI CFA_XSP16 add(XSP16, 13)
        MOV     R4,#0x1
        MOV     R5,#0x0
        MOV     R2,#0x11
        LCALL   ??Subroutine10_0 & 0xFFFF
??CrossCallReturnLabel_7:
        LCALL   ?DEALLOC_XSTACK8
        CFI CFA_XSP16 add(XSP16, 11)
        MOV     A,R1
        JNZ     ??CommonApp_PowerOnFactorySetting_6
//  409       {
//  410         tStates = DEV_HOLD;
        MOV     DPL,?XSP + 0
        MOV     DPH,?XSP + 1
        CLR     A
        MOVX    @DPTR,A
//  411         osal_nv_write(ZCD_NV_NWK_HOLD_STARTUP, 0, sizeof(tStates),  &tStates);
        ; Setup parameters for call to function osal_nv_write
        MOV     R0,#?V0 + 0
        LCALL   ?PUSH_XSTACK_I_TWO
        CFI CFA_XSP16 add(XSP16, 13)
        MOV     ?V0 + 0,#0x1
        MOV     ?V0 + 1,#0x0
        MOV     R0,#?V0 + 0
        LCALL   ?PUSH_XSTACK_I_TWO
        CFI CFA_XSP16 add(XSP16, 15)
        MOV     R4,#0x0
        MOV     R5,#0x0
        MOV     R2,#0x11
        MOV     R3,#0x4
        LCALL   ??osal_nv_write?relay
        MOV     A,#0x4
        LCALL   ?DEALLOC_XSTACK8
        CFI CFA_XSP16 add(XSP16, 11)
//  412       }
//  413 
//  414       zgWriteStartupOptions(ZG_STARTUP_SET, ZCD_STARTOPT_DEFAULT_NETWORK_STATE);
??CommonApp_PowerOnFactorySetting_6:
        ; Setup parameters for call to function zgWriteStartupOptions
        MOV     R2,#0x2
        MOV     R1,#-0x1
        LCALL   ??zgWriteStartupOptions?relay
//  415       WatchDogEnable( WDTIMX );
        MOV     0xc9,#-0x58
        MOV     0xc9,#0x58
??CommonApp_PowerOnFactorySetting_4:
        MOV     A,#0x1
        CFI EndBlock cfiBlock6
//  416     }
//  417 #endif
//  418   }
        REQUIRE ?Subroutine1
        REQUIRE WDCTL
        ; // Fall through to label ?Subroutine1
//  419 }

        RSEG BANKED_CODE:CODE:NOROOT(0)
?Subroutine1:
        CFI Block cfiBlock7 Using cfiCommon0
        CFI NoFunction
        CFI CFA_SP SP+0
        CFI CFA_XSP16 add(XSP16, 11)
        CFI VB load(1, XDATA, add(CFA_XSP16, literal(-9)))
        CFI DPL0 load(1, XDATA, add(CFA_XSP16, literal(-2)))
        CFI DPH0 load(1, XDATA, add(CFA_XSP16, literal(-1)))
        CFI R6 load(1, XDATA, add(CFA_XSP16, literal(-10)))
        CFI R7 load(1, XDATA, add(CFA_XSP16, literal(-6)))
        CFI V0 load(1, XDATA, add(CFA_XSP16, literal(-8)))
        CFI V1 load(1, XDATA, add(CFA_XSP16, literal(-7)))
        CFI ?BRET_EXT load(1, XDATA, add(CFA_XSP16, literal(-3)))
        CFI ?RET_HIGH load(1, XDATA, add(CFA_XSP16, literal(-4)))
        CFI ?RET_LOW load(1, XDATA, add(CFA_XSP16, literal(-5)))
        CFI Invalid
        LCALL   ?DEALLOC_XSTACK8
        CFI CFA_XSP16 add(XSP16, 10)
        CFI Valid
        MOV     R7,#0x2
        LJMP    ?BANKED_LEAVE_XDATA
        CFI EndBlock cfiBlock7

        RSEG BANKED_CODE:CODE:NOROOT(0)
?Subroutine8:
        CFI Block cfiCond8 Using cfiCommon0
        CFI NoFunction
        CFI Conditional ??CrossCallReturnLabel_4
        CFI R6 load(1, XDATA, add(CFA_XSP16, literal(-10)))
        CFI VB load(1, XDATA, add(CFA_XSP16, literal(-9)))
        CFI V0 load(1, XDATA, add(CFA_XSP16, literal(-8)))
        CFI V1 load(1, XDATA, add(CFA_XSP16, literal(-7)))
        CFI R7 load(1, XDATA, add(CFA_XSP16, literal(-6)))
        CFI ?RET_LOW load(1, XDATA, add(CFA_XSP16, literal(-5)))
        CFI ?RET_HIGH load(1, XDATA, add(CFA_XSP16, literal(-4)))
        CFI ?BRET_EXT load(1, XDATA, add(CFA_XSP16, literal(-3)))
        CFI DPL0 load(1, XDATA, add(CFA_XSP16, literal(-2)))
        CFI DPH0 load(1, XDATA, add(CFA_XSP16, literal(-1)))
        CFI CFA_SP SP+0
        CFI CFA_XSP16 add(XSP16, 13)
        CFI Block cfiCond9 Using cfiCommon0
        CFI (cfiCond9) NoFunction
        CFI (cfiCond9) Conditional ??CrossCallReturnLabel_5
        CFI (cfiCond9) R6 load(1, XDATA, add(CFA_XSP16, literal(-10)))
        CFI (cfiCond9) VB load(1, XDATA, add(CFA_XSP16, literal(-9)))
        CFI (cfiCond9) V0 load(1, XDATA, add(CFA_XSP16, literal(-8)))
        CFI (cfiCond9) V1 load(1, XDATA, add(CFA_XSP16, literal(-7)))
        CFI (cfiCond9) R7 load(1, XDATA, add(CFA_XSP16, literal(-6)))
        CFI (cfiCond9) ?RET_LOW load(1, XDATA, add(CFA_XSP16, literal(-5)))
        CFI (cfiCond9) ?RET_HIGH load(1, XDATA, add(CFA_XSP16, literal(-4)))
        CFI (cfiCond9) ?BRET_EXT load(1, XDATA, add(CFA_XSP16, literal(-3)))
        CFI (cfiCond9) DPL0 load(1, XDATA, add(CFA_XSP16, literal(-2)))
        CFI (cfiCond9) DPH0 load(1, XDATA, add(CFA_XSP16, literal(-1)))
        CFI (cfiCond9) CFA_SP SP+0
        CFI (cfiCond9) CFA_XSP16 add(XSP16, 13)
        CFI Block cfiCond10 Using cfiCommon0
        CFI (cfiCond10) NoFunction
        CFI (cfiCond10) Conditional ??CrossCallReturnLabel_6
        CFI (cfiCond10) R6 load(1, XDATA, add(CFA_XSP16, literal(-10)))
        CFI (cfiCond10) VB load(1, XDATA, add(CFA_XSP16, literal(-9)))
        CFI (cfiCond10) V0 load(1, XDATA, add(CFA_XSP16, literal(-8)))
        CFI (cfiCond10) V1 load(1, XDATA, add(CFA_XSP16, literal(-7)))
        CFI (cfiCond10) R7 load(1, XDATA, add(CFA_XSP16, literal(-6)))
        CFI (cfiCond10) ?RET_LOW load(1, XDATA, add(CFA_XSP16, literal(-5)))
        CFI (cfiCond10) ?RET_HIGH load(1, XDATA, add(CFA_XSP16, literal(-4)))
        CFI (cfiCond10) ?BRET_EXT load(1, XDATA, add(CFA_XSP16, literal(-3)))
        CFI (cfiCond10) DPL0 load(1, XDATA, add(CFA_XSP16, literal(-2)))
        CFI (cfiCond10) DPH0 load(1, XDATA, add(CFA_XSP16, literal(-1)))
        CFI (cfiCond10) CFA_SP SP+0
        CFI (cfiCond10) CFA_XSP16 add(XSP16, 13)
        CFI Block cfiPicker11 Using cfiCommon1
        CFI (cfiPicker11) NoFunction
        CFI (cfiPicker11) Picker
        MOV     R4,#0x1
        MOV     R5,#0x0
        MOV     R2,#0x12
        CFI EndBlock cfiCond8
        CFI EndBlock cfiCond9
        CFI EndBlock cfiCond10
        CFI EndBlock cfiPicker11
        REQUIRE ??Subroutine10_0
        ; // Fall through to label ??Subroutine10_0

        RSEG BANKED_CODE:CODE:NOROOT(0)
??Subroutine10_0:
        CFI Block cfiCond12 Using cfiCommon0
        CFI NoFunction
        CFI Conditional ??CrossCallReturnLabel_7
        CFI R6 load(1, XDATA, add(CFA_XSP16, literal(-10)))
        CFI VB load(1, XDATA, add(CFA_XSP16, literal(-9)))
        CFI V0 load(1, XDATA, add(CFA_XSP16, literal(-8)))
        CFI V1 load(1, XDATA, add(CFA_XSP16, literal(-7)))
        CFI R7 load(1, XDATA, add(CFA_XSP16, literal(-6)))
        CFI ?RET_LOW load(1, XDATA, add(CFA_XSP16, literal(-5)))
        CFI ?RET_HIGH load(1, XDATA, add(CFA_XSP16, literal(-4)))
        CFI ?BRET_EXT load(1, XDATA, add(CFA_XSP16, literal(-3)))
        CFI DPL0 load(1, XDATA, add(CFA_XSP16, literal(-2)))
        CFI DPH0 load(1, XDATA, add(CFA_XSP16, literal(-1)))
        CFI CFA_SP SP+0
        CFI CFA_XSP16 add(XSP16, 13)
        CFI Block cfiCond13 Using cfiCommon0
        CFI (cfiCond13) NoFunction
        CFI (cfiCond13) Conditional ??CrossCallReturnLabel_4
        CFI (cfiCond13) R6 load(1, XDATA, add(CFA_XSP16, literal(-10)))
        CFI (cfiCond13) VB load(1, XDATA, add(CFA_XSP16, literal(-9)))
        CFI (cfiCond13) V0 load(1, XDATA, add(CFA_XSP16, literal(-8)))
        CFI (cfiCond13) V1 load(1, XDATA, add(CFA_XSP16, literal(-7)))
        CFI (cfiCond13) R7 load(1, XDATA, add(CFA_XSP16, literal(-6)))
        CFI (cfiCond13) ?RET_LOW load(1, XDATA, add(CFA_XSP16, literal(-5)))
        CFI (cfiCond13) ?RET_HIGH load(1, XDATA, add(CFA_XSP16, literal(-4)))
        CFI (cfiCond13) ?BRET_EXT load(1, XDATA, add(CFA_XSP16, literal(-3)))
        CFI (cfiCond13) DPL0 load(1, XDATA, add(CFA_XSP16, literal(-2)))
        CFI (cfiCond13) DPH0 load(1, XDATA, add(CFA_XSP16, literal(-1)))
        CFI (cfiCond13) CFA_SP SP+0
        CFI (cfiCond13) CFA_XSP16 add(XSP16, 13)
        CFI Block cfiCond14 Using cfiCommon0
        CFI (cfiCond14) NoFunction
        CFI (cfiCond14) Conditional ??CrossCallReturnLabel_5
        CFI (cfiCond14) R6 load(1, XDATA, add(CFA_XSP16, literal(-10)))
        CFI (cfiCond14) VB load(1, XDATA, add(CFA_XSP16, literal(-9)))
        CFI (cfiCond14) V0 load(1, XDATA, add(CFA_XSP16, literal(-8)))
        CFI (cfiCond14) V1 load(1, XDATA, add(CFA_XSP16, literal(-7)))
        CFI (cfiCond14) R7 load(1, XDATA, add(CFA_XSP16, literal(-6)))
        CFI (cfiCond14) ?RET_LOW load(1, XDATA, add(CFA_XSP16, literal(-5)))
        CFI (cfiCond14) ?RET_HIGH load(1, XDATA, add(CFA_XSP16, literal(-4)))
        CFI (cfiCond14) ?BRET_EXT load(1, XDATA, add(CFA_XSP16, literal(-3)))
        CFI (cfiCond14) DPL0 load(1, XDATA, add(CFA_XSP16, literal(-2)))
        CFI (cfiCond14) DPH0 load(1, XDATA, add(CFA_XSP16, literal(-1)))
        CFI (cfiCond14) CFA_SP SP+0
        CFI (cfiCond14) CFA_XSP16 add(XSP16, 13)
        CFI Block cfiCond15 Using cfiCommon0
        CFI (cfiCond15) NoFunction
        CFI (cfiCond15) Conditional ??CrossCallReturnLabel_6
        CFI (cfiCond15) R6 load(1, XDATA, add(CFA_XSP16, literal(-10)))
        CFI (cfiCond15) VB load(1, XDATA, add(CFA_XSP16, literal(-9)))
        CFI (cfiCond15) V0 load(1, XDATA, add(CFA_XSP16, literal(-8)))
        CFI (cfiCond15) V1 load(1, XDATA, add(CFA_XSP16, literal(-7)))
        CFI (cfiCond15) R7 load(1, XDATA, add(CFA_XSP16, literal(-6)))
        CFI (cfiCond15) ?RET_LOW load(1, XDATA, add(CFA_XSP16, literal(-5)))
        CFI (cfiCond15) ?RET_HIGH load(1, XDATA, add(CFA_XSP16, literal(-4)))
        CFI (cfiCond15) ?BRET_EXT load(1, XDATA, add(CFA_XSP16, literal(-3)))
        CFI (cfiCond15) DPL0 load(1, XDATA, add(CFA_XSP16, literal(-2)))
        CFI (cfiCond15) DPH0 load(1, XDATA, add(CFA_XSP16, literal(-1)))
        CFI (cfiCond15) CFA_SP SP+0
        CFI (cfiCond15) CFA_XSP16 add(XSP16, 13)
        CFI Block cfiPicker16 Using cfiCommon1
        CFI (cfiPicker16) NoFunction
        CFI (cfiPicker16) Picker
        MOV     R3,#0x4
        LCALL   ??osal_nv_item_init?relay
        MOV     A,#0x2
        RET
        CFI EndBlock cfiCond12
        CFI EndBlock cfiCond13
        CFI EndBlock cfiCond14
        CFI EndBlock cfiCond15
        CFI EndBlock cfiPicker16

        RSEG BANKED_CODE:CODE:NOROOT(0)
?Subroutine5:
        CFI Block cfiCond17 Using cfiCommon0
        CFI NoFunction
        CFI Conditional ??CrossCallReturnLabel_0
        CFI R6 load(1, XDATA, add(CFA_XSP16, literal(-10)))
        CFI VB load(1, XDATA, add(CFA_XSP16, literal(-9)))
        CFI V0 load(1, XDATA, add(CFA_XSP16, literal(-8)))
        CFI V1 load(1, XDATA, add(CFA_XSP16, literal(-7)))
        CFI R7 load(1, XDATA, add(CFA_XSP16, literal(-6)))
        CFI ?RET_LOW load(1, XDATA, add(CFA_XSP16, literal(-5)))
        CFI ?RET_HIGH load(1, XDATA, add(CFA_XSP16, literal(-4)))
        CFI ?BRET_EXT load(1, XDATA, add(CFA_XSP16, literal(-3)))
        CFI DPL0 load(1, XDATA, add(CFA_XSP16, literal(-2)))
        CFI DPH0 load(1, XDATA, add(CFA_XSP16, literal(-1)))
        CFI CFA_SP SP+0
        CFI CFA_XSP16 add(XSP16, 11)
        CFI Block cfiCond18 Using cfiCommon0
        CFI (cfiCond18) NoFunction
        CFI (cfiCond18) Conditional ??CrossCallReturnLabel_1
        CFI (cfiCond18) R6 load(1, XDATA, add(CFA_XSP16, literal(-10)))
        CFI (cfiCond18) VB load(1, XDATA, add(CFA_XSP16, literal(-9)))
        CFI (cfiCond18) V0 load(1, XDATA, add(CFA_XSP16, literal(-8)))
        CFI (cfiCond18) V1 load(1, XDATA, add(CFA_XSP16, literal(-7)))
        CFI (cfiCond18) R7 load(1, XDATA, add(CFA_XSP16, literal(-6)))
        CFI (cfiCond18) ?RET_LOW load(1, XDATA, add(CFA_XSP16, literal(-5)))
        CFI (cfiCond18) ?RET_HIGH load(1, XDATA, add(CFA_XSP16, literal(-4)))
        CFI (cfiCond18) ?BRET_EXT load(1, XDATA, add(CFA_XSP16, literal(-3)))
        CFI (cfiCond18) DPL0 load(1, XDATA, add(CFA_XSP16, literal(-2)))
        CFI (cfiCond18) DPH0 load(1, XDATA, add(CFA_XSP16, literal(-1)))
        CFI (cfiCond18) CFA_SP SP+0
        CFI (cfiCond18) CFA_XSP16 add(XSP16, 11)
        CFI Block cfiPicker19 Using cfiCommon1
        CFI (cfiPicker19) NoFunction
        CFI (cfiPicker19) Picker
        MOVX    @DPTR,A
        ; Setup parameters for call to function osal_nv_item_init
        ; Setup parameters for call to function osal_nv_item_init
        MOV     ?V0 + 0,#powerSetCount & 0xff
        MOV     ?V0 + 1,#(powerSetCount >> 8) & 0xff
        MOV     R0,#?V0 + 0
        RET
        CFI EndBlock cfiCond17
        CFI EndBlock cfiCond18
        CFI EndBlock cfiPicker19
//  420 

        RSEG BANKED_CODE:CODE:NOROOT(0)
//  421 void CommonApp_PowerSettingCountCB( void *params, 
CommonApp_PowerSettingCountCB:
        CFI Block cfiBlock20 Using cfiCommon0
        CFI Function CommonApp_PowerSettingCountCB
        CODE
//  422 										uint16 *duration, uint8 *count)
//  423 {
        FUNCALL CommonApp_PowerSettingCountCB, HalLedBlink
        LOCFRAME ISTACK, 2, STACK
        LOCFRAME PSTACK, 0, STACK
        LOCFRAME XSTACK, 0, STACK
        LOCFRAME IOVERLAY, 0, STATIC
        LOCFRAME DOVERLAY, 0, STATIC
        ARGFRAME ISTACK, 2, STACK
        ARGFRAME PSTACK, 0, STACK
        ARGFRAME XSTACK, 0, STACK
        ARGFRAME IOVERLAY, 0, STATIC
        ARGFRAME DOVERLAY, 0, STATIC
        PUSH    DPL
        CFI DPL0 Frame(CFA_SP, 4)
        CFI CFA_SP SP+-4
        PUSH    DPH
        CFI DPH0 Frame(CFA_SP, 5)
        CFI CFA_SP SP+-5
        ; Saved register size: 2
        ; Auto size: 0
//  424 	if(CommonApp_NwkState != DEV_ZB_COORD && CommonApp_NwkState != DEV_ROUTER 
//  425   		|| CommonApp_NwkState != DEV_END_DEVICE)
//  426 	{
//  427 		HalLedBlink ( HAL_LED_2, 2, 50, 100 );
        ; Setup parameters for call to function HalLedBlink
        MOV     R4,#0x64
        MOV     R5,#0x0
        MOV     R3,#0x32
        MOV     R2,#0x2
        MOV     R1,#0x2
        LCALL   ??HalLedBlink?relay
//  428 	}
//  429 	
//  430 	isNotTimeOut = 0;
        MOV     DPTR,#isNotTimeOut
        CLR     A
        MOVX    @DPTR,A
//  431 }
        LJMP    ?Subroutine2 & 0xFFFF
        CFI EndBlock cfiBlock20
//  432 #endif
//  433 
//  434 
//  435 /*********************************************************************
//  436  * @fn      CommonApp_ProcessZDOMsgs()
//  437  *
//  438  * @brief   Process response messages
//  439  *
//  440  * @param   incoming message
//  441  *
//  442  * @return  none
//  443  */
//  444 void CommonApp_ProcessZDOMsgs( zdoIncomingMsg_t *inMsg )
//  445 {
//  446   switch ( inMsg->clusterID )
//  447   {
//  448     case End_Device_Bind_rsp:
//  449       if ( ZDO_ParseBindRsp( inMsg ) == ZSuccess )
//  450       {
//  451         // Light LED
//  452         //HalLedSet( HAL_LED_4, HAL_LED_MODE_ON );
//  453       }
//  454 #if defined( BLINK_LEDS )
//  455       else
//  456       {
//  457         // Flash LED to show failure
//  458         //HalLedSet ( HAL_LED_4, HAL_LED_MODE_FLASH );
//  459       }
//  460 #endif
//  461       break;
//  462 
//  463     case Match_Desc_rsp:
//  464       {
//  465         ZDO_ActiveEndpointRsp_t *pRsp = ZDO_ParseEPListRsp( inMsg );
//  466         if ( pRsp )
//  467         {
//  468           if ( pRsp->status == ZSuccess && pRsp->cnt )
//  469           {
//  470             CommonApp_DstAddr.addrMode = (afAddrMode_t)Addr16Bit;
//  471             CommonApp_DstAddr.addr.shortAddr = pRsp->nwkAddr;
//  472             // Take the first endpoint, Can be changed to search through endpoints
//  473             CommonApp_DstAddr.endPoint = pRsp->epList[0];
//  474 
//  475             // Light LED
//  476             //HalLedSet( HAL_LED_4, HAL_LED_MODE_ON );
//  477           }
//  478           osal_mem_free( pRsp );
//  479         }
//  480       }
//  481       break;
//  482   }
//  483 }
//  484 
//  485 
//  486 /*********************************************************************
//  487  * @fn      CommonApp_afDatacfm()
//  488  *
//  489  * @brief   Process send data comfirm
//  490  *
//  491  * @param   comfirm message
//  492  *
//  493  * @return  none
//  494  */
//  495 void CommonApp_afDatacfm(afDataConfirm_t *data)
//  496 {}
//  497 
//  498 
//  499 /*********************************************************************
//  500  * @fn      CommonApp_HandleKeys
//  501  *
//  502  * @brief   Handles all key events for this device.
//  503  *
//  504  * @param   shift - true if in shift/alt.
//  505  * @param   keys - bit field for key events. Valid entries:
//  506  *                 HAL_KEY_SW_4
//  507  *                 HAL_KEY_SW_3
//  508  *                 HAL_KEY_SW_2
//  509  *                 HAL_KEY_SW_1
//  510  *
//  511  * @return  none
//  512  */

        RSEG BANKED_CODE:CODE:NOROOT(0)
//  513 void CommonApp_HandleKeys( uint8 shift, uint16 keys )
CommonApp_HandleKeys:
        CFI Block cfiBlock21 Using cfiCommon0
        CFI Function CommonApp_HandleKeys
        CODE
//  514 {
        FUNCALL CommonApp_HandleKeys, HalLedSet
        LOCFRAME ISTACK, 0, STACK
        LOCFRAME PSTACK, 0, STACK
        LOCFRAME XSTACK, 21, STACK
        LOCFRAME IOVERLAY, 0, STATIC
        LOCFRAME DOVERLAY, 0, STATIC
        ARGFRAME ISTACK, 0, STACK
        ARGFRAME PSTACK, 0, STACK
        ARGFRAME XSTACK, 21, STACK
        ARGFRAME IOVERLAY, 0, STATIC
        ARGFRAME DOVERLAY, 0, STATIC
        FUNCALL CommonApp_HandleKeys, NLME_GetShortAddr
        LOCFRAME ISTACK, 0, STACK
        LOCFRAME PSTACK, 0, STACK
        LOCFRAME XSTACK, 21, STACK
        LOCFRAME IOVERLAY, 0, STATIC
        LOCFRAME DOVERLAY, 0, STATIC
        ARGFRAME ISTACK, 0, STACK
        ARGFRAME PSTACK, 0, STACK
        ARGFRAME XSTACK, 21, STACK
        ARGFRAME IOVERLAY, 0, STATIC
        ARGFRAME DOVERLAY, 0, STATIC
        FUNCALL CommonApp_HandleKeys, ZDP_EndDeviceBindReq
        LOCFRAME ISTACK, 0, STACK
        LOCFRAME PSTACK, 0, STACK
        LOCFRAME XSTACK, 30, STACK
        LOCFRAME IOVERLAY, 0, STATIC
        LOCFRAME DOVERLAY, 0, STATIC
        ARGFRAME ISTACK, 0, STACK
        ARGFRAME PSTACK, 0, STACK
        ARGFRAME XSTACK, 30, STACK
        ARGFRAME IOVERLAY, 0, STATIC
        ARGFRAME DOVERLAY, 0, STATIC
        FUNCALL CommonApp_HandleKeys, HalLedSet
        LOCFRAME ISTACK, 0, STACK
        LOCFRAME PSTACK, 0, STACK
        LOCFRAME XSTACK, 21, STACK
        LOCFRAME IOVERLAY, 0, STATIC
        LOCFRAME DOVERLAY, 0, STATIC
        ARGFRAME ISTACK, 0, STACK
        ARGFRAME PSTACK, 0, STACK
        ARGFRAME XSTACK, 21, STACK
        ARGFRAME IOVERLAY, 0, STATIC
        ARGFRAME DOVERLAY, 0, STATIC
        FUNCALL CommonApp_HandleKeys, ZDP_MatchDescReq
        LOCFRAME ISTACK, 0, STACK
        LOCFRAME PSTACK, 0, STACK
        LOCFRAME XSTACK, 29, STACK
        LOCFRAME IOVERLAY, 0, STATIC
        LOCFRAME DOVERLAY, 0, STATIC
        ARGFRAME ISTACK, 0, STACK
        ARGFRAME PSTACK, 0, STACK
        ARGFRAME XSTACK, 29, STACK
        ARGFRAME IOVERLAY, 0, STATIC
        ARGFRAME DOVERLAY, 0, STATIC
        FUNCALL CommonApp_HandleKeys, halGetKeyCount
        LOCFRAME ISTACK, 0, STACK
        LOCFRAME PSTACK, 0, STACK
        LOCFRAME XSTACK, 21, STACK
        LOCFRAME IOVERLAY, 0, STATIC
        LOCFRAME DOVERLAY, 0, STATIC
        ARGFRAME ISTACK, 0, STACK
        ARGFRAME PSTACK, 0, STACK
        ARGFRAME XSTACK, 21, STACK
        ARGFRAME IOVERLAY, 0, STATIC
        ARGFRAME DOVERLAY, 0, STATIC
        FUNCALL CommonApp_HandleKeys, CommonApp_HandleCombineKeys
        LOCFRAME ISTACK, 0, STACK
        LOCFRAME PSTACK, 0, STACK
        LOCFRAME XSTACK, 21, STACK
        LOCFRAME IOVERLAY, 0, STATIC
        LOCFRAME DOVERLAY, 0, STATIC
        ARGFRAME ISTACK, 0, STACK
        ARGFRAME PSTACK, 0, STACK
        ARGFRAME XSTACK, 21, STACK
        ARGFRAME IOVERLAY, 0, STATIC
        ARGFRAME DOVERLAY, 0, STATIC
        MOV     A,#-0xc
        LCALL   ?BANKED_ENTER_XDATA
        CFI DPH0 load(1, XDATA, add(CFA_XSP16, literal(-1)))
        CFI DPL0 load(1, XDATA, add(CFA_XSP16, literal(-2)))
        CFI ?BRET_EXT load(1, XDATA, add(CFA_XSP16, literal(-3)))
        CFI ?RET_HIGH load(1, XDATA, add(CFA_XSP16, literal(-4)))
        CFI ?RET_LOW load(1, XDATA, add(CFA_XSP16, literal(-5)))
        CFI R7 load(1, XDATA, add(CFA_XSP16, literal(-6)))
        CFI V3 load(1, XDATA, add(CFA_XSP16, literal(-7)))
        CFI V2 load(1, XDATA, add(CFA_XSP16, literal(-8)))
        CFI V1 load(1, XDATA, add(CFA_XSP16, literal(-9)))
        CFI V0 load(1, XDATA, add(CFA_XSP16, literal(-10)))
        CFI VB load(1, XDATA, add(CFA_XSP16, literal(-11)))
        CFI R6 load(1, XDATA, add(CFA_XSP16, literal(-12)))
        CFI CFA_SP SP+0
        CFI CFA_XSP16 add(XSP16, 12)
        ; Saved register size: 12
        ; Auto size: 9
        MOV     A,#-0x9
        LCALL   ?ALLOC_XSTACK8
        CFI CFA_XSP16 add(XSP16, 21)
        MOV     ?V0 + 0,R1
        MOV     A,R2
        MOV     R6,A
        MOV     A,R3
        MOV     R7,A
//  515   zAddrType_t dstAddr;
//  516 
//  517   // Shift is used to make each button/switch dual purpose.
//  518   if ( shift == HAL_KEY_STATE_SHIFT )
        MOV     A,#0x1
        XRL     A,?V0 + 0
        JNZ     $+5
        LJMP    ??CommonApp_HandleKeys_0 & 0xFFFF
//  519   {
//  520     if ( keys & HAL_KEY_SW_1 )
//  521     {
//  522     }
//  523     if ( keys & HAL_KEY_SW_2 )
//  524     {
//  525     }
//  526     if ( keys & HAL_KEY_SW_3 )
//  527     {
//  528     }
//  529     if ( keys & HAL_KEY_SW_4 )
//  530     {
//  531     }
//  532   }
//  533   else
//  534   {
//  535     if ( keys & HAL_KEY_SW_1 )
//  536     {
//  537       // Since SW1 isn't used for anything else in this application...
//  538 #if defined( SWITCH1_BIND )
//  539       // we can use SW1 to simulate SW2 for devices that only have one switch,
//  540       keys |= HAL_KEY_SW_2;
//  541 #elif defined( SWITCH1_MATCH )
//  542       // or use SW1 to simulate SW4 for devices that only have one switch
//  543       keys |= HAL_KEY_SW_4;
//  544 #endif
//  545     }
//  546 
//  547     if ( keys & HAL_KEY_SW_2 )
        MOV     A,R6
        ANL     A,#0x2
        JZ      ??CommonApp_HandleKeys_1
//  548     {
//  549       HalLedSet ( HAL_LED_4, HAL_LED_MODE_OFF );
        ; Setup parameters for call to function HalLedSet
        MOV     R2,#0x0
        MOV     R1,#0x8
        LCALL   ??HalLedSet?relay
//  550 
//  551       // Initiate an End Device Bind Request for the mandatory endpoint
//  552       dstAddr.addrMode = Addr16Bit;
        MOV     A,#0x8
        LCALL   ?XSTACK_DISP0_8
        MOV     A,#0x2
        MOVX    @DPTR,A
//  553       dstAddr.addr.shortAddr = COORDINATOR_ADDR; // Coordinator
        MOV     DPL,?XSP + 0
        MOV     DPH,?XSP + 1
        CLR     A
        MOVX    @DPTR,A
        INC     DPTR
        MOVX    @DPTR,A
//  554       ZDP_EndDeviceBindReq( &dstAddr, NLME_GetShortAddr(),
//  555                             CommonApp_epDesc.endPoint,
//  556                             COMMONAPP_PROFID,
//  557                             COMMONAPP_MAX_INCLUSTERS, (cId_t *)CommonApp_InClusterList,
//  558                             COMMONAPP_MAX_OUTCLUSTERS, (cId_t *)CommonApp_OutClusterList,
//  559                             FALSE );
        ; Setup parameters for call to function NLME_GetShortAddr
        LCALL   ??NLME_GetShortAddr?relay
        MOV     ?V0 + 2,R2
        MOV     ?V0 + 3,R3
        MOV     R4,?V0 + 2
        MOV     R5,?V0 + 3
        ; Setup parameters for call to function ZDP_EndDeviceBindReq
        MOV     ?V0 + 1,#0x0
        MOV     R0,#?V0 + 1
        LCALL   ?PUSH_XSTACK_I_ONE
        CFI CFA_XSP16 add(XSP16, 22)
        MOV     ?V0 + 2,#CommonApp_OutClusterList & 0xff
        MOV     ?V0 + 3,#(CommonApp_OutClusterList >> 8) & 0xff
        MOV     R0,#?V0 + 2
        LCALL   ?PUSH_XSTACK_I_TWO
        CFI CFA_XSP16 add(XSP16, 24)
        MOV     ?V0 + 1,#0x1
        MOV     R0,#?V0 + 1
        LCALL   ?PUSH_XSTACK_I_ONE
        CFI CFA_XSP16 add(XSP16, 25)
        MOV     ?V0 + 2,#CommonApp_InClusterList & 0xff
        MOV     ?V0 + 3,#(CommonApp_InClusterList >> 8) & 0xff
        MOV     R0,#?V0 + 2
        LCALL   ?PUSH_XSTACK_I_TWO
        CFI CFA_XSP16 add(XSP16, 27)
        MOV     R0,#?V0 + 1
        LCALL   ?PUSH_XSTACK_I_ONE
        CFI CFA_XSP16 add(XSP16, 28)
        MOV     ?V0 + 2,#0x8
        MOV     ?V0 + 3,#0xf
        MOV     R0,#?V0 + 2
        LCALL   ?PUSH_XSTACK_I_TWO
        CFI CFA_XSP16 add(XSP16, 30)
        MOV     DPTR,#CommonApp_epDesc
        MOVX    A,@DPTR
        MOV     R1,A
        MOV     A,#0x9
        LCALL   ?XSTACK_DISP0_8
        MOV     R2,DPL
        MOV     R3,DPH
        LCALL   ??ZDP_EndDeviceBindReq?relay
        MOV     A,#0x9
        LCALL   ?DEALLOC_XSTACK8
        CFI CFA_XSP16 add(XSP16, 21)
//  560     }
//  561 
//  562     if ( keys & HAL_KEY_SW_3 )
//  563     {
//  564     }
//  565 
//  566     if ( keys & HAL_KEY_SW_4 )
??CommonApp_HandleKeys_1:
        MOV     A,R6
        ANL     A,#0x8
        JZ      ??CommonApp_HandleKeys_0
//  567     {
//  568       HalLedSet ( HAL_LED_4, HAL_LED_MODE_OFF );
        ; Setup parameters for call to function HalLedSet
        MOV     R2,#0x0
        MOV     R1,#0x8
        LCALL   ??HalLedSet?relay
//  569       // Initiate a Match Description Request (Service Discovery)
//  570       dstAddr.addrMode = AddrBroadcast;
        MOV     A,#0x8
        LCALL   ?XSTACK_DISP0_8
        MOV     A,#0xf
        MOVX    @DPTR,A
//  571       dstAddr.addr.shortAddr = NWK_BROADCAST_SHORTADDR;
        MOV     DPL,?XSP + 0
        MOV     DPH,?XSP + 1
        MOV     A,#-0x1
        MOVX    @DPTR,A
        INC     DPTR
        MOVX    @DPTR,A
//  572       ZDP_MatchDescReq( &dstAddr, NWK_BROADCAST_SHORTADDR,
//  573                         COMMONAPP_PROFID,
//  574                         COMMONAPP_MAX_INCLUSTERS, (cId_t *)CommonApp_InClusterList,
//  575                         COMMONAPP_MAX_OUTCLUSTERS, (cId_t *)CommonApp_OutClusterList,
//  576                         FALSE );
        ; Setup parameters for call to function ZDP_MatchDescReq
        MOV     ?V0 + 1,#0x0
        MOV     R0,#?V0 + 1
        LCALL   ?PUSH_XSTACK_I_ONE
        CFI CFA_XSP16 add(XSP16, 22)
        MOV     ?V0 + 2,#CommonApp_OutClusterList & 0xff
        MOV     ?V0 + 3,#(CommonApp_OutClusterList >> 8) & 0xff
        MOV     R0,#?V0 + 2
        LCALL   ?PUSH_XSTACK_I_TWO
        CFI CFA_XSP16 add(XSP16, 24)
        MOV     ?V0 + 1,#0x1
        MOV     R0,#?V0 + 1
        LCALL   ?PUSH_XSTACK_I_ONE
        CFI CFA_XSP16 add(XSP16, 25)
        MOV     ?V0 + 2,#CommonApp_InClusterList & 0xff
        MOV     ?V0 + 3,#(CommonApp_InClusterList >> 8) & 0xff
        MOV     R0,#?V0 + 2
        LCALL   ?PUSH_XSTACK_I_TWO
        CFI CFA_XSP16 add(XSP16, 27)
        MOV     ?V0 + 2,#0x8
        MOV     ?V0 + 3,#0xf
        MOV     R0,#?V0 + 2
        LCALL   ?PUSH_XSTACK_I_TWO
        CFI CFA_XSP16 add(XSP16, 29)
        MOV     R1,#0x1
        MOV     R4,#-0x1
        MOV     R5,#-0x1
        MOV     A,#0x8
        LCALL   ?XSTACK_DISP0_8
        MOV     R2,DPL
        MOV     R3,DPH
        LCALL   ??ZDP_MatchDescReq?relay
        MOV     A,#0x8
        LCALL   ?DEALLOC_XSTACK8
        CFI CFA_XSP16 add(XSP16, 21)
//  577     }
//  578   }
//  579 
//  580   if ( (keys & HAL_KEY_SW_6) 
//  581 #ifdef KEY_PUSH_PORT_1_BUTTON
//  582 		|| (keys & HAL_KEY_PORT_1_SWITCHS)
//  583 #endif
//  584   		)
??CommonApp_HandleKeys_0:
        MOV     A,R6
        ANL     A,#0x20
        JZ      ??CommonApp_HandleKeys_2
//  585   {
//  586 #ifdef HAL_KEY_COMBINE_INT_METHOD	
//  587     CommonApp_HandleCombineKeys(keys, halGetKeyCount());
        ; Setup parameters for call to function CommonApp_HandleCombineKeys
        ; Setup parameters for call to function halGetKeyCount
        LCALL   ??halGetKeyCount?relay
        MOV     A,R6
        MOV     R2,A
        MOV     A,R7
        MOV     R3,A
        LCALL   ??CommonApp_HandleCombineKeys?relay
//  588 #endif
//  589   }
//  590 }
??CommonApp_HandleKeys_2:
        MOV     A,#0x9
        LCALL   ?DEALLOC_XSTACK8
        CFI EndBlock cfiBlock21
        REQUIRE ?Subroutine3
        ; // Fall through to label ?Subroutine3

        RSEG BANKED_CODE:CODE:NOROOT(0)
?Subroutine3:
        CFI Block cfiBlock22 Using cfiCommon0
        CFI NoFunction
        CFI CFA_SP SP+0
        CFI CFA_XSP16 add(XSP16, 12)
        CFI VB load(1, XDATA, add(CFA_XSP16, literal(-11)))
        CFI DPL0 load(1, XDATA, add(CFA_XSP16, literal(-2)))
        CFI DPH0 load(1, XDATA, add(CFA_XSP16, literal(-1)))
        CFI R6 load(1, XDATA, add(CFA_XSP16, literal(-12)))
        CFI R7 load(1, XDATA, add(CFA_XSP16, literal(-6)))
        CFI V0 load(1, XDATA, add(CFA_XSP16, literal(-10)))
        CFI V1 load(1, XDATA, add(CFA_XSP16, literal(-9)))
        CFI V2 load(1, XDATA, add(CFA_XSP16, literal(-8)))
        CFI V3 load(1, XDATA, add(CFA_XSP16, literal(-7)))
        CFI ?BRET_EXT load(1, XDATA, add(CFA_XSP16, literal(-3)))
        CFI ?RET_HIGH load(1, XDATA, add(CFA_XSP16, literal(-4)))
        CFI ?RET_LOW load(1, XDATA, add(CFA_XSP16, literal(-5)))
        MOV     R7,#0x4
        LJMP    ?BANKED_LEAVE_XDATA
        CFI EndBlock cfiBlock22
//  591 
//  592 
//  593 /******************************************************************************
//  594  * @fn         CommonApp_GetDeviceInfo
//  595  *
//  596  * @brief       The CommonApp_GetDeviceInfo function retrieves a Device Information
//  597  *              Property.
//  598  *
//  599  * @param       param - The identifier for the device information
//  600  *              pValue - A buffer to hold the device information
//  601  *
//  602  * @return      none
//  603  */

        RSEG BANKED_CODE:CODE:NOROOT(0)
//  604 void CommonApp_GetDeviceInfo ( uint8 param, void *pValue )
CommonApp_GetDeviceInfo:
        CFI Block cfiBlock23 Using cfiCommon0
        CFI Function CommonApp_GetDeviceInfo
        CODE
//  605 {
        FUNCALL CommonApp_GetDeviceInfo, osal_memcpy
        LOCFRAME ISTACK, 0, STACK
        LOCFRAME PSTACK, 0, STACK
        LOCFRAME XSTACK, 14, STACK
        LOCFRAME IOVERLAY, 0, STATIC
        LOCFRAME DOVERLAY, 0, STATIC
        ARGFRAME ISTACK, 0, STACK
        ARGFRAME PSTACK, 0, STACK
        ARGFRAME XSTACK, 14, STACK
        ARGFRAME IOVERLAY, 0, STATIC
        ARGFRAME DOVERLAY, 0, STATIC
        FUNCALL CommonApp_GetDeviceInfo, osal_memcpy
        LOCFRAME ISTACK, 0, STACK
        LOCFRAME PSTACK, 0, STACK
        LOCFRAME XSTACK, 14, STACK
        LOCFRAME IOVERLAY, 0, STATIC
        LOCFRAME DOVERLAY, 0, STATIC
        ARGFRAME ISTACK, 0, STACK
        ARGFRAME PSTACK, 0, STACK
        ARGFRAME XSTACK, 14, STACK
        ARGFRAME IOVERLAY, 0, STATIC
        ARGFRAME DOVERLAY, 0, STATIC
        FUNCALL CommonApp_GetDeviceInfo, osal_memcpy
        LOCFRAME ISTACK, 0, STACK
        LOCFRAME PSTACK, 0, STACK
        LOCFRAME XSTACK, 14, STACK
        LOCFRAME IOVERLAY, 0, STATIC
        LOCFRAME DOVERLAY, 0, STATIC
        ARGFRAME ISTACK, 0, STACK
        ARGFRAME PSTACK, 0, STACK
        ARGFRAME XSTACK, 14, STACK
        ARGFRAME IOVERLAY, 0, STATIC
        ARGFRAME DOVERLAY, 0, STATIC
        FUNCALL CommonApp_GetDeviceInfo, osal_memcpy
        LOCFRAME ISTACK, 0, STACK
        LOCFRAME PSTACK, 0, STACK
        LOCFRAME XSTACK, 14, STACK
        LOCFRAME IOVERLAY, 0, STATIC
        LOCFRAME DOVERLAY, 0, STATIC
        ARGFRAME ISTACK, 0, STACK
        ARGFRAME PSTACK, 0, STACK
        ARGFRAME XSTACK, 14, STACK
        ARGFRAME IOVERLAY, 0, STATIC
        ARGFRAME DOVERLAY, 0, STATIC
        FUNCALL CommonApp_GetDeviceInfo, osal_memcpy
        LOCFRAME ISTACK, 0, STACK
        LOCFRAME PSTACK, 0, STACK
        LOCFRAME XSTACK, 14, STACK
        LOCFRAME IOVERLAY, 0, STATIC
        LOCFRAME DOVERLAY, 0, STATIC
        ARGFRAME ISTACK, 0, STACK
        ARGFRAME PSTACK, 0, STACK
        ARGFRAME XSTACK, 14, STACK
        ARGFRAME IOVERLAY, 0, STATIC
        ARGFRAME DOVERLAY, 0, STATIC
        FUNCALL CommonApp_GetDeviceInfo, osal_memcpy
        LOCFRAME ISTACK, 0, STACK
        LOCFRAME PSTACK, 0, STACK
        LOCFRAME XSTACK, 14, STACK
        LOCFRAME IOVERLAY, 0, STATIC
        LOCFRAME DOVERLAY, 0, STATIC
        ARGFRAME ISTACK, 0, STACK
        ARGFRAME PSTACK, 0, STACK
        ARGFRAME XSTACK, 14, STACK
        ARGFRAME IOVERLAY, 0, STATIC
        ARGFRAME DOVERLAY, 0, STATIC
        FUNCALL CommonApp_GetDeviceInfo, osal_memcpy
        LOCFRAME ISTACK, 0, STACK
        LOCFRAME PSTACK, 0, STACK
        LOCFRAME XSTACK, 14, STACK
        LOCFRAME IOVERLAY, 0, STATIC
        LOCFRAME DOVERLAY, 0, STATIC
        ARGFRAME ISTACK, 0, STACK
        ARGFRAME PSTACK, 0, STACK
        ARGFRAME XSTACK, 14, STACK
        ARGFRAME IOVERLAY, 0, STATIC
        ARGFRAME DOVERLAY, 0, STATIC
        FUNCALL CommonApp_GetDeviceInfo, osal_memcpy
        LOCFRAME ISTACK, 0, STACK
        LOCFRAME PSTACK, 0, STACK
        LOCFRAME XSTACK, 14, STACK
        LOCFRAME IOVERLAY, 0, STATIC
        LOCFRAME DOVERLAY, 0, STATIC
        ARGFRAME ISTACK, 0, STACK
        ARGFRAME PSTACK, 0, STACK
        ARGFRAME XSTACK, 14, STACK
        ARGFRAME IOVERLAY, 0, STATIC
        ARGFRAME DOVERLAY, 0, STATIC
        MOV     A,#-0xb
        LCALL   ?BANKED_ENTER_XDATA
        CFI DPH0 load(1, XDATA, add(CFA_XSP16, literal(-1)))
        CFI DPL0 load(1, XDATA, add(CFA_XSP16, literal(-2)))
        CFI ?BRET_EXT load(1, XDATA, add(CFA_XSP16, literal(-3)))
        CFI ?RET_HIGH load(1, XDATA, add(CFA_XSP16, literal(-4)))
        CFI ?RET_LOW load(1, XDATA, add(CFA_XSP16, literal(-5)))
        CFI R7 load(1, XDATA, add(CFA_XSP16, literal(-6)))
        CFI V2 load(1, XDATA, add(CFA_XSP16, literal(-7)))
        CFI V1 load(1, XDATA, add(CFA_XSP16, literal(-8)))
        CFI V0 load(1, XDATA, add(CFA_XSP16, literal(-9)))
        CFI VB load(1, XDATA, add(CFA_XSP16, literal(-10)))
        CFI R6 load(1, XDATA, add(CFA_XSP16, literal(-11)))
        CFI CFA_SP SP+0
        CFI CFA_XSP16 add(XSP16, 11)
        ; Saved register size: 11
        ; Auto size: 0
        MOV     A,R1
//  606   switch(param)
        JZ      ??CommonApp_GetDeviceInfo_0
        DEC     A
        JZ      ??CommonApp_GetDeviceInfo_1
        DEC     A
        JZ      ??CommonApp_GetDeviceInfo_2
        DEC     A
        JZ      ??CommonApp_GetDeviceInfo_3
        DEC     A
        JZ      ??CommonApp_GetDeviceInfo_4
        DEC     A
        JZ      ??CommonApp_GetDeviceInfo_5
        DEC     A
        JZ      ??CommonApp_GetDeviceInfo_6
        DEC     A
        JZ      ??CommonApp_GetDeviceInfo_7
        SJMP    ??CommonApp_GetDeviceInfo_8
//  607   {
//  608     case ZB_INFO_DEV_STATE:
//  609       osal_memcpy(pValue, &devState, sizeof(uint8));
??CommonApp_GetDeviceInfo_0:
        ; Setup parameters for call to function osal_memcpy
        MOV     ?V0 + 0,#devState & 0xff
        MOV     ?V0 + 1,#(devState >> 8) & 0xff
??CommonApp_GetDeviceInfo_9:
        MOV     ?V0 + 2,#0x0
        MOV     R0,#?V0 + 0
        LCALL   ?PUSH_XSTACK_I_THREE
        CFI CFA_XSP16 add(XSP16, 14)
        MOV     R4,#0x1
        SJMP    ??CommonApp_GetDeviceInfo_10
        CFI CFA_XSP16 add(XSP16, 11)
//  610       break;
//  611     case ZB_INFO_IEEE_ADDR:
//  612       osal_memcpy(pValue, &aExtendedAddress, Z_EXTADDR_LEN);
??CommonApp_GetDeviceInfo_1:
        ; Setup parameters for call to function osal_memcpy
        MOV     ?V0 + 0,#aExtendedAddress & 0xff
        MOV     ?V0 + 1,#(aExtendedAddress >> 8) & 0xff
        SJMP    ??CommonApp_GetDeviceInfo_11
//  613       break;
//  614     case ZB_INFO_SHORT_ADDR:
//  615       osal_memcpy(pValue, &_NIB.nwkDevAddress, sizeof(uint16));
??CommonApp_GetDeviceInfo_2:
        ; Setup parameters for call to function osal_memcpy
        MOV     ?V0 + 0,#(_NIB + 20) & 0xff
        MOV     ?V0 + 1,#((_NIB + 20) >> 8) & 0xff
??CommonApp_GetDeviceInfo_12:
        MOV     ?V0 + 2,#0x0
        MOV     R0,#?V0 + 0
        LCALL   ?PUSH_XSTACK_I_THREE
        CFI CFA_XSP16 add(XSP16, 14)
        MOV     R4,#0x2
        SJMP    ??CommonApp_GetDeviceInfo_10
        CFI CFA_XSP16 add(XSP16, 11)
//  616       break;
//  617     case ZB_INFO_PARENT_SHORT_ADDR:
//  618       osal_memcpy(pValue, &_NIB.nwkCoordAddress, sizeof(uint16));
??CommonApp_GetDeviceInfo_3:
        ; Setup parameters for call to function osal_memcpy
        MOV     ?V0 + 0,#(_NIB + 23) & 0xff
        MOV     ?V0 + 1,#((_NIB + 23) >> 8) & 0xff
        SJMP    ??CommonApp_GetDeviceInfo_12
//  619       break;
//  620     case ZB_INFO_PARENT_IEEE_ADDR:
//  621       osal_memcpy(pValue, &_NIB.nwkCoordExtAddress, Z_EXTADDR_LEN);
??CommonApp_GetDeviceInfo_4:
        ; Setup parameters for call to function osal_memcpy
        MOV     ?V0 + 0,#(_NIB + 25) & 0xff
        MOV     ?V0 + 1,#((_NIB + 25) >> 8) & 0xff
        SJMP    ??CommonApp_GetDeviceInfo_11
//  622       break;
//  623     case ZB_INFO_CHANNEL:
//  624       osal_memcpy(pValue, &_NIB.nwkLogicalChannel, sizeof(uint8));
??CommonApp_GetDeviceInfo_5:
        ; Setup parameters for call to function osal_memcpy
        MOV     ?V0 + 0,#(_NIB + 22) & 0xff
        MOV     ?V0 + 1,#((_NIB + 22) >> 8) & 0xff
        SJMP    ??CommonApp_GetDeviceInfo_9
//  625       break;
//  626     case ZB_INFO_PAN_ID:
//  627       osal_memcpy(pValue, &_NIB.nwkPanId, sizeof(uint16));
??CommonApp_GetDeviceInfo_6:
        ; Setup parameters for call to function osal_memcpy
        MOV     ?V0 + 0,#(_NIB + 33) & 0xff
        MOV     ?V0 + 1,#((_NIB + 33) >> 8) & 0xff
        SJMP    ??CommonApp_GetDeviceInfo_12
//  628       break;
//  629     case ZB_INFO_EXT_PAN_ID:
//  630       osal_memcpy(pValue, &_NIB.extendedPANID, Z_EXTADDR_LEN);
??CommonApp_GetDeviceInfo_7:
        ; Setup parameters for call to function osal_memcpy
        MOV     ?V0 + 0,#(_NIB + 53) & 0xff
        MOV     ?V0 + 1,#((_NIB + 53) >> 8) & 0xff
??CommonApp_GetDeviceInfo_11:
        MOV     ?V0 + 2,#0x0
        MOV     R0,#?V0 + 0
        LCALL   ?PUSH_XSTACK_I_THREE
        CFI CFA_XSP16 add(XSP16, 14)
        MOV     R4,#0x8
??CommonApp_GetDeviceInfo_10:
        MOV     R5,#0x0
        LCALL   ??osal_memcpy?relay
        MOV     A,#0x3
        LCALL   ?DEALLOC_XSTACK8
        CFI CFA_XSP16 add(XSP16, 11)
//  631       break;
//  632   }
//  633 }
??CommonApp_GetDeviceInfo_8:
        LJMP    ??Subroutine13_0 & 0xFFFF
        CFI EndBlock cfiBlock23
//  634 
//  635 
//  636 #if(DEVICE_TYPE_ID!=0)

        RSEG BANKED_CODE:CODE:NOROOT(0)
//  637 int8 CommonDevice_SetData(uint8 const *data, uint8 dataLen)
CommonDevice_SetData:
        CFI Block cfiBlock24 Using cfiCommon0
        CFI Function CommonDevice_SetData
        CODE
//  638 {
        FUNCALL CommonDevice_SetData, osal_mem_free
        LOCFRAME ISTACK, 0, STACK
        LOCFRAME PSTACK, 0, STACK
        LOCFRAME XSTACK, 12, STACK
        LOCFRAME IOVERLAY, 0, STATIC
        LOCFRAME DOVERLAY, 0, STATIC
        ARGFRAME ISTACK, 0, STACK
        ARGFRAME PSTACK, 0, STACK
        ARGFRAME XSTACK, 12, STACK
        ARGFRAME IOVERLAY, 0, STATIC
        ARGFRAME DOVERLAY, 0, STATIC
        FUNCALL CommonDevice_SetData, osal_mem_alloc
        LOCFRAME ISTACK, 0, STACK
        LOCFRAME PSTACK, 0, STACK
        LOCFRAME XSTACK, 12, STACK
        LOCFRAME IOVERLAY, 0, STATIC
        LOCFRAME DOVERLAY, 0, STATIC
        ARGFRAME ISTACK, 0, STACK
        ARGFRAME PSTACK, 0, STACK
        ARGFRAME XSTACK, 12, STACK
        ARGFRAME IOVERLAY, 0, STATIC
        ARGFRAME DOVERLAY, 0, STATIC
        FUNCALL CommonDevice_SetData, osal_memcpy
        LOCFRAME ISTACK, 0, STACK
        LOCFRAME PSTACK, 0, STACK
        LOCFRAME XSTACK, 15, STACK
        LOCFRAME IOVERLAY, 0, STATIC
        LOCFRAME DOVERLAY, 0, STATIC
        ARGFRAME ISTACK, 0, STACK
        ARGFRAME PSTACK, 0, STACK
        ARGFRAME XSTACK, 15, STACK
        ARGFRAME IOVERLAY, 0, STATIC
        ARGFRAME DOVERLAY, 0, STATIC
        FUNCALL CommonDevice_SetData, set_device_data
        LOCFRAME ISTACK, 0, STACK
        LOCFRAME PSTACK, 0, STACK
        LOCFRAME XSTACK, 12, STACK
        LOCFRAME IOVERLAY, 0, STATIC
        LOCFRAME DOVERLAY, 0, STATIC
        ARGFRAME ISTACK, 0, STACK
        ARGFRAME PSTACK, 0, STACK
        ARGFRAME XSTACK, 12, STACK
        ARGFRAME IOVERLAY, 0, STATIC
        ARGFRAME DOVERLAY, 0, STATIC
        MOV     A,#-0xc
        LCALL   ?BANKED_ENTER_XDATA
        CFI DPH0 load(1, XDATA, add(CFA_XSP16, literal(-1)))
        CFI DPL0 load(1, XDATA, add(CFA_XSP16, literal(-2)))
        CFI ?BRET_EXT load(1, XDATA, add(CFA_XSP16, literal(-3)))
        CFI ?RET_HIGH load(1, XDATA, add(CFA_XSP16, literal(-4)))
        CFI ?RET_LOW load(1, XDATA, add(CFA_XSP16, literal(-5)))
        CFI R7 load(1, XDATA, add(CFA_XSP16, literal(-6)))
        CFI V3 load(1, XDATA, add(CFA_XSP16, literal(-7)))
        CFI V2 load(1, XDATA, add(CFA_XSP16, literal(-8)))
        CFI V1 load(1, XDATA, add(CFA_XSP16, literal(-9)))
        CFI V0 load(1, XDATA, add(CFA_XSP16, literal(-10)))
        CFI VB load(1, XDATA, add(CFA_XSP16, literal(-11)))
        CFI R6 load(1, XDATA, add(CFA_XSP16, literal(-12)))
        CFI CFA_SP SP+0
        CFI CFA_XSP16 add(XSP16, 12)
        ; Saved register size: 12
        ; Auto size: 0
        MOV     A,R2
        MOV     R6,A
        MOV     A,R3
        MOV     R7,A
        MOV     ?V0 + 3,R1
//  639 	if(optData != NULL && optDataLen < dataLen && dataLen <= MAX_OPTDATA_SIZE)
        MOV     DPTR,#optData
        MOVX    A,@DPTR
        MOV     R0,A
        INC     DPTR
        MOVX    A,@DPTR
        MOV     R1,A
        MOV     A,R0
        ORL     A,R1
        JZ      ??CommonDevice_SetData_0
        MOV     DPTR,#optDataLen
        MOVX    A,@DPTR
        CLR     C
        SUBB    A,?V0 + 3
        JNC     ??CommonDevice_SetData_0
        MOV     A,?V0 + 3
        CLR     C
        SUBB    A,#-0x7f
        JNC     ??CommonDevice_SetData_0
//  640 	{
//  641 		osal_mem_free(optData);
        ; Setup parameters for call to function osal_mem_free
        LCALL   ?Subroutine7 & 0xFFFF
??CrossCallReturnLabel_18:
        LCALL   ??osal_mem_free?relay
//  642 		optData = NULL;
        MOV     DPTR,#optData
        CLR     A
        MOVX    @DPTR,A
        INC     DPTR
        MOVX    @DPTR,A
        SJMP    ??CommonDevice_SetData_1
//  643 	}
//  644 
//  645 	if(dataLen <= MAX_OPTDATA_SIZE)
??CommonDevice_SetData_0:
        MOV     A,?V0 + 3
        CLR     C
        SUBB    A,#-0x7f
        JNC     ??CommonDevice_SetData_2
//  646 	{
//  647 		if(optData == NULL && dataLen != 0)
        MOV     DPTR,#optData + 1
        MOVX    A,@DPTR
        MOV     R1,A
        MOV     A,R0
        ORL     A,R1
        JNZ     ??CommonDevice_SetData_3
??CommonDevice_SetData_1:
        MOV     A,?V0 + 3
        JZ      ??CommonDevice_SetData_3
//  648 		{
//  649 			optData = osal_mem_alloc(dataLen);
        ; Setup parameters for call to function osal_mem_alloc
        MOV     R2,A
        MOV     R3,#0x0
        LCALL   ??osal_mem_alloc?relay
        MOV     DPTR,#optData
        MOV     A,R2
        MOVX    @DPTR,A
        INC     DPTR
        MOV     A,R3
        MOVX    @DPTR,A
//  650 		}
//  651 
//  652 		osal_memcpy(optData, data, dataLen);
??CommonDevice_SetData_3:
        ; Setup parameters for call to function osal_memcpy
        MOV     ?V0 + 0,R6
        MOV     ?V0 + 1,R7
        MOV     ?V0 + 2,#0x0
        MOV     R0,#?V0 + 0
        LCALL   ?PUSH_XSTACK_I_THREE
        CFI CFA_XSP16 add(XSP16, 15)
        MOV     ?V0 + 0,?V0 + 3
        MOV     R4,?V0 + 0
        MOV     R5,#0x0
        LCALL   ?Subroutine7 & 0xFFFF
??CrossCallReturnLabel_19:
        LCALL   ??osal_memcpy?relay
        MOV     A,#0x3
        LCALL   ?DEALLOC_XSTACK8
        CFI CFA_XSP16 add(XSP16, 12)
//  653 		optDataLen = dataLen;
        MOV     A,?V0 + 3
        MOV     DPTR,#optDataLen
        MOVX    @DPTR,A
//  654 
//  655 		return set_device_data(optData, optDataLen);
        ; Setup parameters for call to function set_device_data
        MOV     R1,A
        LCALL   ?Subroutine7 & 0xFFFF
//  656 	}	
??CrossCallReturnLabel_20:
        LCALL   ??set_device_data?relay
        SJMP    ??CommonDevice_SetData_4
//  657 	
//  658 	return -1;
??CommonDevice_SetData_2:
        MOV     R1,#-0x1
??CommonDevice_SetData_4:
        LJMP    ?Subroutine3 & 0xFFFF
        CFI EndBlock cfiBlock24
//  659 }
//  660 
//  661 

        RSEG BANKED_CODE:CODE:NOROOT(0)
//  662 int8 CommonDevice_GetData(uint8 *data, uint8 *dataLen)
CommonDevice_GetData:
        CFI Block cfiBlock25 Using cfiCommon0
        CFI Function CommonDevice_GetData
        CODE
//  663 {
        FUNCALL CommonDevice_GetData, get_device_data
        LOCFRAME ISTACK, 2, STACK
        LOCFRAME PSTACK, 0, STACK
        LOCFRAME XSTACK, 0, STACK
        LOCFRAME IOVERLAY, 0, STATIC
        LOCFRAME DOVERLAY, 0, STATIC
        ARGFRAME ISTACK, 2, STACK
        ARGFRAME PSTACK, 0, STACK
        ARGFRAME XSTACK, 0, STACK
        ARGFRAME IOVERLAY, 0, STATIC
        ARGFRAME DOVERLAY, 0, STATIC
        PUSH    DPL
        CFI DPL0 Frame(CFA_SP, 4)
        CFI CFA_SP SP+-4
        PUSH    DPH
        CFI DPH0 Frame(CFA_SP, 5)
        CFI CFA_SP SP+-5
        ; Saved register size: 2
        ; Auto size: 0
//  664 	return get_device_data(data, dataLen);
        ; Setup parameters for call to function get_device_data
        LCALL   ??get_device_data?relay
        SJMP    ?Subroutine2
        CFI EndBlock cfiBlock25
//  665 }
//  666 
//  667 
//  668 /*********************************************************************
//  669  * @fn      CommonApp_CmdPeroidCB
//  670  *
//  671  * @brief   command peroid event callback function
//  672  *
//  673  * @param   none
//  674  *
//  675  * @return  none
//  676  */

        RSEG BANKED_CODE:CODE:NOROOT(0)
//  677 void CommonApp_CmdPeroidCB( void *params, uint16 *duration, uint8 *count)
CommonApp_CmdPeroidCB:
        CFI Block cfiBlock26 Using cfiCommon0
        CFI Function CommonApp_CmdPeroidCB
        CODE
//  678 {
        FUNCALL CommonApp_CmdPeroidCB, get_device_data
        LOCFRAME ISTACK, 2, STACK
        LOCFRAME PSTACK, 0, STACK
        LOCFRAME XSTACK, 129, STACK
        LOCFRAME IOVERLAY, 0, STATIC
        LOCFRAME DOVERLAY, 0, STATIC
        ARGFRAME ISTACK, 2, STACK
        ARGFRAME PSTACK, 0, STACK
        ARGFRAME XSTACK, 129, STACK
        ARGFRAME IOVERLAY, 0, STATIC
        ARGFRAME DOVERLAY, 0, STATIC
        FUNCALL CommonApp_CmdPeroidCB, Update_Refresh
        LOCFRAME ISTACK, 2, STACK
        LOCFRAME PSTACK, 0, STACK
        LOCFRAME XSTACK, 129, STACK
        LOCFRAME IOVERLAY, 0, STATIC
        LOCFRAME DOVERLAY, 0, STATIC
        ARGFRAME ISTACK, 2, STACK
        ARGFRAME PSTACK, 0, STACK
        ARGFRAME XSTACK, 129, STACK
        ARGFRAME IOVERLAY, 0, STATIC
        ARGFRAME DOVERLAY, 0, STATIC
        PUSH    DPL
        CFI DPL0 Frame(CFA_SP, 4)
        CFI CFA_SP SP+-4
        PUSH    DPH
        CFI DPH0 Frame(CFA_SP, 5)
        CFI CFA_SP SP+-5
        ; Saved register size: 2
        ; Auto size: 129
        MOV     A,#0x7f
        LCALL   ?ALLOC_XSTACK8
        CFI CFA_XSP16 add(XSP16, 129)
//  679 	uint8 buf[FRAME_DATA_SIZE] = {0};
        MOV     A,#0x1
        LCALL   ?XSTACK_DISP0_8
        MOV     R4,DPL
        MOV     R5,DPH
        MOV     DPH,#(`?<Constant {0}>` >> 8) & 0xff
        MOV     DPL,#`?<Constant {0}>` & 0xff
        MOV     A,#-0x80
        LCALL   ?MOVE_LONG8_XDATA_XDATA
//  680 	uint8 len = 0;
        MOV     DPL,?XSP + 0
        MOV     DPH,?XSP + 1
        MOVX    @DPTR,A
//  681 	
//  682 	if(!CommonDevice_GetData(buf, &len))
        ; Setup parameters for call to function get_device_data
        MOV     R4,DPL
        MOV     R5,DPH
        INC     A
        LCALL   ?XSTACK_DISP0_8
        MOV     R2,DPL
        MOV     R3,DPH
        LCALL   ??get_device_data?relay
        MOV     A,R1
        JNZ     ??CommonApp_CmdPeroidCB_0
//  683 		Update_Refresh(buf, len);
        ; Setup parameters for call to function Update_Refresh
        MOV     DPL,?XSP + 0
        MOV     DPH,?XSP + 1
        MOVX    A,@DPTR
        MOV     R1,A
        MOV     A,#0x1
        LCALL   ?XSTACK_DISP0_8
        MOV     R2,DPL
        MOV     R3,DPH
        LCALL   ??Update_Refresh?relay
//  684 }
??CommonApp_CmdPeroidCB_0:
        MOV     A,#-0x7f
        LCALL   ?DEALLOC_XSTACK8
        CFI EndBlock cfiBlock26
        REQUIRE ?Subroutine2
        ; // Fall through to label ?Subroutine2

        RSEG BANKED_CODE:CODE:NOROOT(0)
?Subroutine2:
        CFI Block cfiBlock27 Using cfiCommon0
        CFI NoFunction
        CFI CFA_SP SP+-5
        CFI DPL0 Frame(CFA_SP, 4)
        CFI DPH0 Frame(CFA_SP, 5)
        POP     DPH
        CFI CFA_SP SP+-4
        CFI DPH0 SameValue
        POP     DPL
        CFI CFA_SP SP+-3
        CFI DPL0 SameValue
        LJMP    ?BRET
        CFI EndBlock cfiBlock27
//  685 
//  686 
//  687 /***************************************************************
//  688                      øÿ÷∆√¸¡Ó”Î∑µªÿ
//  689 *****************************************************************/

        RSEG BANKED_CODE:CODE:NOROOT(0)
//  690 int8 DataCmd_Ctrl(uint8 *data, uint8 length)
DataCmd_Ctrl:
        CFI Block cfiBlock28 Using cfiCommon0
        CFI Function DataCmd_Ctrl
        CODE
//  691 {
        FUNCALL DataCmd_Ctrl, CommonDevice_SetData
        LOCFRAME ISTACK, 0, STACK
        LOCFRAME PSTACK, 0, STACK
        LOCFRAME XSTACK, 9, STACK
        LOCFRAME IOVERLAY, 0, STATIC
        LOCFRAME DOVERLAY, 0, STATIC
        ARGFRAME ISTACK, 0, STACK
        ARGFRAME PSTACK, 0, STACK
        ARGFRAME XSTACK, 9, STACK
        ARGFRAME IOVERLAY, 0, STATIC
        ARGFRAME DOVERLAY, 0, STATIC
        MOV     A,#-0x9
        LCALL   ?BANKED_ENTER_XDATA
        CFI DPH0 load(1, XDATA, add(CFA_XSP16, literal(-1)))
        CFI DPL0 load(1, XDATA, add(CFA_XSP16, literal(-2)))
        CFI ?BRET_EXT load(1, XDATA, add(CFA_XSP16, literal(-3)))
        CFI ?RET_HIGH load(1, XDATA, add(CFA_XSP16, literal(-4)))
        CFI ?RET_LOW load(1, XDATA, add(CFA_XSP16, literal(-5)))
        CFI R7 load(1, XDATA, add(CFA_XSP16, literal(-6)))
        CFI V0 load(1, XDATA, add(CFA_XSP16, literal(-7)))
        CFI VB load(1, XDATA, add(CFA_XSP16, literal(-8)))
        CFI R6 load(1, XDATA, add(CFA_XSP16, literal(-9)))
        CFI CFA_SP SP+0
        CFI CFA_XSP16 add(XSP16, 9)
        ; Saved register size: 9
        ; Auto size: 0
//  692 	return CommonDevice_SetData(data, length);
        ; Setup parameters for call to function CommonDevice_SetData
        LCALL   ??CommonDevice_SetData?relay
        LJMP    ?Subroutine0 & 0xFFFF
        CFI EndBlock cfiBlock28
//  693 }
//  694 

        RSEG BANKED_CODE:CODE:NOROOT(0)
//  695 void Update_Refresh(uint8 *data, uint8 length)
Update_Refresh:
        CFI Block cfiBlock29 Using cfiCommon0
        CFI Function Update_Refresh
        CODE
//  696 {
        FUNCALL Update_Refresh, memcpy
        LOCFRAME ISTACK, 0, STACK
        LOCFRAME PSTACK, 0, STACK
        LOCFRAME XSTACK, 34, STACK
        LOCFRAME IOVERLAY, 0, STATIC
        LOCFRAME DOVERLAY, 0, STATIC
        ARGFRAME ISTACK, 0, STACK
        ARGFRAME PSTACK, 0, STACK
        ARGFRAME XSTACK, 34, STACK
        ARGFRAME IOVERLAY, 0, STATIC
        ARGFRAME DOVERLAY, 0, STATIC
        FUNCALL Update_Refresh, memcpy
        LOCFRAME ISTACK, 0, STACK
        LOCFRAME PSTACK, 0, STACK
        LOCFRAME XSTACK, 34, STACK
        LOCFRAME IOVERLAY, 0, STATIC
        LOCFRAME DOVERLAY, 0, STATIC
        ARGFRAME ISTACK, 0, STACK
        ARGFRAME PSTACK, 0, STACK
        ARGFRAME XSTACK, 34, STACK
        ARGFRAME IOVERLAY, 0, STATIC
        ARGFRAME DOVERLAY, 0, STATIC
        FUNCALL Update_Refresh, memcpy
        LOCFRAME ISTACK, 0, STACK
        LOCFRAME PSTACK, 0, STACK
        LOCFRAME XSTACK, 34, STACK
        LOCFRAME IOVERLAY, 0, STATIC
        LOCFRAME DOVERLAY, 0, STATIC
        ARGFRAME ISTACK, 0, STACK
        ARGFRAME PSTACK, 0, STACK
        ARGFRAME XSTACK, 34, STACK
        ARGFRAME IOVERLAY, 0, STATIC
        ARGFRAME DOVERLAY, 0, STATIC
        FUNCALL Update_Refresh, memcpy
        LOCFRAME ISTACK, 0, STACK
        LOCFRAME PSTACK, 0, STACK
        LOCFRAME XSTACK, 34, STACK
        LOCFRAME IOVERLAY, 0, STATIC
        LOCFRAME DOVERLAY, 0, STATIC
        ARGFRAME ISTACK, 0, STACK
        ARGFRAME PSTACK, 0, STACK
        ARGFRAME XSTACK, 34, STACK
        ARGFRAME IOVERLAY, 0, STATIC
        ARGFRAME DOVERLAY, 0, STATIC
        FUNCALL Update_Refresh, SSAFrame_Package
        LOCFRAME ISTACK, 0, STACK
        LOCFRAME PSTACK, 0, STACK
        LOCFRAME XSTACK, 34, STACK
        LOCFRAME IOVERLAY, 0, STATIC
        LOCFRAME DOVERLAY, 0, STATIC
        ARGFRAME ISTACK, 0, STACK
        ARGFRAME PSTACK, 0, STACK
        ARGFRAME XSTACK, 34, STACK
        ARGFRAME IOVERLAY, 0, STATIC
        ARGFRAME DOVERLAY, 0, STATIC
        FUNCALL Update_Refresh, HalUARTWrite
        LOCFRAME ISTACK, 0, STACK
        LOCFRAME PSTACK, 0, STACK
        LOCFRAME XSTACK, 32, STACK
        LOCFRAME IOVERLAY, 0, STATIC
        LOCFRAME DOVERLAY, 0, STATIC
        ARGFRAME ISTACK, 0, STACK
        ARGFRAME PSTACK, 0, STACK
        ARGFRAME XSTACK, 32, STACK
        ARGFRAME IOVERLAY, 0, STATIC
        ARGFRAME DOVERLAY, 0, STATIC
        FUNCALL Update_Refresh, CommonApp_SendTheMessage
        LOCFRAME ISTACK, 0, STACK
        LOCFRAME PSTACK, 0, STACK
        LOCFRAME XSTACK, 32, STACK
        LOCFRAME IOVERLAY, 0, STATIC
        LOCFRAME DOVERLAY, 0, STATIC
        ARGFRAME ISTACK, 0, STACK
        ARGFRAME PSTACK, 0, STACK
        ARGFRAME XSTACK, 32, STACK
        ARGFRAME IOVERLAY, 0, STATIC
        ARGFRAME DOVERLAY, 0, STATIC
        MOV     A,#-0xb
        LCALL   ?BANKED_ENTER_XDATA
        CFI DPH0 load(1, XDATA, add(CFA_XSP16, literal(-1)))
        CFI DPL0 load(1, XDATA, add(CFA_XSP16, literal(-2)))
        CFI ?BRET_EXT load(1, XDATA, add(CFA_XSP16, literal(-3)))
        CFI ?RET_HIGH load(1, XDATA, add(CFA_XSP16, literal(-4)))
        CFI ?RET_LOW load(1, XDATA, add(CFA_XSP16, literal(-5)))
        CFI R7 load(1, XDATA, add(CFA_XSP16, literal(-6)))
        CFI V2 load(1, XDATA, add(CFA_XSP16, literal(-7)))
        CFI V1 load(1, XDATA, add(CFA_XSP16, literal(-8)))
        CFI V0 load(1, XDATA, add(CFA_XSP16, literal(-9)))
        CFI VB load(1, XDATA, add(CFA_XSP16, literal(-10)))
        CFI R6 load(1, XDATA, add(CFA_XSP16, literal(-11)))
        CFI CFA_SP SP+0
        CFI CFA_XSP16 add(XSP16, 11)
        ; Saved register size: 11
        ; Auto size: 21
        MOV     A,#-0x15
        LCALL   ?ALLOC_XSTACK8
        CFI CFA_XSP16 add(XSP16, 32)
        MOV     A,R2
        MOV     R6,A
        MOV     A,R3
        MOV     R7,A
        MOV     ?V0 + 2,R1
//  697   	UR_t mFrame;
//  698 	uint8 *fBuf;		//pointer data buffer
//  699 	uint16 fLen;		//buffer data length
//  700   
//  701 	memcpy(mFrame.head, FR_HEAD_UR, 3);
        ; Setup parameters for call to function memcpy
        MOV     ?V0 + 0,#0x3
        MOV     ?V0 + 1,#0x0
        MOV     R0,#?V0 + 0
        LCALL   ?PUSH_XSTACK_I_TWO
        CFI CFA_XSP16 add(XSP16, 34)
        MOV     R4,#`?<Constant "UR:">` & 0xff
        MOV     R5,#(`?<Constant "UR:">` >> 8) & 0xff
        MOV     A,#0x6
        LCALL   ?XSTACK_DISP0_8
        LCALL   ?Subroutine9 & 0xFFFF
??CrossCallReturnLabel_8:
        LCALL   ?DEALLOC_XSTACK8
        CFI CFA_XSP16 add(XSP16, 32)
//  702 #ifdef RTR_NWK
//  703 	mFrame.type = FR_DEV_ROUTER;
//  704 #else
//  705 	mFrame.type = FR_DEV_ENDDEV;
        MOV     A,#0x7
        LCALL   ?XSTACK_DISP0_8
        MOV     A,#0x31
        MOVX    @DPTR,A
//  706 #endif
//  707 	memcpy(mFrame.ed_type, FR_APP_DEV, 2);
        ; Setup parameters for call to function memcpy
        MOV     ?V0 + 0,#0x2
        MOV     R0,#?V0 + 0
        LCALL   ?PUSH_XSTACK_I_TWO
        CFI CFA_XSP16 add(XSP16, 34)
        MOV     R4,#`?<Constant "FE">` & 0xff
        MOV     R5,#(`?<Constant "FE">` >> 8) & 0xff
        MOV     A,#0xa
        LCALL   ?XSTACK_DISP0_8
        LCALL   ?Subroutine9 & 0xFFFF
??CrossCallReturnLabel_9:
        LCALL   ?DEALLOC_XSTACK8
        CFI CFA_XSP16 add(XSP16, 32)
//  708 	memcpy(mFrame.short_addr, SHORT_ADDR_G, 4);
        ; Setup parameters for call to function memcpy
        MOV     ?V0 + 0,#0x4
        MOV     R0,#?V0 + 0
        LCALL   ?PUSH_XSTACK_I_TWO
        CFI CFA_XSP16 add(XSP16, 34)
        MOV     R4,#SHORT_ADDR_G & 0xff
        MOV     R5,#(SHORT_ADDR_G >> 8) & 0xff
        MOV     A,#0xc
        LCALL   ?XSTACK_DISP0_8
        LCALL   ?Subroutine9 & 0xFFFF
??CrossCallReturnLabel_10:
        LCALL   ?DEALLOC_XSTACK8
        CFI CFA_XSP16 add(XSP16, 32)
//  709 
//  710 	mFrame.data = data;
        MOV     A,#0xf
        LCALL   ?XSTACK_DISP0_8
        MOV     A,R6
        MOVX    @DPTR,A
        INC     DPTR
        MOV     A,R7
        MOVX    @DPTR,A
//  711 	mFrame.data_len = length;
        MOV     A,#0xe
        LCALL   ?XSTACK_DISP0_8
        MOV     A,?V0 + 2
        MOVX    @DPTR,A
//  712 	
//  713 	memcpy(mFrame.tail, f_tail, 4);
        ; Setup parameters for call to function memcpy
        MOV     R0,#?V0 + 0
        LCALL   ?PUSH_XSTACK_I_TWO
        CFI CFA_XSP16 add(XSP16, 34)
        MOV     R4,#f_tail & 0xff
        MOV     R5,#(f_tail >> 8) & 0xff
        MOV     A,#0x13
        LCALL   ?XSTACK_DISP0_8
        LCALL   ?Subroutine9 & 0xFFFF
??CrossCallReturnLabel_11:
        LCALL   ?DEALLOC_XSTACK8
        CFI CFA_XSP16 add(XSP16, 32)
//  714 
//  715 	if(!SSAFrame_Package(HEAD_UR, &mFrame, &fBuf, &fLen))
        ; Setup parameters for call to function SSAFrame_Package
        MOV     DPL,?XSP + 0
        MOV     DPH,?XSP + 1
        MOV     ?V0 + 0,DPL
        MOV     ?V0 + 1,DPH
        MOV     R0,#?V0 + 0
        LCALL   ?PUSH_XSTACK_I_TWO
        CFI CFA_XSP16 add(XSP16, 34)
        MOV     A,#0x4
        LCALL   ?XSTACK_DISP0_8
        MOV     R4,DPL
        MOV     R5,DPH
        MOV     A,#0x6
        LCALL   ?XSTACK_DISP0_8
        MOV     R2,DPL
        MOV     R3,DPH
        MOV     R1,#0x3
        LCALL   ??SSAFrame_Package?relay
        MOV     A,#0x2
        LCALL   ?DEALLOC_XSTACK8
        CFI CFA_XSP16 add(XSP16, 32)
        MOV     A,R1
        JNZ     ??Update_Refresh_0
//  716 	{
//  717 		if(nwkAddr == COORDINATOR_ADDR)
        MOV     DPTR,#nwkAddr
        MOVX    A,@DPTR
        MOV     R0,A
        INC     DPTR
        MOVX    A,@DPTR
        MOV     R1,A
        MOV     A,R0
        ORL     A,R1
        MOV     DPL,?XSP + 0
        MOV     DPH,?XSP + 1
        JNZ     ??Update_Refresh_1
//  718 		{
//  719 			CommonApp_GetDevDataSend(fBuf, fLen);
        ; Setup parameters for call to function HalUARTWrite
        MOVX    A,@DPTR
        MOV     R4,A
        INC     DPTR
        MOVX    A,@DPTR
        MOV     R5,A
        MOV     A,#0x2
        LCALL   ?XSTACK_DISP0_8
        LCALL   ??Subroutine12_0 & 0xFFFF
??CrossCallReturnLabel_17:
        MOV     R1,#0x0
        LCALL   ??HalUARTWrite?relay
//  720 		}
        SJMP    ??Update_Refresh_0
//  721 		else
//  722 		{
//  723 			CommonApp_SendTheMessage(COORDINATOR_ADDR, fBuf, fLen);
??Update_Refresh_1:
        ; Setup parameters for call to function CommonApp_SendTheMessage
        MOVX    A,@DPTR
        MOV     R1,A
        MOV     A,#0x2
        LCALL   ?XSTACK_DISP0_8
        MOVX    A,@DPTR
        MOV     R4,A
        INC     DPTR
        MOVX    A,@DPTR
        MOV     R5,A
        MOV     R2,#0x0
        MOV     R3,#0x0
        LCALL   ??CommonApp_SendTheMessage?relay
//  724 		}
//  725 	}
//  726 }
??Update_Refresh_0:
        MOV     A,#0x15
        LJMP    ?Subroutine4 & 0xFFFF
        CFI EndBlock cfiBlock29

        RSEG BANKED_CODE:CODE:NOROOT(0)
?Subroutine9:
        CFI Block cfiCond30 Using cfiCommon0
        CFI NoFunction
        CFI Conditional ??CrossCallReturnLabel_8
        CFI R6 load(1, XDATA, add(CFA_XSP16, literal(-11)))
        CFI VB load(1, XDATA, add(CFA_XSP16, literal(-10)))
        CFI V0 load(1, XDATA, add(CFA_XSP16, literal(-9)))
        CFI V1 load(1, XDATA, add(CFA_XSP16, literal(-8)))
        CFI V2 load(1, XDATA, add(CFA_XSP16, literal(-7)))
        CFI R7 load(1, XDATA, add(CFA_XSP16, literal(-6)))
        CFI ?RET_LOW load(1, XDATA, add(CFA_XSP16, literal(-5)))
        CFI ?RET_HIGH load(1, XDATA, add(CFA_XSP16, literal(-4)))
        CFI ?BRET_EXT load(1, XDATA, add(CFA_XSP16, literal(-3)))
        CFI DPL0 load(1, XDATA, add(CFA_XSP16, literal(-2)))
        CFI DPH0 load(1, XDATA, add(CFA_XSP16, literal(-1)))
        CFI CFA_SP SP+0
        CFI CFA_XSP16 add(XSP16, 34)
        CFI Block cfiCond31 Using cfiCommon0
        CFI (cfiCond31) NoFunction
        CFI (cfiCond31) Conditional ??CrossCallReturnLabel_9
        CFI (cfiCond31) R6 load(1, XDATA, add(CFA_XSP16, literal(-11)))
        CFI (cfiCond31) VB load(1, XDATA, add(CFA_XSP16, literal(-10)))
        CFI (cfiCond31) V0 load(1, XDATA, add(CFA_XSP16, literal(-9)))
        CFI (cfiCond31) V1 load(1, XDATA, add(CFA_XSP16, literal(-8)))
        CFI (cfiCond31) V2 load(1, XDATA, add(CFA_XSP16, literal(-7)))
        CFI (cfiCond31) R7 load(1, XDATA, add(CFA_XSP16, literal(-6)))
        CFI (cfiCond31) ?RET_LOW load(1, XDATA, add(CFA_XSP16, literal(-5)))
        CFI (cfiCond31) ?RET_HIGH load(1, XDATA, add(CFA_XSP16, literal(-4)))
        CFI (cfiCond31) ?BRET_EXT load(1, XDATA, add(CFA_XSP16, literal(-3)))
        CFI (cfiCond31) DPL0 load(1, XDATA, add(CFA_XSP16, literal(-2)))
        CFI (cfiCond31) DPH0 load(1, XDATA, add(CFA_XSP16, literal(-1)))
        CFI (cfiCond31) CFA_SP SP+0
        CFI (cfiCond31) CFA_XSP16 add(XSP16, 34)
        CFI Block cfiCond32 Using cfiCommon0
        CFI (cfiCond32) NoFunction
        CFI (cfiCond32) Conditional ??CrossCallReturnLabel_10
        CFI (cfiCond32) R6 load(1, XDATA, add(CFA_XSP16, literal(-11)))
        CFI (cfiCond32) VB load(1, XDATA, add(CFA_XSP16, literal(-10)))
        CFI (cfiCond32) V0 load(1, XDATA, add(CFA_XSP16, literal(-9)))
        CFI (cfiCond32) V1 load(1, XDATA, add(CFA_XSP16, literal(-8)))
        CFI (cfiCond32) V2 load(1, XDATA, add(CFA_XSP16, literal(-7)))
        CFI (cfiCond32) R7 load(1, XDATA, add(CFA_XSP16, literal(-6)))
        CFI (cfiCond32) ?RET_LOW load(1, XDATA, add(CFA_XSP16, literal(-5)))
        CFI (cfiCond32) ?RET_HIGH load(1, XDATA, add(CFA_XSP16, literal(-4)))
        CFI (cfiCond32) ?BRET_EXT load(1, XDATA, add(CFA_XSP16, literal(-3)))
        CFI (cfiCond32) DPL0 load(1, XDATA, add(CFA_XSP16, literal(-2)))
        CFI (cfiCond32) DPH0 load(1, XDATA, add(CFA_XSP16, literal(-1)))
        CFI (cfiCond32) CFA_SP SP+0
        CFI (cfiCond32) CFA_XSP16 add(XSP16, 34)
        CFI Block cfiCond33 Using cfiCommon0
        CFI (cfiCond33) NoFunction
        CFI (cfiCond33) Conditional ??CrossCallReturnLabel_11
        CFI (cfiCond33) R6 load(1, XDATA, add(CFA_XSP16, literal(-11)))
        CFI (cfiCond33) VB load(1, XDATA, add(CFA_XSP16, literal(-10)))
        CFI (cfiCond33) V0 load(1, XDATA, add(CFA_XSP16, literal(-9)))
        CFI (cfiCond33) V1 load(1, XDATA, add(CFA_XSP16, literal(-8)))
        CFI (cfiCond33) V2 load(1, XDATA, add(CFA_XSP16, literal(-7)))
        CFI (cfiCond33) R7 load(1, XDATA, add(CFA_XSP16, literal(-6)))
        CFI (cfiCond33) ?RET_LOW load(1, XDATA, add(CFA_XSP16, literal(-5)))
        CFI (cfiCond33) ?RET_HIGH load(1, XDATA, add(CFA_XSP16, literal(-4)))
        CFI (cfiCond33) ?BRET_EXT load(1, XDATA, add(CFA_XSP16, literal(-3)))
        CFI (cfiCond33) DPL0 load(1, XDATA, add(CFA_XSP16, literal(-2)))
        CFI (cfiCond33) DPH0 load(1, XDATA, add(CFA_XSP16, literal(-1)))
        CFI (cfiCond33) CFA_SP SP+0
        CFI (cfiCond33) CFA_XSP16 add(XSP16, 34)
        CFI Block cfiCond34 Using cfiCommon0
        CFI (cfiCond34) NoFunction
        CFI (cfiCond34) Conditional ??CrossCallReturnLabel_12
        CFI (cfiCond34) R6 load(1, XDATA, add(CFA_XSP16, literal(-11)))
        CFI (cfiCond34) VB load(1, XDATA, add(CFA_XSP16, literal(-10)))
        CFI (cfiCond34) V0 load(1, XDATA, add(CFA_XSP16, literal(-9)))
        CFI (cfiCond34) V1 load(1, XDATA, add(CFA_XSP16, literal(-8)))
        CFI (cfiCond34) V2 load(1, XDATA, add(CFA_XSP16, literal(-7)))
        CFI (cfiCond34) R7 load(1, XDATA, add(CFA_XSP16, literal(-6)))
        CFI (cfiCond34) ?RET_LOW load(1, XDATA, add(CFA_XSP16, literal(-5)))
        CFI (cfiCond34) ?RET_HIGH load(1, XDATA, add(CFA_XSP16, literal(-4)))
        CFI (cfiCond34) ?BRET_EXT load(1, XDATA, add(CFA_XSP16, literal(-3)))
        CFI (cfiCond34) DPL0 load(1, XDATA, add(CFA_XSP16, literal(-2)))
        CFI (cfiCond34) DPH0 load(1, XDATA, add(CFA_XSP16, literal(-1)))
        CFI (cfiCond34) CFA_SP SP+0
        CFI (cfiCond34) CFA_XSP16 add(XSP16, 61)
        CFI Block cfiCond35 Using cfiCommon0
        CFI (cfiCond35) NoFunction
        CFI (cfiCond35) Conditional ??CrossCallReturnLabel_13
        CFI (cfiCond35) R6 load(1, XDATA, add(CFA_XSP16, literal(-11)))
        CFI (cfiCond35) VB load(1, XDATA, add(CFA_XSP16, literal(-10)))
        CFI (cfiCond35) V0 load(1, XDATA, add(CFA_XSP16, literal(-9)))
        CFI (cfiCond35) V1 load(1, XDATA, add(CFA_XSP16, literal(-8)))
        CFI (cfiCond35) V2 load(1, XDATA, add(CFA_XSP16, literal(-7)))
        CFI (cfiCond35) R7 load(1, XDATA, add(CFA_XSP16, literal(-6)))
        CFI (cfiCond35) ?RET_LOW load(1, XDATA, add(CFA_XSP16, literal(-5)))
        CFI (cfiCond35) ?RET_HIGH load(1, XDATA, add(CFA_XSP16, literal(-4)))
        CFI (cfiCond35) ?BRET_EXT load(1, XDATA, add(CFA_XSP16, literal(-3)))
        CFI (cfiCond35) DPL0 load(1, XDATA, add(CFA_XSP16, literal(-2)))
        CFI (cfiCond35) DPH0 load(1, XDATA, add(CFA_XSP16, literal(-1)))
        CFI (cfiCond35) CFA_SP SP+0
        CFI (cfiCond35) CFA_XSP16 add(XSP16, 61)
        CFI Block cfiCond36 Using cfiCommon0
        CFI (cfiCond36) NoFunction
        CFI (cfiCond36) Conditional ??CrossCallReturnLabel_14
        CFI (cfiCond36) R6 load(1, XDATA, add(CFA_XSP16, literal(-11)))
        CFI (cfiCond36) VB load(1, XDATA, add(CFA_XSP16, literal(-10)))
        CFI (cfiCond36) V0 load(1, XDATA, add(CFA_XSP16, literal(-9)))
        CFI (cfiCond36) V1 load(1, XDATA, add(CFA_XSP16, literal(-8)))
        CFI (cfiCond36) V2 load(1, XDATA, add(CFA_XSP16, literal(-7)))
        CFI (cfiCond36) R7 load(1, XDATA, add(CFA_XSP16, literal(-6)))
        CFI (cfiCond36) ?RET_LOW load(1, XDATA, add(CFA_XSP16, literal(-5)))
        CFI (cfiCond36) ?RET_HIGH load(1, XDATA, add(CFA_XSP16, literal(-4)))
        CFI (cfiCond36) ?BRET_EXT load(1, XDATA, add(CFA_XSP16, literal(-3)))
        CFI (cfiCond36) DPL0 load(1, XDATA, add(CFA_XSP16, literal(-2)))
        CFI (cfiCond36) DPH0 load(1, XDATA, add(CFA_XSP16, literal(-1)))
        CFI (cfiCond36) CFA_SP SP+0
        CFI (cfiCond36) CFA_XSP16 add(XSP16, 61)
        CFI Block cfiPicker37 Using cfiCommon1
        CFI (cfiPicker37) NoFunction
        CFI (cfiPicker37) Picker
        MOV     R2,DPL
        MOV     R3,DPH
        CFI EndBlock cfiCond30
        CFI EndBlock cfiCond31
        CFI EndBlock cfiCond32
        CFI EndBlock cfiCond33
        CFI EndBlock cfiCond34
        CFI EndBlock cfiCond35
        CFI EndBlock cfiCond36
        CFI EndBlock cfiPicker37
        REQUIRE ??Subroutine11_0
        ; // Fall through to label ??Subroutine11_0

        RSEG BANKED_CODE:CODE:NOROOT(0)
??Subroutine11_0:
        CFI Block cfiCond38 Using cfiCommon0
        CFI NoFunction
        CFI Conditional ??CrossCallReturnLabel_15
        CFI R6 load(1, XDATA, add(CFA_XSP16, literal(-11)))
        CFI VB load(1, XDATA, add(CFA_XSP16, literal(-10)))
        CFI V0 load(1, XDATA, add(CFA_XSP16, literal(-9)))
        CFI V1 load(1, XDATA, add(CFA_XSP16, literal(-8)))
        CFI V2 load(1, XDATA, add(CFA_XSP16, literal(-7)))
        CFI R7 load(1, XDATA, add(CFA_XSP16, literal(-6)))
        CFI ?RET_LOW load(1, XDATA, add(CFA_XSP16, literal(-5)))
        CFI ?RET_HIGH load(1, XDATA, add(CFA_XSP16, literal(-4)))
        CFI ?BRET_EXT load(1, XDATA, add(CFA_XSP16, literal(-3)))
        CFI DPL0 load(1, XDATA, add(CFA_XSP16, literal(-2)))
        CFI DPH0 load(1, XDATA, add(CFA_XSP16, literal(-1)))
        CFI CFA_SP SP+0
        CFI CFA_XSP16 add(XSP16, 61)
        CFI Block cfiCond39 Using cfiCommon0
        CFI (cfiCond39) NoFunction
        CFI (cfiCond39) Conditional ??CrossCallReturnLabel_8
        CFI (cfiCond39) R6 load(1, XDATA, add(CFA_XSP16, literal(-11)))
        CFI (cfiCond39) VB load(1, XDATA, add(CFA_XSP16, literal(-10)))
        CFI (cfiCond39) V0 load(1, XDATA, add(CFA_XSP16, literal(-9)))
        CFI (cfiCond39) V1 load(1, XDATA, add(CFA_XSP16, literal(-8)))
        CFI (cfiCond39) V2 load(1, XDATA, add(CFA_XSP16, literal(-7)))
        CFI (cfiCond39) R7 load(1, XDATA, add(CFA_XSP16, literal(-6)))
        CFI (cfiCond39) ?RET_LOW load(1, XDATA, add(CFA_XSP16, literal(-5)))
        CFI (cfiCond39) ?RET_HIGH load(1, XDATA, add(CFA_XSP16, literal(-4)))
        CFI (cfiCond39) ?BRET_EXT load(1, XDATA, add(CFA_XSP16, literal(-3)))
        CFI (cfiCond39) DPL0 load(1, XDATA, add(CFA_XSP16, literal(-2)))
        CFI (cfiCond39) DPH0 load(1, XDATA, add(CFA_XSP16, literal(-1)))
        CFI (cfiCond39) CFA_SP SP+0
        CFI (cfiCond39) CFA_XSP16 add(XSP16, 34)
        CFI Block cfiCond40 Using cfiCommon0
        CFI (cfiCond40) NoFunction
        CFI (cfiCond40) Conditional ??CrossCallReturnLabel_9
        CFI (cfiCond40) R6 load(1, XDATA, add(CFA_XSP16, literal(-11)))
        CFI (cfiCond40) VB load(1, XDATA, add(CFA_XSP16, literal(-10)))
        CFI (cfiCond40) V0 load(1, XDATA, add(CFA_XSP16, literal(-9)))
        CFI (cfiCond40) V1 load(1, XDATA, add(CFA_XSP16, literal(-8)))
        CFI (cfiCond40) V2 load(1, XDATA, add(CFA_XSP16, literal(-7)))
        CFI (cfiCond40) R7 load(1, XDATA, add(CFA_XSP16, literal(-6)))
        CFI (cfiCond40) ?RET_LOW load(1, XDATA, add(CFA_XSP16, literal(-5)))
        CFI (cfiCond40) ?RET_HIGH load(1, XDATA, add(CFA_XSP16, literal(-4)))
        CFI (cfiCond40) ?BRET_EXT load(1, XDATA, add(CFA_XSP16, literal(-3)))
        CFI (cfiCond40) DPL0 load(1, XDATA, add(CFA_XSP16, literal(-2)))
        CFI (cfiCond40) DPH0 load(1, XDATA, add(CFA_XSP16, literal(-1)))
        CFI (cfiCond40) CFA_SP SP+0
        CFI (cfiCond40) CFA_XSP16 add(XSP16, 34)
        CFI Block cfiCond41 Using cfiCommon0
        CFI (cfiCond41) NoFunction
        CFI (cfiCond41) Conditional ??CrossCallReturnLabel_10
        CFI (cfiCond41) R6 load(1, XDATA, add(CFA_XSP16, literal(-11)))
        CFI (cfiCond41) VB load(1, XDATA, add(CFA_XSP16, literal(-10)))
        CFI (cfiCond41) V0 load(1, XDATA, add(CFA_XSP16, literal(-9)))
        CFI (cfiCond41) V1 load(1, XDATA, add(CFA_XSP16, literal(-8)))
        CFI (cfiCond41) V2 load(1, XDATA, add(CFA_XSP16, literal(-7)))
        CFI (cfiCond41) R7 load(1, XDATA, add(CFA_XSP16, literal(-6)))
        CFI (cfiCond41) ?RET_LOW load(1, XDATA, add(CFA_XSP16, literal(-5)))
        CFI (cfiCond41) ?RET_HIGH load(1, XDATA, add(CFA_XSP16, literal(-4)))
        CFI (cfiCond41) ?BRET_EXT load(1, XDATA, add(CFA_XSP16, literal(-3)))
        CFI (cfiCond41) DPL0 load(1, XDATA, add(CFA_XSP16, literal(-2)))
        CFI (cfiCond41) DPH0 load(1, XDATA, add(CFA_XSP16, literal(-1)))
        CFI (cfiCond41) CFA_SP SP+0
        CFI (cfiCond41) CFA_XSP16 add(XSP16, 34)
        CFI Block cfiCond42 Using cfiCommon0
        CFI (cfiCond42) NoFunction
        CFI (cfiCond42) Conditional ??CrossCallReturnLabel_11
        CFI (cfiCond42) R6 load(1, XDATA, add(CFA_XSP16, literal(-11)))
        CFI (cfiCond42) VB load(1, XDATA, add(CFA_XSP16, literal(-10)))
        CFI (cfiCond42) V0 load(1, XDATA, add(CFA_XSP16, literal(-9)))
        CFI (cfiCond42) V1 load(1, XDATA, add(CFA_XSP16, literal(-8)))
        CFI (cfiCond42) V2 load(1, XDATA, add(CFA_XSP16, literal(-7)))
        CFI (cfiCond42) R7 load(1, XDATA, add(CFA_XSP16, literal(-6)))
        CFI (cfiCond42) ?RET_LOW load(1, XDATA, add(CFA_XSP16, literal(-5)))
        CFI (cfiCond42) ?RET_HIGH load(1, XDATA, add(CFA_XSP16, literal(-4)))
        CFI (cfiCond42) ?BRET_EXT load(1, XDATA, add(CFA_XSP16, literal(-3)))
        CFI (cfiCond42) DPL0 load(1, XDATA, add(CFA_XSP16, literal(-2)))
        CFI (cfiCond42) DPH0 load(1, XDATA, add(CFA_XSP16, literal(-1)))
        CFI (cfiCond42) CFA_SP SP+0
        CFI (cfiCond42) CFA_XSP16 add(XSP16, 34)
        CFI Block cfiCond43 Using cfiCommon0
        CFI (cfiCond43) NoFunction
        CFI (cfiCond43) Conditional ??CrossCallReturnLabel_12
        CFI (cfiCond43) R6 load(1, XDATA, add(CFA_XSP16, literal(-11)))
        CFI (cfiCond43) VB load(1, XDATA, add(CFA_XSP16, literal(-10)))
        CFI (cfiCond43) V0 load(1, XDATA, add(CFA_XSP16, literal(-9)))
        CFI (cfiCond43) V1 load(1, XDATA, add(CFA_XSP16, literal(-8)))
        CFI (cfiCond43) V2 load(1, XDATA, add(CFA_XSP16, literal(-7)))
        CFI (cfiCond43) R7 load(1, XDATA, add(CFA_XSP16, literal(-6)))
        CFI (cfiCond43) ?RET_LOW load(1, XDATA, add(CFA_XSP16, literal(-5)))
        CFI (cfiCond43) ?RET_HIGH load(1, XDATA, add(CFA_XSP16, literal(-4)))
        CFI (cfiCond43) ?BRET_EXT load(1, XDATA, add(CFA_XSP16, literal(-3)))
        CFI (cfiCond43) DPL0 load(1, XDATA, add(CFA_XSP16, literal(-2)))
        CFI (cfiCond43) DPH0 load(1, XDATA, add(CFA_XSP16, literal(-1)))
        CFI (cfiCond43) CFA_SP SP+0
        CFI (cfiCond43) CFA_XSP16 add(XSP16, 61)
        CFI Block cfiCond44 Using cfiCommon0
        CFI (cfiCond44) NoFunction
        CFI (cfiCond44) Conditional ??CrossCallReturnLabel_13
        CFI (cfiCond44) R6 load(1, XDATA, add(CFA_XSP16, literal(-11)))
        CFI (cfiCond44) VB load(1, XDATA, add(CFA_XSP16, literal(-10)))
        CFI (cfiCond44) V0 load(1, XDATA, add(CFA_XSP16, literal(-9)))
        CFI (cfiCond44) V1 load(1, XDATA, add(CFA_XSP16, literal(-8)))
        CFI (cfiCond44) V2 load(1, XDATA, add(CFA_XSP16, literal(-7)))
        CFI (cfiCond44) R7 load(1, XDATA, add(CFA_XSP16, literal(-6)))
        CFI (cfiCond44) ?RET_LOW load(1, XDATA, add(CFA_XSP16, literal(-5)))
        CFI (cfiCond44) ?RET_HIGH load(1, XDATA, add(CFA_XSP16, literal(-4)))
        CFI (cfiCond44) ?BRET_EXT load(1, XDATA, add(CFA_XSP16, literal(-3)))
        CFI (cfiCond44) DPL0 load(1, XDATA, add(CFA_XSP16, literal(-2)))
        CFI (cfiCond44) DPH0 load(1, XDATA, add(CFA_XSP16, literal(-1)))
        CFI (cfiCond44) CFA_SP SP+0
        CFI (cfiCond44) CFA_XSP16 add(XSP16, 61)
        CFI Block cfiCond45 Using cfiCommon0
        CFI (cfiCond45) NoFunction
        CFI (cfiCond45) Conditional ??CrossCallReturnLabel_14
        CFI (cfiCond45) R6 load(1, XDATA, add(CFA_XSP16, literal(-11)))
        CFI (cfiCond45) VB load(1, XDATA, add(CFA_XSP16, literal(-10)))
        CFI (cfiCond45) V0 load(1, XDATA, add(CFA_XSP16, literal(-9)))
        CFI (cfiCond45) V1 load(1, XDATA, add(CFA_XSP16, literal(-8)))
        CFI (cfiCond45) V2 load(1, XDATA, add(CFA_XSP16, literal(-7)))
        CFI (cfiCond45) R7 load(1, XDATA, add(CFA_XSP16, literal(-6)))
        CFI (cfiCond45) ?RET_LOW load(1, XDATA, add(CFA_XSP16, literal(-5)))
        CFI (cfiCond45) ?RET_HIGH load(1, XDATA, add(CFA_XSP16, literal(-4)))
        CFI (cfiCond45) ?BRET_EXT load(1, XDATA, add(CFA_XSP16, literal(-3)))
        CFI (cfiCond45) DPL0 load(1, XDATA, add(CFA_XSP16, literal(-2)))
        CFI (cfiCond45) DPH0 load(1, XDATA, add(CFA_XSP16, literal(-1)))
        CFI (cfiCond45) CFA_SP SP+0
        CFI (cfiCond45) CFA_XSP16 add(XSP16, 61)
        CFI Block cfiPicker46 Using cfiCommon1
        CFI (cfiPicker46) NoFunction
        CFI (cfiPicker46) Picker
        LCALL   ??memcpy?relay
        MOV     A,#0x2
        RET
        CFI EndBlock cfiCond38
        CFI EndBlock cfiCond39
        CFI EndBlock cfiCond40
        CFI EndBlock cfiCond41
        CFI EndBlock cfiCond42
        CFI EndBlock cfiCond43
        CFI EndBlock cfiCond44
        CFI EndBlock cfiCond45
        CFI EndBlock cfiPicker46

        RSEG BANKED_CODE:CODE:NOROOT(0)
?Subroutine7:
        CFI Block cfiCond47 Using cfiCommon0
        CFI NoFunction
        CFI Conditional ??CrossCallReturnLabel_18
        CFI R6 load(1, XDATA, add(CFA_XSP16, literal(-12)))
        CFI VB load(1, XDATA, add(CFA_XSP16, literal(-11)))
        CFI V0 load(1, XDATA, add(CFA_XSP16, literal(-10)))
        CFI V1 load(1, XDATA, add(CFA_XSP16, literal(-9)))
        CFI V2 load(1, XDATA, add(CFA_XSP16, literal(-8)))
        CFI V3 load(1, XDATA, add(CFA_XSP16, literal(-7)))
        CFI R7 load(1, XDATA, add(CFA_XSP16, literal(-6)))
        CFI ?RET_LOW load(1, XDATA, add(CFA_XSP16, literal(-5)))
        CFI ?RET_HIGH load(1, XDATA, add(CFA_XSP16, literal(-4)))
        CFI ?BRET_EXT load(1, XDATA, add(CFA_XSP16, literal(-3)))
        CFI DPL0 load(1, XDATA, add(CFA_XSP16, literal(-2)))
        CFI DPH0 load(1, XDATA, add(CFA_XSP16, literal(-1)))
        CFI CFA_SP SP+0
        CFI CFA_XSP16 add(XSP16, 12)
        CFI Block cfiCond48 Using cfiCommon0
        CFI (cfiCond48) NoFunction
        CFI (cfiCond48) Conditional ??CrossCallReturnLabel_19
        CFI (cfiCond48) R6 load(1, XDATA, add(CFA_XSP16, literal(-12)))
        CFI (cfiCond48) VB load(1, XDATA, add(CFA_XSP16, literal(-11)))
        CFI (cfiCond48) V0 load(1, XDATA, add(CFA_XSP16, literal(-10)))
        CFI (cfiCond48) V1 load(1, XDATA, add(CFA_XSP16, literal(-9)))
        CFI (cfiCond48) V2 load(1, XDATA, add(CFA_XSP16, literal(-8)))
        CFI (cfiCond48) V3 load(1, XDATA, add(CFA_XSP16, literal(-7)))
        CFI (cfiCond48) R7 load(1, XDATA, add(CFA_XSP16, literal(-6)))
        CFI (cfiCond48) ?RET_LOW load(1, XDATA, add(CFA_XSP16, literal(-5)))
        CFI (cfiCond48) ?RET_HIGH load(1, XDATA, add(CFA_XSP16, literal(-4)))
        CFI (cfiCond48) ?BRET_EXT load(1, XDATA, add(CFA_XSP16, literal(-3)))
        CFI (cfiCond48) DPL0 load(1, XDATA, add(CFA_XSP16, literal(-2)))
        CFI (cfiCond48) DPH0 load(1, XDATA, add(CFA_XSP16, literal(-1)))
        CFI (cfiCond48) CFA_SP SP+0
        CFI (cfiCond48) CFA_XSP16 add(XSP16, 15)
        CFI Block cfiCond49 Using cfiCommon0
        CFI (cfiCond49) NoFunction
        CFI (cfiCond49) Conditional ??CrossCallReturnLabel_20
        CFI (cfiCond49) R6 load(1, XDATA, add(CFA_XSP16, literal(-12)))
        CFI (cfiCond49) VB load(1, XDATA, add(CFA_XSP16, literal(-11)))
        CFI (cfiCond49) V0 load(1, XDATA, add(CFA_XSP16, literal(-10)))
        CFI (cfiCond49) V1 load(1, XDATA, add(CFA_XSP16, literal(-9)))
        CFI (cfiCond49) V2 load(1, XDATA, add(CFA_XSP16, literal(-8)))
        CFI (cfiCond49) V3 load(1, XDATA, add(CFA_XSP16, literal(-7)))
        CFI (cfiCond49) R7 load(1, XDATA, add(CFA_XSP16, literal(-6)))
        CFI (cfiCond49) ?RET_LOW load(1, XDATA, add(CFA_XSP16, literal(-5)))
        CFI (cfiCond49) ?RET_HIGH load(1, XDATA, add(CFA_XSP16, literal(-4)))
        CFI (cfiCond49) ?BRET_EXT load(1, XDATA, add(CFA_XSP16, literal(-3)))
        CFI (cfiCond49) DPL0 load(1, XDATA, add(CFA_XSP16, literal(-2)))
        CFI (cfiCond49) DPH0 load(1, XDATA, add(CFA_XSP16, literal(-1)))
        CFI (cfiCond49) CFA_SP SP+0
        CFI (cfiCond49) CFA_XSP16 add(XSP16, 12)
        CFI Block cfiPicker50 Using cfiCommon1
        CFI (cfiPicker50) NoFunction
        CFI (cfiPicker50) Picker
        MOV     DPTR,#optData
        CFI EndBlock cfiCond47
        CFI EndBlock cfiCond48
        CFI EndBlock cfiCond49
        CFI EndBlock cfiPicker50
        REQUIRE ??Subroutine12_0
        ; // Fall through to label ??Subroutine12_0

        RSEG BANKED_CODE:CODE:NOROOT(0)
??Subroutine12_0:
        CFI Block cfiCond51 Using cfiCommon0
        CFI NoFunction
        CFI Conditional ??CrossCallReturnLabel_16
        CFI R6 load(1, XDATA, add(CFA_XSP16, literal(-14)))
        CFI VB load(1, XDATA, add(CFA_XSP16, literal(-13)))
        CFI V0 load(1, XDATA, add(CFA_XSP16, literal(-12)))
        CFI V1 load(1, XDATA, add(CFA_XSP16, literal(-11)))
        CFI V2 load(1, XDATA, add(CFA_XSP16, literal(-10)))
        CFI V3 load(1, XDATA, add(CFA_XSP16, literal(-9)))
        CFI V4 load(1, XDATA, add(CFA_XSP16, literal(-8)))
        CFI V5 load(1, XDATA, add(CFA_XSP16, literal(-7)))
        CFI R7 load(1, XDATA, add(CFA_XSP16, literal(-6)))
        CFI ?RET_LOW load(1, XDATA, add(CFA_XSP16, literal(-5)))
        CFI ?RET_HIGH load(1, XDATA, add(CFA_XSP16, literal(-4)))
        CFI ?BRET_EXT load(1, XDATA, add(CFA_XSP16, literal(-3)))
        CFI DPL0 load(1, XDATA, add(CFA_XSP16, literal(-2)))
        CFI DPH0 load(1, XDATA, add(CFA_XSP16, literal(-1)))
        CFI CFA_SP SP+0
        CFI CFA_XSP16 add(XSP16, 14)
        CFI Block cfiCond52 Using cfiCommon0
        CFI (cfiCond52) NoFunction
        CFI (cfiCond52) Conditional ??CrossCallReturnLabel_17
        CFI (cfiCond52) R6 load(1, XDATA, add(CFA_XSP16, literal(-11)))
        CFI (cfiCond52) VB load(1, XDATA, add(CFA_XSP16, literal(-10)))
        CFI (cfiCond52) V0 load(1, XDATA, add(CFA_XSP16, literal(-9)))
        CFI (cfiCond52) V1 load(1, XDATA, add(CFA_XSP16, literal(-8)))
        CFI (cfiCond52) V2 load(1, XDATA, add(CFA_XSP16, literal(-7)))
        CFI (cfiCond52) R7 load(1, XDATA, add(CFA_XSP16, literal(-6)))
        CFI (cfiCond52) ?RET_LOW load(1, XDATA, add(CFA_XSP16, literal(-5)))
        CFI (cfiCond52) ?RET_HIGH load(1, XDATA, add(CFA_XSP16, literal(-4)))
        CFI (cfiCond52) ?BRET_EXT load(1, XDATA, add(CFA_XSP16, literal(-3)))
        CFI (cfiCond52) DPL0 load(1, XDATA, add(CFA_XSP16, literal(-2)))
        CFI (cfiCond52) DPH0 load(1, XDATA, add(CFA_XSP16, literal(-1)))
        CFI (cfiCond52) CFA_SP SP+0
        CFI (cfiCond52) CFA_XSP16 add(XSP16, 32)
        CFI Block cfiCond53 Using cfiCommon0
        CFI (cfiCond53) NoFunction
        CFI (cfiCond53) Conditional ??CrossCallReturnLabel_18
        CFI (cfiCond53) R6 load(1, XDATA, add(CFA_XSP16, literal(-12)))
        CFI (cfiCond53) VB load(1, XDATA, add(CFA_XSP16, literal(-11)))
        CFI (cfiCond53) V0 load(1, XDATA, add(CFA_XSP16, literal(-10)))
        CFI (cfiCond53) V1 load(1, XDATA, add(CFA_XSP16, literal(-9)))
        CFI (cfiCond53) V2 load(1, XDATA, add(CFA_XSP16, literal(-8)))
        CFI (cfiCond53) V3 load(1, XDATA, add(CFA_XSP16, literal(-7)))
        CFI (cfiCond53) R7 load(1, XDATA, add(CFA_XSP16, literal(-6)))
        CFI (cfiCond53) ?RET_LOW load(1, XDATA, add(CFA_XSP16, literal(-5)))
        CFI (cfiCond53) ?RET_HIGH load(1, XDATA, add(CFA_XSP16, literal(-4)))
        CFI (cfiCond53) ?BRET_EXT load(1, XDATA, add(CFA_XSP16, literal(-3)))
        CFI (cfiCond53) DPL0 load(1, XDATA, add(CFA_XSP16, literal(-2)))
        CFI (cfiCond53) DPH0 load(1, XDATA, add(CFA_XSP16, literal(-1)))
        CFI (cfiCond53) CFA_SP SP+0
        CFI (cfiCond53) CFA_XSP16 add(XSP16, 12)
        CFI Block cfiCond54 Using cfiCommon0
        CFI (cfiCond54) NoFunction
        CFI (cfiCond54) Conditional ??CrossCallReturnLabel_19
        CFI (cfiCond54) R6 load(1, XDATA, add(CFA_XSP16, literal(-12)))
        CFI (cfiCond54) VB load(1, XDATA, add(CFA_XSP16, literal(-11)))
        CFI (cfiCond54) V0 load(1, XDATA, add(CFA_XSP16, literal(-10)))
        CFI (cfiCond54) V1 load(1, XDATA, add(CFA_XSP16, literal(-9)))
        CFI (cfiCond54) V2 load(1, XDATA, add(CFA_XSP16, literal(-8)))
        CFI (cfiCond54) V3 load(1, XDATA, add(CFA_XSP16, literal(-7)))
        CFI (cfiCond54) R7 load(1, XDATA, add(CFA_XSP16, literal(-6)))
        CFI (cfiCond54) ?RET_LOW load(1, XDATA, add(CFA_XSP16, literal(-5)))
        CFI (cfiCond54) ?RET_HIGH load(1, XDATA, add(CFA_XSP16, literal(-4)))
        CFI (cfiCond54) ?BRET_EXT load(1, XDATA, add(CFA_XSP16, literal(-3)))
        CFI (cfiCond54) DPL0 load(1, XDATA, add(CFA_XSP16, literal(-2)))
        CFI (cfiCond54) DPH0 load(1, XDATA, add(CFA_XSP16, literal(-1)))
        CFI (cfiCond54) CFA_SP SP+0
        CFI (cfiCond54) CFA_XSP16 add(XSP16, 15)
        CFI Block cfiCond55 Using cfiCommon0
        CFI (cfiCond55) NoFunction
        CFI (cfiCond55) Conditional ??CrossCallReturnLabel_20
        CFI (cfiCond55) R6 load(1, XDATA, add(CFA_XSP16, literal(-12)))
        CFI (cfiCond55) VB load(1, XDATA, add(CFA_XSP16, literal(-11)))
        CFI (cfiCond55) V0 load(1, XDATA, add(CFA_XSP16, literal(-10)))
        CFI (cfiCond55) V1 load(1, XDATA, add(CFA_XSP16, literal(-9)))
        CFI (cfiCond55) V2 load(1, XDATA, add(CFA_XSP16, literal(-8)))
        CFI (cfiCond55) V3 load(1, XDATA, add(CFA_XSP16, literal(-7)))
        CFI (cfiCond55) R7 load(1, XDATA, add(CFA_XSP16, literal(-6)))
        CFI (cfiCond55) ?RET_LOW load(1, XDATA, add(CFA_XSP16, literal(-5)))
        CFI (cfiCond55) ?RET_HIGH load(1, XDATA, add(CFA_XSP16, literal(-4)))
        CFI (cfiCond55) ?BRET_EXT load(1, XDATA, add(CFA_XSP16, literal(-3)))
        CFI (cfiCond55) DPL0 load(1, XDATA, add(CFA_XSP16, literal(-2)))
        CFI (cfiCond55) DPH0 load(1, XDATA, add(CFA_XSP16, literal(-1)))
        CFI (cfiCond55) CFA_SP SP+0
        CFI (cfiCond55) CFA_XSP16 add(XSP16, 12)
        CFI Block cfiPicker56 Using cfiCommon1
        CFI (cfiPicker56) NoFunction
        CFI (cfiPicker56) Picker
        MOVX    A,@DPTR
        MOV     R2,A
        INC     DPTR
        MOVX    A,@DPTR
        MOV     R3,A
        RET
        CFI EndBlock cfiCond51
        CFI EndBlock cfiCond52
        CFI EndBlock cfiCond53
        CFI EndBlock cfiCond54
        CFI EndBlock cfiCond55
        CFI EndBlock cfiPicker56
//  727 #endif
//  728 
//  729 

        RSEG BANKED_CODE:CODE:NOROOT(0)
//  730 void PermitJoin_Refresh(uint8 *data, uint8 length)
PermitJoin_Refresh:
        CFI Block cfiBlock57 Using cfiCommon0
        CFI Function PermitJoin_Refresh
        CODE
//  731 {
        FUNCALL PermitJoin_Refresh, memcpy
        LOCFRAME ISTACK, 0, STACK
        LOCFRAME PSTACK, 0, STACK
        LOCFRAME XSTACK, 61, STACK
        LOCFRAME IOVERLAY, 0, STATIC
        LOCFRAME DOVERLAY, 0, STATIC
        ARGFRAME ISTACK, 0, STACK
        ARGFRAME PSTACK, 0, STACK
        ARGFRAME XSTACK, 61, STACK
        ARGFRAME IOVERLAY, 0, STATIC
        ARGFRAME DOVERLAY, 0, STATIC
        FUNCALL PermitJoin_Refresh, memcpy
        LOCFRAME ISTACK, 0, STACK
        LOCFRAME PSTACK, 0, STACK
        LOCFRAME XSTACK, 61, STACK
        LOCFRAME IOVERLAY, 0, STATIC
        LOCFRAME DOVERLAY, 0, STATIC
        ARGFRAME ISTACK, 0, STACK
        ARGFRAME PSTACK, 0, STACK
        ARGFRAME XSTACK, 61, STACK
        ARGFRAME IOVERLAY, 0, STATIC
        ARGFRAME DOVERLAY, 0, STATIC
        FUNCALL PermitJoin_Refresh, memcpy
        LOCFRAME ISTACK, 0, STACK
        LOCFRAME PSTACK, 0, STACK
        LOCFRAME XSTACK, 61, STACK
        LOCFRAME IOVERLAY, 0, STATIC
        LOCFRAME DOVERLAY, 0, STATIC
        ARGFRAME ISTACK, 0, STACK
        ARGFRAME PSTACK, 0, STACK
        ARGFRAME XSTACK, 61, STACK
        ARGFRAME IOVERLAY, 0, STATIC
        ARGFRAME DOVERLAY, 0, STATIC
        FUNCALL PermitJoin_Refresh, memcpy
        LOCFRAME ISTACK, 0, STACK
        LOCFRAME PSTACK, 0, STACK
        LOCFRAME XSTACK, 61, STACK
        LOCFRAME IOVERLAY, 0, STATIC
        LOCFRAME DOVERLAY, 0, STATIC
        ARGFRAME ISTACK, 0, STACK
        ARGFRAME PSTACK, 0, STACK
        ARGFRAME XSTACK, 61, STACK
        ARGFRAME IOVERLAY, 0, STATIC
        ARGFRAME DOVERLAY, 0, STATIC
        FUNCALL PermitJoin_Refresh, CommonApp_SendTheMessage
        LOCFRAME ISTACK, 0, STACK
        LOCFRAME PSTACK, 0, STACK
        LOCFRAME XSTACK, 59, STACK
        LOCFRAME IOVERLAY, 0, STATIC
        LOCFRAME DOVERLAY, 0, STATIC
        ARGFRAME ISTACK, 0, STACK
        ARGFRAME PSTACK, 0, STACK
        ARGFRAME XSTACK, 59, STACK
        ARGFRAME IOVERLAY, 0, STATIC
        ARGFRAME DOVERLAY, 0, STATIC
        MOV     A,#-0xb
        LCALL   ?BANKED_ENTER_XDATA
        CFI DPH0 load(1, XDATA, add(CFA_XSP16, literal(-1)))
        CFI DPL0 load(1, XDATA, add(CFA_XSP16, literal(-2)))
        CFI ?BRET_EXT load(1, XDATA, add(CFA_XSP16, literal(-3)))
        CFI ?RET_HIGH load(1, XDATA, add(CFA_XSP16, literal(-4)))
        CFI ?RET_LOW load(1, XDATA, add(CFA_XSP16, literal(-5)))
        CFI R7 load(1, XDATA, add(CFA_XSP16, literal(-6)))
        CFI V2 load(1, XDATA, add(CFA_XSP16, literal(-7)))
        CFI V1 load(1, XDATA, add(CFA_XSP16, literal(-8)))
        CFI V0 load(1, XDATA, add(CFA_XSP16, literal(-9)))
        CFI VB load(1, XDATA, add(CFA_XSP16, literal(-10)))
        CFI R6 load(1, XDATA, add(CFA_XSP16, literal(-11)))
        CFI CFA_SP SP+0
        CFI CFA_XSP16 add(XSP16, 11)
        ; Saved register size: 11
        ; Auto size: 48
        MOV     A,#-0x30
        LCALL   ?ALLOC_XSTACK8
        CFI CFA_XSP16 add(XSP16, 59)
        MOV     A,R2
        MOV     R6,A
        MOV     A,R3
        MOV     R7,A
        MOV     ?V0 + 2,R1
//  732     uint8 buf[48] = {0};
        MOV     DPL,?XSP + 0
        MOV     DPH,?XSP + 1
        MOV     R4,DPL
        MOV     R5,DPH
        MOV     DPH,#(`?<Constant {0}>_1` >> 8) & 0xff
        MOV     DPL,#`?<Constant {0}>_1` & 0xff
        MOV     A,#0x30
        LCALL   ?MOVE_LONG8_XDATA_XDATA
//  733 	memcpy(buf, FR_HEAD_UJ, 3);
        ; Setup parameters for call to function memcpy
        MOV     ?V0 + 0,#0x3
        MOV     ?V0 + 1,A
        MOV     R0,#?V0 + 0
        LCALL   ?PUSH_XSTACK_I_TWO
        CFI CFA_XSP16 add(XSP16, 61)
        MOV     R4,#`?<Constant "UJ:">` & 0xff
        MOV     R5,#(`?<Constant "UJ:">` >> 8) & 0xff
        MOV     A,#0x2
        LCALL   ?XSTACK_DISP0_8
        LCALL   ?Subroutine9 & 0xFFFF
??CrossCallReturnLabel_12:
        LCALL   ?DEALLOC_XSTACK8
        CFI CFA_XSP16 add(XSP16, 59)
//  734 	memcpy(buf+3, SHORT_ADDR_G, 4);
        ; Setup parameters for call to function memcpy
        MOV     ?V0 + 0,#0x4
        MOV     R0,#?V0 + 0
        LCALL   ?PUSH_XSTACK_I_TWO
        CFI CFA_XSP16 add(XSP16, 61)
        MOV     R4,#SHORT_ADDR_G & 0xff
        MOV     R5,#(SHORT_ADDR_G >> 8) & 0xff
        MOV     A,#0x5
        LCALL   ?XSTACK_DISP0_8
        LCALL   ?Subroutine9 & 0xFFFF
??CrossCallReturnLabel_13:
        LCALL   ?DEALLOC_XSTACK8
        CFI CFA_XSP16 add(XSP16, 59)
//  735 	memcpy(buf+7, data, length);
        ; Setup parameters for call to function memcpy
        MOV     ?V0 + 0,?V0 + 2
        MOV     R0,#?V0 + 0
        LCALL   ?PUSH_XSTACK_I_TWO
        CFI CFA_XSP16 add(XSP16, 61)
        MOV     A,R6
        MOV     R4,A
        MOV     A,R7
        MOV     R5,A
        MOV     A,#0x9
        LCALL   ?XSTACK_DISP0_8
        LCALL   ?Subroutine9 & 0xFFFF
??CrossCallReturnLabel_14:
        LCALL   ?DEALLOC_XSTACK8
        CFI CFA_XSP16 add(XSP16, 59)
//  736 	memcpy(buf+7+length, f_tail, 4);
        ; Setup parameters for call to function memcpy
        MOV     ?V0 + 0,#0x4
        MOV     R0,#?V0 + 0
        LCALL   ?PUSH_XSTACK_I_TWO
        CFI CFA_XSP16 add(XSP16, 61)
        MOV     R4,#f_tail & 0xff
        MOV     R5,#(f_tail >> 8) & 0xff
        MOV     ?V0 + 0,?V0 + 2
        MOV     A,#0x2
        LCALL   ?XSTACK_DISP0_8
        MOV     A,DPL
        ADD     A,?V0 + 0
        MOV     R0,A
        MOV     A,DPH
        ADDC    A,#0x0
        MOV     R1,A
        MOV     A,R0
        ADD     A,#0x7
        MOV     R2,A
        MOV     A,R1
        ADDC    A,#0x0
        MOV     R3,A
        LCALL   ??Subroutine11_0 & 0xFFFF
??CrossCallReturnLabel_15:
        LCALL   ?DEALLOC_XSTACK8
        CFI CFA_XSP16 add(XSP16, 59)
//  737 	
//  738 #ifdef SSA_CONNECTOR
//  739 	CommonApp_GetDevDataSend(buf, 11+length);
//  740 #else
//  741 	CommonApp_SendTheMessage(COORDINATOR_ADDR, buf, 11+length);
        ; Setup parameters for call to function CommonApp_SendTheMessage
        MOV     A,#0xb
        ADD     A,?V0 + 2
        MOV     R1,A
        MOV     DPL,?XSP + 0
        MOV     DPH,?XSP + 1
        MOV     R4,DPL
        MOV     R5,DPH
        MOV     R2,#0x0
        MOV     R3,#0x0
        LCALL   ??CommonApp_SendTheMessage?relay
//  742 #endif
//  743 }
        MOV     A,#0x30
        LJMP    ?Subroutine4 & 0xFFFF
        CFI EndBlock cfiBlock57
//  744 

        RSEG XDATA_Z:XDATA:NOROOT(0)
        DATA8
//  745 bool isPermitJoining = 0;
isPermitJoining:
        DS 1
        REQUIRE __INIT_XDATA_Z
//  746 #ifdef RTR_NWK
//  747 void CommonApp_PermitJoiningLedIndicate(
//  748 				void *params, uint16 *duration, uint8 *count)
//  749 {
//  750 	uint8 mode = (int)params;
//  751 	switch(mode)
//  752 	{
//  753 	case HAL_LED_MODE_ON:
//  754 		isPermitJoining = TRUE;
//  755 #if (defined(HAL_MT7620_GPIO_MAP) && !(DEVICE_TYPE_ID==0xF0))  || (DEVICE_TYPE_ID==13)
//  756 		HalLedSet( HAL_LED_2,  mode);
//  757 #else
//  758 		HalLedSet( HAL_LED_1,  mode);
//  759 #endif
//  760 		break;
//  761 
//  762 	case HAL_LED_MODE_OFF:
//  763 		isPermitJoining = FALSE;
//  764 #if (defined(HAL_MT7620_GPIO_MAP) && !(DEVICE_TYPE_ID==0xF0))  || (DEVICE_TYPE_ID==13)
//  765 		HalLedSet( HAL_LED_2,  mode);
//  766 #else
//  767 		HalLedSet( HAL_LED_1,  mode);
//  768 #endif
//  769 		break;
//  770 	}
//  771 }
//  772 #endif
//  773 

        RSEG BANKED_CODE:CODE:NOROOT(0)
//  774 ZStatus_t CommonApp_PermitJoiningRequest( byte PermitDuration )
CommonApp_PermitJoiningRequest:
        CFI Block cfiBlock58 Using cfiCommon0
        CFI Function CommonApp_PermitJoiningRequest
        CODE
//  775 {
        ; Saved register size: 0
        ; Auto size: 0
//  776 #ifdef RTR_NWK
//  777 	if(PermitDuration)
//  778 	{
//  779 		CommonApp_PermitJoiningLedIndicate( (void *)HAL_LED_MODE_ON, NULL, NULL );
//  780 		
//  781 		update_user_event(CommonApp_TaskID, PERMIT_JOIN_EVT, 
//  782 							CommonApp_PermitJoiningLedIndicate, 
//  783 	  						PermitDuration*1000, TIMER_ONE_EXECUTION, 
//  784 	  						(void *)HAL_LED_MODE_OFF);
//  785 	}
//  786 	else
//  787 	{
//  788 		CommonApp_PermitJoiningLedIndicate( (void *)HAL_LED_MODE_OFF, NULL, NULL );
//  789 
//  790 		update_user_event(CommonApp_TaskID, PERMIT_JOIN_EVT, 
//  791 				NULL, TIMER_NO_LIMIT, TIMER_CLEAR_EXECUTION, NULL);
//  792 	}
//  793 
//  794 	return NLME_PermitJoiningRequest(PermitDuration);
//  795 #else 
//  796 	return 0;
        MOV     R1,#0x0
        LJMP    ?BRET
        CFI EndBlock cfiBlock58
//  797 #endif
//  798 }
//  799 
//  800 /*********************************************************************
//  801  * @fn      CommonApp_SendTheMessage
//  802  *
//  803  * @brief   Send "the" message.
//  804  *
//  805  * @param   none
//  806  *
//  807  * @return  none
//  808  */

        RSEG BANKED_CODE:CODE:NOROOT(0)
//  809 void CommonApp_SendTheMessage(uint16 dstNwkAddr, uint8 *data, uint8 length)
CommonApp_SendTheMessage:
        CFI Block cfiBlock59 Using cfiCommon0
        CFI Function CommonApp_SendTheMessage
        CODE
//  810 {
        FUNCALL CommonApp_SendTheMessage, AF_DataRequest
        LOCFRAME ISTACK, 0, STACK
        LOCFRAME PSTACK, 0, STACK
        LOCFRAME XSTACK, 19, STACK
        LOCFRAME IOVERLAY, 0, STATIC
        LOCFRAME DOVERLAY, 0, STATIC
        ARGFRAME ISTACK, 0, STACK
        ARGFRAME PSTACK, 0, STACK
        ARGFRAME XSTACK, 19, STACK
        ARGFRAME IOVERLAY, 0, STATIC
        ARGFRAME DOVERLAY, 0, STATIC
        MOV     A,#-0xa
        LCALL   ?BANKED_ENTER_XDATA
        CFI DPH0 load(1, XDATA, add(CFA_XSP16, literal(-1)))
        CFI DPL0 load(1, XDATA, add(CFA_XSP16, literal(-2)))
        CFI ?BRET_EXT load(1, XDATA, add(CFA_XSP16, literal(-3)))
        CFI ?RET_HIGH load(1, XDATA, add(CFA_XSP16, literal(-4)))
        CFI ?RET_LOW load(1, XDATA, add(CFA_XSP16, literal(-5)))
        CFI R7 load(1, XDATA, add(CFA_XSP16, literal(-6)))
        CFI V1 load(1, XDATA, add(CFA_XSP16, literal(-7)))
        CFI V0 load(1, XDATA, add(CFA_XSP16, literal(-8)))
        CFI VB load(1, XDATA, add(CFA_XSP16, literal(-9)))
        CFI R6 load(1, XDATA, add(CFA_XSP16, literal(-10)))
        CFI CFA_SP SP+0
        CFI CFA_XSP16 add(XSP16, 10)
        ; Saved register size: 10
        ; Auto size: 0
        MOV     A,R1
        MOV     R6,A
//  811 
//  812   CommonApp_DstAddr.addrMode = (afAddrMode_t)Addr16Bit;
        MOV     DPTR,#CommonApp_DstAddr + 8
        MOV     A,#0x2
        MOVX    @DPTR,A
//  813   CommonApp_DstAddr.endPoint = COMMONAPP_ENDPOINT;
        INC     DPTR
        MOV     A,#0x10
        MOVX    @DPTR,A
//  814   CommonApp_DstAddr.addr.shortAddr = dstNwkAddr;
        MOV     DPTR,#CommonApp_DstAddr
        MOV     A,R2
        MOVX    @DPTR,A
        INC     DPTR
        MOV     A,R3
        MOVX    @DPTR,A
//  815   
//  816   AF_DataRequest( &CommonApp_DstAddr, &CommonApp_epDesc,
//  817                        COMMONAPP_CLUSTERID,
//  818                        length,
//  819                        data,
//  820                        &CommonApp_TransID,
//  821                        AF_DISCV_ROUTE, AF_DEFAULT_RADIUS );
        ; Setup parameters for call to function AF_DataRequest
        MOV     ?V0 + 0,#0x1e
        MOV     R0,#?V0 + 0
        LCALL   ?PUSH_XSTACK_I_ONE
        CFI CFA_XSP16 add(XSP16, 11)
        MOV     ?V0 + 0,#CommonApp_TransID & 0xff
        MOV     ?V0 + 1,#(CommonApp_TransID >> 8) & 0xff
        MOV     R0,#?V0 + 0
        LCALL   ?PUSH_XSTACK_I_TWO
        CFI CFA_XSP16 add(XSP16, 13)
        MOV     ?V0 + 0,R4
        MOV     ?V0 + 1,R5
        MOV     R0,#?V0 + 0
        LCALL   ?PUSH_XSTACK_I_TWO
        CFI CFA_XSP16 add(XSP16, 15)
        MOV     ?V0 + 0,R6
        MOV     ?V0 + 1,#0x0
        MOV     R0,#?V0 + 0
        LCALL   ?PUSH_XSTACK_I_TWO
        CFI CFA_XSP16 add(XSP16, 17)
        MOV     ?V0 + 0,#0x1
        MOV     R0,#?V0 + 0
        LCALL   ?PUSH_XSTACK_I_TWO
        CFI CFA_XSP16 add(XSP16, 19)
        MOV     R1,#0x20
        MOV     R4,#CommonApp_epDesc & 0xff
        MOV     R5,#(CommonApp_epDesc >> 8) & 0xff
        MOV     R2,#CommonApp_DstAddr & 0xff
        MOV     R3,#(CommonApp_DstAddr >> 8) & 0xff
        LCALL   ??AF_DataRequest?relay
        MOV     A,#0x9
        LJMP    ?Subroutine1 & 0xFFFF
        CFI EndBlock cfiBlock59
//  822 }
//  823 

        RSEG BANKED_CODE:CODE:NOROOT(0)
//  824 void CommonApp_GetDevDataSend(uint8 *buf, uint16 len)
CommonApp_GetDevDataSend:
        CFI Block cfiBlock60 Using cfiCommon0
        CFI Function CommonApp_GetDevDataSend
        CODE
//  825 {
        FUNCALL CommonApp_GetDevDataSend, HalUARTWrite
        LOCFRAME ISTACK, 2, STACK
        LOCFRAME PSTACK, 0, STACK
        LOCFRAME XSTACK, 0, STACK
        LOCFRAME IOVERLAY, 0, STATIC
        LOCFRAME DOVERLAY, 0, STATIC
        ARGFRAME ISTACK, 2, STACK
        ARGFRAME PSTACK, 0, STACK
        ARGFRAME XSTACK, 0, STACK
        ARGFRAME IOVERLAY, 0, STATIC
        ARGFRAME DOVERLAY, 0, STATIC
        PUSH    DPL
        CFI DPL0 Frame(CFA_SP, 4)
        CFI CFA_SP SP+-4
        PUSH    DPH
        CFI DPH0 Frame(CFA_SP, 5)
        CFI CFA_SP SP+-5
        ; Saved register size: 2
        ; Auto size: 0
//  826 #if (HAL_UART==TRUE)
//  827   #ifndef HAL_UART01_BOTH
//  828         
//  829 	HalUARTWrite(SERIAL_COM_PORT, buf, len);
        ; Setup parameters for call to function HalUARTWrite
        MOV     R1,#0x0
        LCALL   ??HalUARTWrite?relay
//  830   #else
//  831   	HalUARTWrite(SERIAL_COM_PORT1, buf, len);
//  832   #endif
//  833 #endif
//  834 }
        LJMP    ?Subroutine2 & 0xFFFF
        CFI EndBlock cfiBlock60
//  835 

        RSEG BANKED_CODE:CODE:NOROOT(0)
//  836 void RS485_GetDevDataSend(uint8 *buf, uint16 len)
RS485_GetDevDataSend:
        CFI Block cfiBlock61 Using cfiCommon0
        CFI Function RS485_GetDevDataSend
        CODE
//  837 {
        FUNCALL RS485_GetDevDataSend, osal_memcpy
        LOCFRAME ISTACK, 0, STACK
        LOCFRAME PSTACK, 0, STACK
        LOCFRAME XSTACK, 78, STACK
        LOCFRAME IOVERLAY, 0, STATIC
        LOCFRAME DOVERLAY, 0, STATIC
        ARGFRAME ISTACK, 0, STACK
        ARGFRAME PSTACK, 0, STACK
        ARGFRAME XSTACK, 78, STACK
        ARGFRAME IOVERLAY, 0, STATIC
        ARGFRAME DOVERLAY, 0, STATIC
        FUNCALL RS485_GetDevDataSend, osal_mem_alloc
        LOCFRAME ISTACK, 0, STACK
        LOCFRAME PSTACK, 0, STACK
        LOCFRAME XSTACK, 75, STACK
        LOCFRAME IOVERLAY, 0, STATIC
        LOCFRAME DOVERLAY, 0, STATIC
        ARGFRAME ISTACK, 0, STACK
        ARGFRAME PSTACK, 0, STACK
        ARGFRAME XSTACK, 75, STACK
        ARGFRAME IOVERLAY, 0, STATIC
        ARGFRAME DOVERLAY, 0, STATIC
        FUNCALL RS485_GetDevDataSend, setNodeList
        LOCFRAME ISTACK, 0, STACK
        LOCFRAME PSTACK, 0, STACK
        LOCFRAME XSTACK, 75, STACK
        LOCFRAME IOVERLAY, 0, STATIC
        LOCFRAME DOVERLAY, 0, STATIC
        ARGFRAME ISTACK, 0, STACK
        ARGFRAME PSTACK, 0, STACK
        ARGFRAME XSTACK, 75, STACK
        ARGFRAME IOVERLAY, 0, STATIC
        ARGFRAME DOVERLAY, 0, STATIC
        FUNCALL RS485_GetDevDataSend, HalUARTWrite
        LOCFRAME ISTACK, 0, STACK
        LOCFRAME PSTACK, 0, STACK
        LOCFRAME XSTACK, 75, STACK
        LOCFRAME IOVERLAY, 0, STATIC
        LOCFRAME DOVERLAY, 0, STATIC
        ARGFRAME ISTACK, 0, STACK
        ARGFRAME PSTACK, 0, STACK
        ARGFRAME XSTACK, 75, STACK
        ARGFRAME IOVERLAY, 0, STATIC
        ARGFRAME DOVERLAY, 0, STATIC
        MOV     A,#-0xb
        LCALL   ?BANKED_ENTER_XDATA
        CFI DPH0 load(1, XDATA, add(CFA_XSP16, literal(-1)))
        CFI DPL0 load(1, XDATA, add(CFA_XSP16, literal(-2)))
        CFI ?BRET_EXT load(1, XDATA, add(CFA_XSP16, literal(-3)))
        CFI ?RET_HIGH load(1, XDATA, add(CFA_XSP16, literal(-4)))
        CFI ?RET_LOW load(1, XDATA, add(CFA_XSP16, literal(-5)))
        CFI R7 load(1, XDATA, add(CFA_XSP16, literal(-6)))
        CFI V2 load(1, XDATA, add(CFA_XSP16, literal(-7)))
        CFI V1 load(1, XDATA, add(CFA_XSP16, literal(-8)))
        CFI V0 load(1, XDATA, add(CFA_XSP16, literal(-9)))
        CFI VB load(1, XDATA, add(CFA_XSP16, literal(-10)))
        CFI R6 load(1, XDATA, add(CFA_XSP16, literal(-11)))
        CFI CFA_SP SP+0
        CFI CFA_XSP16 add(XSP16, 11)
        ; Saved register size: 11
        ; Auto size: 64
        MOV     A,#-0x40
        LCALL   ?ALLOC_XSTACK8
        CFI CFA_XSP16 add(XSP16, 75)
//  838   uint8 data_buf[64];
//  839   uint8 lenght = len;
//  840   
//  841   if(lenght==3)
        MOV     A,R4
        XRL     A,#0x3
        JNZ     ??RS485_GetDevDataSend_0
//  842   {
//  843    //Ω´…Ë±∏–≈œ¢ÃÌº”µΩLIST÷–,◊Ó∫Û“ªŒª”––ß
//  844     osal_memcpy(data_buf,buf,len);
        ; Setup parameters for call to function osal_memcpy
        MOV     ?V0 + 0,R2
        MOV     ?V0 + 1,R3
        MOV     ?V0 + 2,#0x0
        MOV     R0,#?V0 + 0
        LCALL   ?PUSH_XSTACK_I_THREE
        CFI CFA_XSP16 add(XSP16, 78)
        MOV     A,#0x3
        LCALL   ?XSTACK_DISP0_8
        MOV     R2,DPL
        MOV     R3,DPH
        LCALL   ??osal_memcpy?relay
        MOV     A,#0x3
        LCALL   ?DEALLOC_XSTACK8
        CFI CFA_XSP16 add(XSP16, 75)
//  845     //HalUARTWrite(SERIAL_COM_PORT,data_buf,3);
//  846     Node *node1 = (Node*)osal_mem_alloc(sizeof(Node));
        ; Setup parameters for call to function osal_mem_alloc
        MOV     R2,#0x5
        MOV     R3,#0x0
        LCALL   ??osal_mem_alloc?relay
//  847     node1->short_dev=(uint16)(data_buf[0])<<8 | (uint16)data_buf[1];
        MOV     DPL,?XSP + 0
        MOV     DPH,?XSP + 1
        MOVX    A,@DPTR
        MOV     R1,A
        MOV     A,#0x1
        LCALL   ?XSTACK_DISP0_8
        MOVX    A,@DPTR
        MOV     DPL,R2
        MOV     DPH,R3
        MOVX    @DPTR,A
        INC     DPTR
        MOV     A,R1
        MOVX    @DPTR,A
//  848     node1->addr_dev=data_buf[2];
        MOV     A,#0x2
        LCALL   ?XSTACK_DISP0_8
        MOVX    A,@DPTR
        MOV     DPL,R2
        MOV     DPH,R3
        INC     DPTR
        INC     DPTR
        MOVX    @DPTR,A
//  849     setNodeList(node1);
        ; Setup parameters for call to function setNodeList
        LCALL   ??setNodeList?relay
        SJMP    ??RS485_GetDevDataSend_1
//  850   }
//  851   else
//  852   HalUARTWrite(SERIAL_COM_PORT, buf, len);  
??RS485_GetDevDataSend_0:
        ; Setup parameters for call to function HalUARTWrite
        MOV     R1,#0x0
        LCALL   ??HalUARTWrite?relay
//  853 }
??RS485_GetDevDataSend_1:
        MOV     A,#0x40
        CFI EndBlock cfiBlock61
        REQUIRE ?Subroutine4
        ; // Fall through to label ?Subroutine4

        RSEG BANKED_CODE:CODE:NOROOT(0)
?Subroutine4:
        CFI Block cfiBlock62 Using cfiCommon0
        CFI NoFunction
        CFI CFA_SP SP+0
        CFI CFA_XSP16 add(XSP16, 32)
        CFI VB load(1, XDATA, add(CFA_XSP16, literal(-10)))
        CFI DPL0 load(1, XDATA, add(CFA_XSP16, literal(-2)))
        CFI DPH0 load(1, XDATA, add(CFA_XSP16, literal(-1)))
        CFI R6 load(1, XDATA, add(CFA_XSP16, literal(-11)))
        CFI R7 load(1, XDATA, add(CFA_XSP16, literal(-6)))
        CFI V0 load(1, XDATA, add(CFA_XSP16, literal(-9)))
        CFI V1 load(1, XDATA, add(CFA_XSP16, literal(-8)))
        CFI V2 load(1, XDATA, add(CFA_XSP16, literal(-7)))
        CFI ?BRET_EXT load(1, XDATA, add(CFA_XSP16, literal(-3)))
        CFI ?RET_HIGH load(1, XDATA, add(CFA_XSP16, literal(-4)))
        CFI ?RET_LOW load(1, XDATA, add(CFA_XSP16, literal(-5)))
        CFI Invalid
        LCALL   ?DEALLOC_XSTACK8
        CFI EndBlock cfiBlock62
        REQUIRE ??Subroutine13_0
        ; // Fall through to label ??Subroutine13_0

        RSEG BANKED_CODE:CODE:NOROOT(0)
??Subroutine13_0:
        CFI Block cfiBlock63 Using cfiCommon0
        CFI NoFunction
        CFI CFA_SP SP+0
        CFI CFA_XSP16 add(XSP16, 11)
        CFI VB load(1, XDATA, add(CFA_XSP16, literal(-10)))
        CFI DPL0 load(1, XDATA, add(CFA_XSP16, literal(-2)))
        CFI DPH0 load(1, XDATA, add(CFA_XSP16, literal(-1)))
        CFI R6 load(1, XDATA, add(CFA_XSP16, literal(-11)))
        CFI R7 load(1, XDATA, add(CFA_XSP16, literal(-6)))
        CFI V0 load(1, XDATA, add(CFA_XSP16, literal(-9)))
        CFI V1 load(1, XDATA, add(CFA_XSP16, literal(-8)))
        CFI V2 load(1, XDATA, add(CFA_XSP16, literal(-7)))
        CFI ?BRET_EXT load(1, XDATA, add(CFA_XSP16, literal(-3)))
        CFI ?RET_HIGH load(1, XDATA, add(CFA_XSP16, literal(-4)))
        CFI ?RET_LOW load(1, XDATA, add(CFA_XSP16, literal(-5)))
        MOV     R7,#0x3
        LJMP    ?BANKED_LEAVE_XDATA
        CFI EndBlock cfiBlock63

        RSEG XDATA_ID:CODE:NOROOT(0)
`?<Initializer for isFirstState>`:
        DATA8
        DB 1

        RSEG XDATA_ID:CODE:NOROOT(0)
`?<Initializer for isNotTimeOut>`:
        DATA8
        DB 1

        RSEG BANK_RELAYS:CODE:REORDER:NOROOT(0)
??CommonApp_Init?relay:
        LCALL   ?BDISPATCH
        DATA
        DC24    CommonApp_Init

        RSEG BANK_RELAYS:CODE:REORDER:NOROOT(0)
??CommonApp_ProcessEvent?relay:
        LCALL   ?BDISPATCH
        DATA
        DC24    CommonApp_ProcessEvent

        RSEG BANK_RELAYS:CODE:REORDER:NOROOT(0)
??CommonApp_PowerOnFactorySetting?relay:
        LCALL   ?BDISPATCH
        DATA
        DC24    CommonApp_PowerOnFactorySetting

        RSEG BANK_RELAYS:CODE:REORDER:NOROOT(0)
??CommonApp_PowerSettingCountCB?relay:
        LCALL   ?BDISPATCH
        DATA
        DC24    CommonApp_PowerSettingCountCB

        RSEG BANK_RELAYS:CODE:REORDER:NOROOT(0)
??CommonApp_HandleKeys?relay:
        LCALL   ?BDISPATCH
        DATA
        DC24    CommonApp_HandleKeys

        RSEG BANK_RELAYS:CODE:REORDER:NOROOT(0)
??CommonApp_GetDeviceInfo?relay:
        LCALL   ?BDISPATCH
        DATA
        DC24    CommonApp_GetDeviceInfo

        RSEG BANK_RELAYS:CODE:REORDER:NOROOT(0)
??CommonDevice_SetData?relay:
        LCALL   ?BDISPATCH
        DATA
        DC24    CommonDevice_SetData

        RSEG BANK_RELAYS:CODE:REORDER:NOROOT(0)
??CommonDevice_GetData?relay:
        LCALL   ?BDISPATCH
        DATA
        DC24    CommonDevice_GetData

        RSEG BANK_RELAYS:CODE:REORDER:NOROOT(0)
??CommonApp_CmdPeroidCB?relay:
        LCALL   ?BDISPATCH
        DATA
        DC24    CommonApp_CmdPeroidCB

        RSEG BANK_RELAYS:CODE:REORDER:NOROOT(0)
??DataCmd_Ctrl?relay:
        LCALL   ?BDISPATCH
        DATA
        DC24    DataCmd_Ctrl

        RSEG BANK_RELAYS:CODE:REORDER:NOROOT(0)
??Update_Refresh?relay:
        LCALL   ?BDISPATCH
        DATA
        DC24    Update_Refresh

        RSEG BANK_RELAYS:CODE:REORDER:NOROOT(0)
??PermitJoin_Refresh?relay:
        LCALL   ?BDISPATCH
        DATA
        DC24    PermitJoin_Refresh

        RSEG BANK_RELAYS:CODE:REORDER:NOROOT(0)
??CommonApp_PermitJoiningRequest?relay:
        LCALL   ?BDISPATCH
        DATA
        DC24    CommonApp_PermitJoiningRequest

        RSEG BANK_RELAYS:CODE:REORDER:NOROOT(0)
??CommonApp_SendTheMessage?relay:
        LCALL   ?BDISPATCH
        DATA
        DC24    CommonApp_SendTheMessage

        RSEG BANK_RELAYS:CODE:REORDER:NOROOT(0)
??CommonApp_GetDevDataSend?relay:
        LCALL   ?BDISPATCH
        DATA
        DC24    CommonApp_GetDevDataSend

        RSEG BANK_RELAYS:CODE:REORDER:NOROOT(0)
??RS485_GetDevDataSend?relay:
        LCALL   ?BDISPATCH
        DATA
        DC24    RS485_GetDevDataSend

        RSEG XDATA_ROM_C:CONST:REORDER:NOROOT(0)
        DATA8
`?<Constant {0}>`:
        DB 0
        DB 0, 0, 0, 0, 0, 0, 0, 0
        DB 0, 0, 0, 0, 0, 0, 0, 0
        DB 0, 0, 0, 0, 0, 0, 0, 0
        DB 0, 0, 0, 0, 0, 0, 0, 0
        DB 0, 0, 0, 0, 0, 0, 0, 0
        DB 0, 0, 0, 0, 0, 0, 0, 0
        DB 0, 0, 0, 0, 0, 0, 0, 0
        DB 0, 0, 0, 0, 0, 0, 0, 0
        DB 0, 0, 0, 0, 0, 0, 0, 0
        DB 0, 0, 0, 0, 0, 0, 0, 0
        DB 0, 0, 0, 0, 0, 0, 0, 0
        DB 0, 0, 0, 0, 0, 0, 0, 0
        DB 0, 0, 0, 0, 0, 0, 0, 0
        DB 0, 0, 0, 0, 0, 0, 0, 0
        DB 0, 0, 0, 0, 0, 0, 0, 0
        DB 0, 0, 0, 0, 0, 0, 0

        RSEG XDATA_ROM_C:CONST:REORDER:NOROOT(0)
        DATA32
`?<Constant "UR:">`:
        DB "UR:"

        RSEG XDATA_ROM_C:CONST:REORDER:NOROOT(0)
        DATA8
`?<Constant "FE">`:
        DB "FE"

        RSEG XDATA_ROM_C:CONST:REORDER:NOROOT(0)
        DATA8
`?<Constant {0}>_1`:
        DB 0
        DB 0, 0, 0, 0, 0, 0, 0, 0
        DB 0, 0, 0, 0, 0, 0, 0, 0
        DB 0, 0, 0, 0, 0, 0, 0, 0
        DB 0, 0, 0, 0, 0, 0, 0, 0
        DB 0, 0, 0, 0, 0, 0, 0, 0
        DB 0, 0, 0, 0, 0, 0, 0

        RSEG XDATA_ROM_C:CONST:REORDER:NOROOT(0)
        DATA32
`?<Constant "UJ:">`:
        DB "UJ:"

        END
// 
// 2 251 bytes in segment BANKED_CODE
//    96 bytes in segment BANK_RELAYS
//     1 byte  in segment SFR_AN
//     2 bytes in segment XDATA_I
//     2 bytes in segment XDATA_ID
//   203 bytes in segment XDATA_ROM_C
//    61 bytes in segment XDATA_Z
// 
// 2 349 bytes of CODE  memory
//   203 bytes of CONST memory
//     0 bytes of DATA  memory (+ 1 byte shared)
//    63 bytes of XDATA memory
//
//Errors: none
//Warnings: none
