///////////////////////////////////////////////////////////////////////////////
//                                                                            /
// IAR C/C++ Compiler V8.10.1.10194/W32 for 8051        24/Nov/2016  13:24:35 /
// Copyright 2004-2011 IAR Systems AB.                                        /
//                                                                            /
//    Core               =  plain                                             /
//    Code model         =  banked                                            /
//    Data model         =  large                                             /
//    Calling convention =  xdata reentrant                                   /
//    Constant location  =  data_rom                                          /
//    Dptr setup         =  1,16                                              /
//    Source file        =  E:\work\zigbee\ZStack-Smart-2.5.2b\Projects\zstac /
//                          k\Applications\SmartApp\Source\Device\DemoBase_De /
//                          viceDataCtrl.c                                    /
//    Command line       =  -f E:\work\zigbee\ZStack-Smart-2.5.2b\Projects\zs /
//                          tack\Applications\SmartApp\CC2530DB\Devices\..\.. /
//                          \..\..\Tools\CC2530DB\f8wEndev.cfg (-DCPU32MHZ    /
//                          -DROOT=__near_func -DMAC_CFG_TX_DATA_MAX=3        /
//                          -DMAC_CFG_TX_MAX=6 -DMAC_CFG_RX_MAX=3             /
//                          -DSSA_ENDNODE) -f E:\work\zigbee\ZStack-Smart-2.5 /
//                          .2b\Projects\zstack\Applications\SmartApp\CC2530D /
//                          B\Devices\..\..\..\..\Tools\CC2530DB\f8wConfig.cf /
//                          g (-DZIGBEEPRO -DSECURE=1 -DZG_SECURE_DYNAMIC=1   /
//                          -DREFLECTOR -DDEFAULT_CHANLIST=0x00000800         /
//                          -DZDAPP_CONFIG_PAN_ID=0xFFFF                      /
//                          -DNWK_START_DELAY=100 -DEXTENDED_JOINING_RANDOM_M /
//                          ASK=0x007F -DBEACON_REQUEST_DELAY=100             /
//                          -DBEACON_REQ_DELAY_MASK=0x00FF                    /
//                          -DLINK_STATUS_JITTER_MASK=0x007F                  /
//                          -DROUTE_EXPIRY_TIME=30 -DAPSC_ACK_WAIT_DURATION_P /
//                          OLLED=3000 -DNWK_INDIRECT_MSG_TIMEOUT=7           /
//                          -DMAX_RREQ_ENTRIES=8 -DAPSC_MAX_FRAME_RETRIES=3   /
//                          -DNWK_MAX_DATA_RETRIES=2                          /
//                          -DMAX_POLL_FAILURE_RETRIES=2 -DMAX_BCAST=9        /
//                          -DAPS_MAX_GROUPS=16 -DMAX_RTG_ENTRIES=40          /
//                          -DNWK_MAX_BINDING_ENTRIES=4                       /
//                          -DMAX_BINDING_CLUSTER_IDS=4                       /
//                          "-DDEFAULT_KEY={0x01, 0x03, 0x05, 0x07, 0x09,     /
//                          0x0B, 0x0D, 0x0F, 0x00, 0x02, 0x04, 0x06, 0x08,   /
//                          0x0A, 0x0C, 0x0D}" -DMAC_MAX_FRAME_SIZE=116       /
//                          -DZDNWKMGR_MIN_TRANSMISSIONS=20 "-DCONST=const    /
//                          __code" -DGENERIC=__generic                       /
//                          -DRFD_RCVC_ALWAYS_ON=FALSE -DPOLL_RATE=600        /
//                          -DQUEUED_POLL_RATE=100 -DRESPONSE_POLL_RATE=100)  /
//                          -DREJOIN_POLL_RATE=440 E:\work\zigbee\ZStack-Smar /
//                          t-2.5.2b\Projects\zstack\Applications\SmartApp\So /
//                          urce\Device\DemoBase_DeviceDataCtrl.c -D          /
//                          SECURE=1 -D ZTOOL_P1 -D DEVICE_TYPE_ID=0xFE -D    /
//                          SIGNAL_AMPLIFIER_SETTING -D xNWK_AUTO_POLL -D     /
//                          xHAL_UART_DMA=2 -D xHAL_UART_DMA_ALT1 -D          /
//                          xJIAJU_BUILDIN -D MT_TASK -D MT_SYS_FUNC -D       /
//                          MT_ZDO_FUNC -D NV_INIT -D NV_RESTORE -lC          /
//                          E:\work\zigbee\ZStack-Smart-2.5.2b\Projects\zstac /
//                          k\Applications\SmartApp\CC2530DB\bin\DemoBaseZD\L /
//                          ist\ -lA E:\work\zigbee\ZStack-Smart-2.5.2b\Proje /
//                          cts\zstack\Applications\SmartApp\CC2530DB\bin\Dem /
//                          oBaseZD\List\ --diag_suppress Pe001,Pa010 -o      /
//                          E:\work\zigbee\ZStack-Smart-2.5.2b\Projects\zstac /
//                          k\Applications\SmartApp\CC2530DB\bin\DemoBaseZD\O /
//                          bj\ -e --debug --core=plain --dptr=16,1           /
//                          --data_model=large --code_model=banked            /
//                          --calling_convention=xdata_reentrant              /
//                          --place_constants=data_rom --nr_virtual_regs 16   /
//                          -I E:\work\zigbee\ZStack-Smart-2.5.2b\Projects\zs /
//                          tack\Applications\SmartApp\CC2530DB\Devices\ -I   /
//                          E:\work\zigbee\ZStack-Smart-2.5.2b\Projects\zstac /
//                          k\Applications\SmartApp\CC2530DB\Devices\..\..\So /
//                          urce\Common\ -I E:\work\zigbee\ZStack-Smart-2.5.2 /
//                          b\Projects\zstack\Applications\SmartApp\CC2530DB\ /
//                          Devices\..\..\Source\Connector\ -I                /
//                          E:\work\zigbee\ZStack-Smart-2.5.2b\Projects\zstac /
//                          k\Applications\SmartApp\CC2530DB\Devices\..\..\So /
//                          urce\\EndNode\ -I E:\work\zigbee\ZStack-Smart-2.5 /
//                          .2b\Projects\zstack\Applications\SmartApp\CC2530D /
//                          B\Devices\..\..\Source\Board\ -I                  /
//                          E:\work\zigbee\ZStack-Smart-2.5.2b\Projects\zstac /
//                          k\Applications\SmartApp\CC2530DB\Devices\..\..\So /
//                          urce\Manage\ -I E:\work\zigbee\ZStack-Smart-2.5.2 /
//                          b\Projects\zstack\Applications\SmartApp\CC2530DB\ /
//                          Devices\..\..\Source\Manage\Callbacks\ -I         /
//                          E:\work\zigbee\ZStack-Smart-2.5.2b\Projects\zstac /
//                          k\Applications\SmartApp\CC2530DB\Devices\..\..\So /
//                          urce\Manage\debug\ -I E:\work\zigbee\ZStack-Smart /
//                          -2.5.2b\Projects\zstack\Applications\SmartApp\CC2 /
//                          530DB\Devices\..\..\Source\Manage\HeartBeat\ -I   /
//                          E:\work\zigbee\ZStack-Smart-2.5.2b\Projects\zstac /
//                          k\Applications\SmartApp\CC2530DB\Devices\..\..\So /
//                          urce\Manage\incode\ -I E:\work\zigbee\ZStack-Smar /
//                          t-2.5.2b\Projects\zstack\Applications\SmartApp\CC /
//                          2530DB\Devices\..\..\..\..\ZMain\TI2530DB\ -I     /
//                          E:\work\zigbee\ZStack-Smart-2.5.2b\Projects\zstac /
//                          k\Applications\SmartApp\CC2530DB\Devices\..\..\.. /
//                          \..\..\..\Components\hal\include\ -I              /
//                          E:\work\zigbee\ZStack-Smart-2.5.2b\Projects\zstac /
//                          k\Applications\SmartApp\CC2530DB\Devices\..\..\.. /
//                          \..\..\..\Components\hal\target\CC2530EB\ -I      /
//                          E:\work\zigbee\ZStack-Smart-2.5.2b\Projects\zstac /
//                          k\Applications\SmartApp\CC2530DB\Devices\..\..\.. /
//                          \..\..\..\Components\mac\include\ -I              /
//                          E:\work\zigbee\ZStack-Smart-2.5.2b\Projects\zstac /
//                          k\Applications\SmartApp\CC2530DB\Devices\..\..\.. /
//                          \..\..\..\Components\mac\high_level\ -I           /
//                          E:\work\zigbee\ZStack-Smart-2.5.2b\Projects\zstac /
//                          k\Applications\SmartApp\CC2530DB\Devices\..\..\.. /
//                          \..\..\..\Components\mac\low_level\srf04\ -I      /
//                          E:\work\zigbee\ZStack-Smart-2.5.2b\Projects\zstac /
//                          k\Applications\SmartApp\CC2530DB\Devices\..\..\.. /
//                          \..\..\..\Components\mac\low_level\srf04\single_c /
//                          hip\ -I E:\work\zigbee\ZStack-Smart-2.5.2b\Projec /
//                          ts\zstack\Applications\SmartApp\CC2530DB\Devices\ /
//                          ..\..\..\..\..\..\Components\mt\ -I               /
//                          E:\work\zigbee\ZStack-Smart-2.5.2b\Projects\zstac /
//                          k\Applications\SmartApp\CC2530DB\Devices\..\..\.. /
//                          \..\..\..\Components\osal\include\ -I             /
//                          E:\work\zigbee\ZStack-Smart-2.5.2b\Projects\zstac /
//                          k\Applications\SmartApp\CC2530DB\Devices\..\..\.. /
//                          \..\..\..\Components\services\saddr\ -I           /
//                          E:\work\zigbee\ZStack-Smart-2.5.2b\Projects\zstac /
//                          k\Applications\SmartApp\CC2530DB\Devices\..\..\.. /
//                          \..\..\..\Components\services\sdata\ -I           /
//                          E:\work\zigbee\ZStack-Smart-2.5.2b\Projects\zstac /
//                          k\Applications\SmartApp\CC2530DB\Devices\..\..\.. /
//                          \..\..\..\Components\stack\af\ -I                 /
//                          E:\work\zigbee\ZStack-Smart-2.5.2b\Projects\zstac /
//                          k\Applications\SmartApp\CC2530DB\Devices\..\..\.. /
//                          \..\..\..\Components\stack\nwk\ -I                /
//                          E:\work\zigbee\ZStack-Smart-2.5.2b\Projects\zstac /
//                          k\Applications\SmartApp\CC2530DB\Devices\..\..\.. /
//                          \..\..\..\Components\stack\sapi\ -I               /
//                          E:\work\zigbee\ZStack-Smart-2.5.2b\Projects\zstac /
//                          k\Applications\SmartApp\CC2530DB\Devices\..\..\.. /
//                          \..\..\..\Components\stack\sec\ -I                /
//                          E:\work\zigbee\ZStack-Smart-2.5.2b\Projects\zstac /
//                          k\Applications\SmartApp\CC2530DB\Devices\..\..\.. /
//                          \..\..\..\Components\stack\sys\ -I                /
//                          E:\work\zigbee\ZStack-Smart-2.5.2b\Projects\zstac /
//                          k\Applications\SmartApp\CC2530DB\Devices\..\..\.. /
//                          \..\..\..\Components\stack\zdo\ -I                /
//                          E:\work\zigbee\ZStack-Smart-2.5.2b\Projects\zstac /
//                          k\Applications\SmartApp\CC2530DB\Devices\..\..\.. /
//                          \..\..\..\Components\zmac\ -I                     /
//                          E:\work\zigbee\ZStack-Smart-2.5.2b\Projects\zstac /
//                          k\Applications\SmartApp\CC2530DB\Devices\..\..\.. /
//                          \..\..\..\Components\zmac\f8w\ -Oh                /
//                          --require_prototypes                              /
//    List file          =  E:\work\zigbee\ZStack-Smart-2.5.2b\Projects\zstac /
//                          k\Applications\SmartApp\CC2530DB\bin\DemoBaseZD\L /
//                          ist\DemoBase_DeviceDataCtrl.s51                   /
//                                                                            /
//                                                                            /
///////////////////////////////////////////////////////////////////////////////

        NAME DemoBase_DeviceDataCtrl

        RTMODEL "__SystemLibrary", "CLib"
        RTMODEL "__calling_convention", "xdata_reentrant"
        RTMODEL "__code_model", "banked"
        RTMODEL "__core", "plain"
        RTMODEL "__data_model", "large"
        RTMODEL "__dptr_size", "16"
        RTMODEL "__extended_stack", "disabled"
        RTMODEL "__location_for_constants", "data"
        RTMODEL "__number_of_dptrs", "1"
        RTMODEL "__rt_version", "1"

        RSEG DOVERLAY:DATA:NOROOT(0)
        RSEG IOVERLAY:IDATA:NOROOT(0)
        RSEG ISTACK:IDATA:NOROOT(0)
        RSEG PSTACK:XDATA:NOROOT(0)
        RSEG XSTACK:XDATA:NOROOT(0)

        EXTERN ?ALLOC_XSTACK8
        EXTERN ?BANKED_ENTER_XDATA
        EXTERN ?BANKED_LEAVE_XDATA
        EXTERN ?BDISPATCH
        EXTERN ?BRET
        EXTERN ?DEALLOC_XSTACK8
        EXTERN ?L_MOV_TO_X
        EXTERN ?PUSH_XSTACK_I_ONE
        EXTERN ?PUSH_XSTACK_I_THREE
        EXTERN ?PUSH_XSTACK_I_TWO
        EXTERN ?R2345_FLT_TO_L
        EXTERN ?S_SHL
        EXTERN ?UL_TO_FLT
        EXTERN ?V0
        EXTERN ?XLOAD_R2345
        EXTERN ?XSP
        EXTERN ?XSTACK_DISP0_8
        EXTERN __INIT_XDATA_I
        EXTERN __INIT_XDATA_Z

        FUNCTION ??DemoBaseAirDetect_StatusCB?relay,0203H
        FUNCTION ??DemoBaseHumiture_StatusCB?relay,0203H
        FUNCTION ??DemoBaseLightDetect_StatusCB?relay,0203H
        FUNCTION ??DemoBaseRFID_QueryCB?relay,0203H
        FUNCTION ??DemoBaseRFID_StopBeeCB?relay,0203H
        PUBLIC ??HalDeviceInit?relay
        FUNCTION ??HalDeviceInit?relay,0203H
        PUBLIC ??HalStatesInit?relay
        FUNCTION ??HalStatesInit?relay,0203H
        FUNCTION ??get_airdetect_data?relay,0203H
        PUBLIC ??get_device_data?relay
        FUNCTION ??get_device_data?relay,0203H
        FUNCTION ??get_humiture_data?relay,0203H
        FUNCTION ??get_lightdetect_data?relay,0203H
        FUNCTION ??get_plc_data?relay,0203H
        FUNCTION ??get_rfid_data?relay,0203H
        FUNCTION ??lightctrl_init?relay,0203H
        PUBLIC ??set_device_data?relay
        FUNCTION ??set_device_data?relay,0203H
        FUNCTION ??set_lightctrl_data?relay,0203H
        PUBWEAK ADCCON1
        PUBWEAK ADCCON3
        PUBWEAK ADCH
        PUBWEAK ADCL
        PUBWEAK CLKCONCMD
        FUNCTION DemoBaseAirDetect_StatusCB,021603H
        ARGFRAME XSTACK, 2, STACK
        LOCFRAME XSTACK, 14, STACK
        FUNCTION DemoBaseHumiture_StatusCB,021603H
        ARGFRAME XSTACK, 2, STACK
        LOCFRAME XSTACK, 24, STACK
        FUNCTION DemoBaseLightDetect_StatusCB,021603H
        ARGFRAME XSTACK, 2, STACK
        LOCFRAME XSTACK, 14, STACK
        FUNCTION DemoBaseRFID_QueryCB,021603H
        ARGFRAME XSTACK, 2, STACK
        LOCFRAME XSTACK, 19, STACK
        FUNCTION DemoBaseRFID_StopBeeCB,0603H
        ARGFRAME XSTACK, 2, STACK
        PUBLIC HalDeviceInit
        FUNCTION HalDeviceInit,0203H
        ARGFRAME XSTACK, 0, STACK
        PUBLIC HalStatesInit
        FUNCTION HalStatesInit,021203H
        ARGFRAME XSTACK, 0, STACK
        LOCFRAME XSTACK, 15, STACK
        PUBWEAK P1DIR
        PUBWEAK P1SEL
        PUBWEAK PERCFG
        PUBWEAK T1CC0H
        PUBWEAK T1CC0L
        PUBWEAK T1CC1H
        PUBWEAK T1CC1L
        PUBWEAK T1CCTL1
        PUBWEAK T1CTL
        PUBWEAK _A_IEN0
        PUBWEAK _A_IEN1
        PUBWEAK _A_P1
        FUNCTION get_airdetect_data,021203H
        ARGFRAME XSTACK, 16, STACK
        ARGFRAME IOVERLAY, 0, STATIC
        ARGFRAME DOVERLAY, 0, STATIC
        LOCFRAME XSTACK, 18, STACK
        PUBLIC get_device_data
        FUNCTION get_device_data,021203H
        ARGFRAME XSTACK, 0, STACK
        LOCFRAME ISTACK, 1, STACK
        LOCFRAME XSTACK, 19, STACK
        FUNCTION get_humiture_data,021203H
        ARGFRAME XSTACK, 16, STACK
        ARGFRAME IOVERLAY, 0, STATIC
        ARGFRAME DOVERLAY, 0, STATIC
        LOCFRAME XSTACK, 18, STACK
        FUNCTION get_lightdetect_data,021203H
        ARGFRAME XSTACK, 16, STACK
        ARGFRAME IOVERLAY, 0, STATIC
        ARGFRAME DOVERLAY, 0, STATIC
        LOCFRAME XSTACK, 18, STACK
        FUNCTION get_plc_data,021203H
        ARGFRAME XSTACK, 16, STACK
        ARGFRAME IOVERLAY, 0, STATIC
        ARGFRAME DOVERLAY, 0, STATIC
        LOCFRAME ISTACK, 1, STACK
        LOCFRAME XSTACK, 18, STACK
        FUNCTION get_rfid_data,021203H
        ARGFRAME XSTACK, 16, STACK
        ARGFRAME IOVERLAY, 0, STATIC
        ARGFRAME DOVERLAY, 0, STATIC
        LOCFRAME ISTACK, 1, STACK
        LOCFRAME XSTACK, 18, STACK
        FUNCTION lightctrl_init,080203H
        ARGFRAME XSTACK, 10, STACK
        ARGFRAME IOVERLAY, 0, STATIC
        ARGFRAME DOVERLAY, 0, STATIC
        LOCFRAME ISTACK, 2, STACK
        LOCFRAME XSTACK, 2, STACK
        PUBLIC set_device_data
        FUNCTION set_device_data,021203H
        ARGFRAME XSTACK, 0, STACK
        LOCFRAME ISTACK, 1, STACK
        LOCFRAME XSTACK, 19, STACK
        FUNCTION set_lightctrl_data,021203H
        ARGFRAME XSTACK, 16, STACK
        ARGFRAME IOVERLAY, 0, STATIC
        ARGFRAME DOVERLAY, 0, STATIC
        LOCFRAME XSTACK, 10, STACK
        
        CFI Names cfiNames0
        CFI StackFrame CFA_SP SP IDATA
        CFI StackFrame CFA_PSP16 PSP16 XDATA
        CFI StackFrame CFA_XSP16 XSP16 XDATA
        CFI StaticOverlayFrame CFA_IOVERLAY IOVERLAY
        CFI StaticOverlayFrame CFA_DOVERLAY DOVERLAY
        CFI Resource `PSW.CY`:1, `B.BR0`:1, `B.BR1`:1, `B.BR2`:1, `B.BR3`:1
        CFI Resource `B.BR4`:1, `B.BR5`:1, `B.BR6`:1, `B.BR7`:1, `VB.BR8`:1
        CFI Resource `VB.BR9`:1, `VB.BR10`:1, `VB.BR11`:1, `VB.BR12`:1
        CFI Resource `VB.BR13`:1, `VB.BR14`:1, `VB.BR15`:1, VB:8, B:8, A:8
        CFI Resource PSW:8, DPL0:8, DPH0:8, R0:8, R1:8, R2:8, R3:8, R4:8, R5:8
        CFI Resource R6:8, R7:8, V0:8, V1:8, V2:8, V3:8, V4:8, V5:8, V6:8, V7:8
        CFI Resource V8:8, V9:8, V10:8, V11:8, V12:8, V13:8, V14:8, V15:8, SP:8
        CFI Resource PSPH:8, PSPL:8, PSP16:16, XSPH:8, XSPL:8, XSP16:16
        CFI VirtualResource ?RET:24
        CFI Resource ?BRET_EXT:8
        CFI VirtualResource ?RET_HIGH:8, ?RET_LOW:8
        CFI ResourceParts PSP16 PSPH, PSPL
        CFI ResourceParts XSP16 XSPH, XSPL
        CFI ResourceParts ?RET ?BRET_EXT, ?RET_HIGH, ?RET_LOW
        CFI EndNames cfiNames0
        
        CFI Common cfiCommon0 Using cfiNames0
        CFI CodeAlign 1
        CFI DataAlign -1
        CFI ReturnAddress ?RET CODE
        CFI CFA_DOVERLAY Used
        CFI CFA_IOVERLAY Used
        CFI CFA_SP SP+-3
        CFI CFA_PSP16 PSP16+0
        CFI CFA_XSP16 XSP16+0
        CFI `PSW.CY` SameValue
        CFI `B.BR0` SameValue
        CFI `B.BR1` SameValue
        CFI `B.BR2` SameValue
        CFI `B.BR3` SameValue
        CFI `B.BR4` SameValue
        CFI `B.BR5` SameValue
        CFI `B.BR6` SameValue
        CFI `B.BR7` SameValue
        CFI `VB.BR8` SameValue
        CFI `VB.BR9` SameValue
        CFI `VB.BR10` SameValue
        CFI `VB.BR11` SameValue
        CFI `VB.BR12` SameValue
        CFI `VB.BR13` SameValue
        CFI `VB.BR14` SameValue
        CFI `VB.BR15` SameValue
        CFI VB SameValue
        CFI B Undefined
        CFI A Undefined
        CFI PSW SameValue
        CFI DPL0 SameValue
        CFI DPH0 SameValue
        CFI R0 Undefined
        CFI R1 Undefined
        CFI R2 Undefined
        CFI R3 Undefined
        CFI R4 Undefined
        CFI R5 Undefined
        CFI R6 SameValue
        CFI R7 SameValue
        CFI V0 SameValue
        CFI V1 SameValue
        CFI V2 SameValue
        CFI V3 SameValue
        CFI V4 SameValue
        CFI V5 SameValue
        CFI V6 SameValue
        CFI V7 SameValue
        CFI V8 SameValue
        CFI V9 SameValue
        CFI V10 SameValue
        CFI V11 SameValue
        CFI V12 SameValue
        CFI V13 SameValue
        CFI V14 SameValue
        CFI V15 SameValue
        CFI PSPH Undefined
        CFI PSPL Undefined
        CFI XSPH Undefined
        CFI XSPL Undefined
        CFI ?RET Concat
        CFI ?BRET_EXT Frame(CFA_SP, 3)
        CFI ?RET_HIGH Frame(CFA_SP, 2)
        CFI ?RET_LOW Frame(CFA_SP, 1)
        CFI EndCommon cfiCommon0
        
        
        CFI Common cfiCommon1 Using cfiNames0
        CFI CodeAlign 1
        CFI DataAlign -1
        CFI ReturnAddress ?RET CODE
        CFI CFA_DOVERLAY Used
        CFI CFA_IOVERLAY Used
        CFI CFA_SP SP+-2
        CFI CFA_PSP16 PSP16+0
        CFI CFA_XSP16 XSP16+0
        CFI `PSW.CY` SameValue
        CFI `B.BR0` SameValue
        CFI `B.BR1` SameValue
        CFI `B.BR2` SameValue
        CFI `B.BR3` SameValue
        CFI `B.BR4` SameValue
        CFI `B.BR5` SameValue
        CFI `B.BR6` SameValue
        CFI `B.BR7` SameValue
        CFI `VB.BR8` SameValue
        CFI `VB.BR9` SameValue
        CFI `VB.BR10` SameValue
        CFI `VB.BR11` SameValue
        CFI `VB.BR12` SameValue
        CFI `VB.BR13` SameValue
        CFI `VB.BR14` SameValue
        CFI `VB.BR15` SameValue
        CFI VB SameValue
        CFI B SameValue
        CFI A SameValue
        CFI PSW SameValue
        CFI DPL0 SameValue
        CFI DPH0 SameValue
        CFI R0 SameValue
        CFI R1 SameValue
        CFI R2 SameValue
        CFI R3 SameValue
        CFI R4 SameValue
        CFI R5 SameValue
        CFI R6 SameValue
        CFI R7 SameValue
        CFI V0 SameValue
        CFI V1 SameValue
        CFI V2 SameValue
        CFI V3 SameValue
        CFI V4 SameValue
        CFI V5 SameValue
        CFI V6 SameValue
        CFI V7 SameValue
        CFI V8 SameValue
        CFI V9 SameValue
        CFI V10 SameValue
        CFI V11 SameValue
        CFI V12 SameValue
        CFI V13 SameValue
        CFI V14 SameValue
        CFI V15 SameValue
        CFI PSPH Undefined
        CFI PSPL Undefined
        CFI XSPH Undefined
        CFI XSPL Undefined
        CFI ?RET Concat
        CFI ?BRET_EXT SameValue
        CFI ?RET_HIGH Frame(CFA_SP, 2)
        CFI ?RET_LOW Frame(CFA_SP, 1)
        CFI EndCommon cfiCommon1
        
IRecvByte           SYMBOL "IRecvByte"
update_user_event   SYMBOL "update_user_event"
osal_memcmp         SYMBOL "osal_memcmp"
atox                SYMBOL "atox"
ISendByte           SYMBOL "ISendByte"
osal_memcpy         SYMBOL "osal_memcpy"
incode_xtocs        SYMBOL "incode_xtocs"
incode_atox         SYMBOL "incode_atox"
osal_mem_free       SYMBOL "osal_mem_free"
osal_mem_alloc      SYMBOL "osal_mem_alloc"
Rc522RFReset        SYMBOL "Rc522RFReset"
ActivateCard        SYMBOL "ActivateCard"
Update_Refresh      SYMBOL "Update_Refresh"
s_connectionreset   SYMBOL "s_connectionreset"
s_measure           SYMBOL "s_measure"
calc_sht11          SYMBOL "calc_sht11"
??ActivateCard?relay SYMBOL "?relay", ActivateCard
??IRecvByte?relay   SYMBOL "?relay", IRecvByte
??ISendByte?relay   SYMBOL "?relay", ISendByte
??Rc522RFReset?relay SYMBOL "?relay", Rc522RFReset
??Update_Refresh?relay SYMBOL "?relay", Update_Refresh
??atox?relay        SYMBOL "?relay", atox
??calc_sht11?relay  SYMBOL "?relay", calc_sht11
??incode_atox?relay SYMBOL "?relay", incode_atox
??incode_xtocs?relay SYMBOL "?relay", incode_xtocs
??osal_mem_alloc?relay SYMBOL "?relay", osal_mem_alloc
??osal_mem_free?relay SYMBOL "?relay", osal_mem_free
??osal_memcmp?relay SYMBOL "?relay", osal_memcmp
??osal_memcpy?relay SYMBOL "?relay", osal_memcpy
??s_connectionreset?relay SYMBOL "?relay", s_connectionreset
??s_measure?relay   SYMBOL "?relay", s_measure
??update_user_event?relay SYMBOL "?relay", update_user_event
HalDeviceInit       SYMBOL "HalDeviceInit"
??HalDeviceInit?relay SYMBOL "?relay", HalDeviceInit
HalStatesInit       SYMBOL "HalStatesInit"
??HalStatesInit?relay SYMBOL "?relay", HalStatesInit
get_device_data     SYMBOL "get_device_data"
??get_device_data?relay SYMBOL "?relay", get_device_data
set_device_data     SYMBOL "set_device_data"
??set_device_data?relay SYMBOL "?relay", set_device_data

        EXTERN IRecvByte
        FUNCTION IRecvByte,0202H
        ARGFRAME ISTACK, 0, STACK
        ARGFRAME PSTACK, 0, STACK
        ARGFRAME XSTACK, 16, STACK
        ARGFRAME IOVERLAY, 0, STATIC
        ARGFRAME DOVERLAY, 0, STATIC
        EXTERN update_user_event
        FUNCTION update_user_event,0202H
        ARGFRAME ISTACK, 0, STACK
        ARGFRAME PSTACK, 0, STACK
        ARGFRAME XSTACK, 19, STACK
        ARGFRAME IOVERLAY, 0, STATIC
        ARGFRAME DOVERLAY, 0, STATIC
        EXTERN osal_memcmp
        FUNCTION osal_memcmp,0202H
        ARGFRAME ISTACK, 0, STACK
        ARGFRAME PSTACK, 0, STACK
        ARGFRAME XSTACK, 19, STACK
        ARGFRAME IOVERLAY, 0, STATIC
        ARGFRAME DOVERLAY, 0, STATIC
        EXTERN atox
        FUNCTION atox,0202H
        ARGFRAME ISTACK, 0, STACK
        ARGFRAME PSTACK, 0, STACK
        ARGFRAME XSTACK, 16, STACK
        ARGFRAME IOVERLAY, 0, STATIC
        ARGFRAME DOVERLAY, 0, STATIC
        EXTERN ISendByte
        FUNCTION ISendByte,0202H
        ARGFRAME ISTACK, 0, STACK
        ARGFRAME PSTACK, 0, STACK
        ARGFRAME XSTACK, 16, STACK
        ARGFRAME IOVERLAY, 0, STATIC
        ARGFRAME DOVERLAY, 0, STATIC
        EXTERN osal_memcpy
        FUNCTION osal_memcpy,0202H
        ARGFRAME ISTACK, 0, STACK
        ARGFRAME PSTACK, 0, STACK
        ARGFRAME XSTACK, 24, STACK
        ARGFRAME IOVERLAY, 0, STATIC
        ARGFRAME DOVERLAY, 0, STATIC
        EXTERN incode_xtocs
        FUNCTION incode_xtocs,0202H
        ARGFRAME ISTACK, 0, STACK
        ARGFRAME PSTACK, 0, STACK
        ARGFRAME XSTACK, 23, STACK
        ARGFRAME IOVERLAY, 0, STATIC
        ARGFRAME DOVERLAY, 0, STATIC
        EXTERN incode_atox
        FUNCTION incode_atox,0202H
        ARGFRAME ISTACK, 0, STACK
        ARGFRAME PSTACK, 0, STACK
        ARGFRAME XSTACK, 16, STACK
        ARGFRAME IOVERLAY, 0, STATIC
        ARGFRAME DOVERLAY, 0, STATIC
        EXTERN osal_mem_free
        FUNCTION osal_mem_free,0202H
        ARGFRAME ISTACK, 0, STACK
        ARGFRAME PSTACK, 0, STACK
        ARGFRAME XSTACK, 21, STACK
        ARGFRAME IOVERLAY, 0, STATIC
        ARGFRAME DOVERLAY, 0, STATIC
        EXTERN osal_mem_alloc
        FUNCTION osal_mem_alloc,0202H
        ARGFRAME ISTACK, 0, STACK
        ARGFRAME PSTACK, 0, STACK
        ARGFRAME XSTACK, 21, STACK
        ARGFRAME IOVERLAY, 0, STATIC
        ARGFRAME DOVERLAY, 0, STATIC
        EXTERN Rc522RFReset
        FUNCTION Rc522RFReset,0202H
        ARGFRAME ISTACK, 0, STACK
        ARGFRAME PSTACK, 0, STACK
        ARGFRAME XSTACK, 14, STACK
        ARGFRAME IOVERLAY, 0, STATIC
        ARGFRAME DOVERLAY, 0, STATIC
        EXTERN ActivateCard
        FUNCTION ActivateCard,0202H
        ARGFRAME ISTACK, 0, STACK
        ARGFRAME PSTACK, 0, STACK
        ARGFRAME XSTACK, 18, STACK
        ARGFRAME IOVERLAY, 0, STATIC
        ARGFRAME DOVERLAY, 0, STATIC
        EXTERN Update_Refresh
        FUNCTION Update_Refresh,0202H
        ARGFRAME ISTACK, 0, STACK
        ARGFRAME PSTACK, 0, STACK
        ARGFRAME XSTACK, 21, STACK
        ARGFRAME IOVERLAY, 0, STATIC
        ARGFRAME DOVERLAY, 0, STATIC
        EXTERN s_connectionreset
        FUNCTION s_connectionreset,0202H
        ARGFRAME ISTACK, 0, STACK
        ARGFRAME PSTACK, 0, STACK
        ARGFRAME XSTACK, 21, STACK
        ARGFRAME IOVERLAY, 0, STATIC
        ARGFRAME DOVERLAY, 0, STATIC
        EXTERN s_measure
        FUNCTION s_measure,0202H
        ARGFRAME ISTACK, 0, STACK
        ARGFRAME PSTACK, 0, STACK
        ARGFRAME XSTACK, 21, STACK
        ARGFRAME IOVERLAY, 0, STATIC
        ARGFRAME DOVERLAY, 0, STATIC
        EXTERN calc_sht11
        FUNCTION calc_sht11,0202H
        ARGFRAME ISTACK, 0, STACK
        ARGFRAME PSTACK, 0, STACK
        ARGFRAME XSTACK, 21, STACK
        ARGFRAME IOVERLAY, 0, STATIC
        ARGFRAME DOVERLAY, 0, STATIC
        EXTERN ??ActivateCard?relay
        FUNCTION ??ActivateCard?relay,00H
        EXTERN ??IRecvByte?relay
        FUNCTION ??IRecvByte?relay,00H
        EXTERN ??ISendByte?relay
        FUNCTION ??ISendByte?relay,00H
        EXTERN ??Rc522RFReset?relay
        FUNCTION ??Rc522RFReset?relay,00H
        EXTERN ??Update_Refresh?relay
        FUNCTION ??Update_Refresh?relay,00H
        EXTERN ??atox?relay
        FUNCTION ??atox?relay,00H
        EXTERN ??calc_sht11?relay
        FUNCTION ??calc_sht11?relay,00H
        EXTERN ??incode_atox?relay
        FUNCTION ??incode_atox?relay,00H
        EXTERN ??incode_xtocs?relay
        FUNCTION ??incode_xtocs?relay,00H
        EXTERN ??osal_mem_alloc?relay
        FUNCTION ??osal_mem_alloc?relay,00H
        EXTERN ??osal_mem_free?relay
        FUNCTION ??osal_mem_free?relay,00H
        EXTERN ??osal_memcmp?relay
        FUNCTION ??osal_memcmp?relay,00H
        EXTERN ??osal_memcpy?relay
        FUNCTION ??osal_memcpy?relay,00H
        EXTERN ??s_connectionreset?relay
        FUNCTION ??s_connectionreset?relay,00H
        EXTERN ??s_measure?relay
        FUNCTION ??s_measure?relay,00H
        EXTERN ??update_user_event?relay
        FUNCTION ??update_user_event?relay,00H
        EXTERN CommonApp_TaskID
        EXTERN optData
        EXTERN optDataLen

// E:\work\zigbee\ZStack-Smart-2.5.2b\Projects\zstack\Applications\SmartApp\Source\Device\DemoBase_DeviceDataCtrl.c
//    1 /**************************************************************************************************
//    2   Filename:       DemoBase_DeviceDataCtrl.c
//    3   Revised:        $Date: 2014-12-01 14:27:34 -0800 (Thu, 01 dec 2014) $
//    4   Revision:       $Revision: 29218 $
//    5 
//    6   Description:    This file contains interface of demo base device data operations
//    7 **************************************************************************************************/
//    8 
//    9 /**************************************************************************************************
//   10 Modify by Sam_Chen
//   11 Date:2015-07-31
//   12 **************************************************************************************************/
//   13 
//   14 /*********************************************************************
//   15  * INCLUDES
//   16  */
//   17 #include "CommonApp.h"

        ASEGN SFR_AN:DATA:NOROOT,090H
// union <unnamed> volatile __sfr _A_P1
_A_P1:
        DATA8
        DS 1

        ASEGN SFR_AN:DATA:NOROOT,0a8H
// union <unnamed> volatile __sfr _A_IEN0
_A_IEN0:
        DATA8
        DS 1

        ASEGN SFR_AN:DATA:NOROOT,0b4H
// unsigned char volatile __sfr ADCCON1
ADCCON1:
        DATA8
        DS 1

        ASEGN SFR_AN:DATA:NOROOT,0b6H
// unsigned char volatile __sfr ADCCON3
ADCCON3:
        DATA8
        DS 1

        ASEGN SFR_AN:DATA:NOROOT,0b8H
// union <unnamed> volatile __sfr _A_IEN1
_A_IEN1:
        DATA8
        DS 1

        ASEGN SFR_AN:DATA:NOROOT,0baH
// unsigned char volatile __sfr ADCL
ADCL:
        DATA8
        DS 1

        ASEGN SFR_AN:DATA:NOROOT,0bbH
// unsigned char volatile __sfr ADCH
ADCH:
        DATA8
        DS 1

        ASEGN SFR_AN:DATA:NOROOT,0c6H
// unsigned char volatile __sfr CLKCONCMD
CLKCONCMD:
        DATA8
        DS 1

        ASEGN SFR_AN:DATA:NOROOT,0daH
// unsigned char volatile __sfr T1CC0L
T1CC0L:
        DATA8
        DS 1

        ASEGN SFR_AN:DATA:NOROOT,0dbH
// unsigned char volatile __sfr T1CC0H
T1CC0H:
        DATA8
        DS 1

        ASEGN SFR_AN:DATA:NOROOT,0dcH
// unsigned char volatile __sfr T1CC1L
T1CC1L:
        DATA8
        DS 1

        ASEGN SFR_AN:DATA:NOROOT,0ddH
// unsigned char volatile __sfr T1CC1H
T1CC1H:
        DATA8
        DS 1

        ASEGN SFR_AN:DATA:NOROOT,0e4H
// unsigned char volatile __sfr T1CTL
T1CTL:
        DATA8
        DS 1

        ASEGN SFR_AN:DATA:NOROOT,0e6H
// unsigned char volatile __sfr T1CCTL1
T1CCTL1:
        DATA8
        DS 1

        ASEGN SFR_AN:DATA:NOROOT,0f1H
// unsigned char volatile __sfr PERCFG
PERCFG:
        DATA8
        DS 1

        ASEGN SFR_AN:DATA:NOROOT,0f4H
// unsigned char volatile __sfr P1SEL
P1SEL:
        DATA8
        DS 1

        ASEGN SFR_AN:DATA:NOROOT,0feH
// unsigned char volatile __sfr P1DIR
P1DIR:
        DATA8
        DS 1
//   18 #include "hal_drivers.h" 
//   19 #include "i2c-ctrl.h"
//   20 #include "ht-ctrl.h"
//   21 #include "rfid/RC522_RegCtrl.h"
//   22 #include "rfid/RC522_Mifare.h"
//   23 #include "rfid/RC522_ErrCode.h"
//   24 #include "rfid/Mifare_Util.h"
//   25 #include "mincode.h"
//   26 
//   27 /*********************************************************************
//   28  * MACROS
//   29  */
//   30 #define DEMOBASE_DEVICE_IIC_ADDR     ((1<<8)+1)	//IIC存储ID 地址(可自定义)
//   31 #define DEMOBASE_SETID_HEAD		"SETID"
//   32 #define DEMOBASE_GETID_HEAD		"GETID"
//   33 
//   34 #define LED_DATA_SIZE			4
//   35 #define PLC_DATA_SIZE			6
//   36 #define RFID_DATA_SIZE			19
//   37 #define HUMITURE_DATA_SIZE 		7
//   38 #define LIGHTDETECT_DATA_SIZE 	5
//   39 #define AIRDETECT_DATA_SIZE 	5
//   40 #define LIGHTCTRL_DATA_SIZE		4
//   41 
//   42 #define DEMOBASE_DEVICE_LED				"01"
//   43 #define DEMOBASE_DEVICE_PLC				"02"
//   44 #define DEMOBASE_DEVICE_RFID			"03"
//   45 #define DEMOBASE_DEVICE_HUMITURE		"04"
//   46 #define DEMOBASE_DEVICE_LIGHTDETECT		"05"
//   47 #define DEMOBASE_DEVICE_AIRDETECT		"06"
//   48 #define DEMOBASE_DEVICE_LIGHTCTRL		"07"
//   49 
//   50 #define DEMOBASE_DEVICE_NOTIDENTIFY		"FF"
//   51 
//   52 /*********************************************************************
//   53  * CONSTANTS
//   54  */
//   55 
//   56 /*********************************************************************
//   57  * EXTERNAL VARIABLES
//   58  */
//   59 extern byte CommonApp_TaskID;
//   60 
//   61 extern uint8 *optData;
//   62 extern uint8 optDataLen;
//   63 
//   64 /*********************************************************************
//   65  * EXTERNAL FUNCTIONS
//   66  */
//   67  
//   68 /*********************************************************************
//   69  * GLOBAL VARIABLES
//   70  */
//   71 
//   72 /*********************************************************************
//   73  * LOCAL VARIABLES
//   74  */

        RSEG XDATA_Z:XDATA:NOROOT(0)
        DATA8
//   75 static uint8 queryStates = 0;
queryStates:
        DS 1
        REQUIRE __INIT_XDATA_Z

        RSEG XDATA_Z:XDATA:NOROOT(0)
        DATA8
//   76 static uint8 isBee = 0;
isBee:
        DS 1
        REQUIRE __INIT_XDATA_Z

        RSEG XDATA_Z:XDATA:NOROOT(0)
        DATA8
//   77 static uint8 ids[8] = {0};
ids:
        DS 8
        REQUIRE __INIT_XDATA_Z

        RSEG XDATA_Z:XDATA:NOROOT(0)
        DATA8
//   78 static uint8 idlen = 0;
idlen:
        DS 1
        REQUIRE __INIT_XDATA_Z
//   79 

        RSEG XDATA_Z:XDATA:NOROOT(0)
        DATA8
//   80 static uint8 temp;
temp:
        DS 1
        REQUIRE __INIT_XDATA_Z

        RSEG XDATA_Z:XDATA:NOROOT(0)
        DATA8
//   81 static uint8 humi;
humi:
        DS 1
        REQUIRE __INIT_XDATA_Z
//   82 

        RSEG XDATA_I:XDATA:NOROOT(0)
//   83 static uint8 lightGrade = 2;
lightGrade:
        DATA8
        DS 1
        REQUIRE `?<Initializer for lightGrade>`
        REQUIRE __INIT_XDATA_I
//   84 

        RSEG XDATA_I:XDATA:NOROOT(0)
//   85 static uint8 airStates = 1;
airStates:
        DATA8
        DS 1
        REQUIRE `?<Initializer for airStates>`
        REQUIRE __INIT_XDATA_I
//   86 

        RSEG XDATA_Z:XDATA:NOROOT(0)
        DATA8
//   87 static uint8 lightCtrlStates = 0;
lightCtrlStates:
        DS 1
        REQUIRE __INIT_XDATA_Z
//   88 
//   89 /*********************************************************************
//   90  * LOCAL FUNCTIONS
//   91  */
//   92 static void led_init(void);
//   93 static void plc_init(void);
//   94 static void rfid_init(void);
//   95 static void humiture_init(void);
//   96 static void lightdetect_init(void);
//   97 static void airdetect_init(void);
//   98 static void lightctrl_init(void);
//   99 
//  100 static int8 set_led_data(uint8 *data, uint8 dataLen);
//  101 static int8 set_plc_data(uint8 *data, uint8 dataLen);
//  102 static int8 set_rfid_data(uint8 *data, uint8 dataLen);
//  103 static int8 set_humiture_data(uint8 *data, uint8 dataLen);
//  104 static int8 set_lightdetect_data(uint8 *data, uint8 dataLen);
//  105 static int8 set_airdetect_data(uint8 *data, uint8 dataLen);
//  106 static int8 set_lightctrl_data(uint8 *data, uint8 dataLen);
//  107 
//  108 static int8 get_led_data(uint8 *data, uint8 *dataLen);
//  109 static int8 get_plc_data(uint8 *data, uint8 *dataLen);
//  110 static int8 get_rfid_data(uint8 *data, uint8 *dataLen);
//  111 static int8 get_humiture_data(uint8 *data, uint8 *dataLen);
//  112 static int8 get_lightdetect_data(uint8 *data, uint8 *dataLen);
//  113 static int8 get_airdetect_data(uint8 *data, uint8 *dataLen);
//  114 static int8 get_lightctrl_data(uint8 *data, uint8 *dataLen);
//  115 
//  116 static void DemoBaseRFID_QueryCB( void *params, uint16 *duration, uint8 *count);
//  117 static void DemoBaseRFID_StopBeeCB( void *params, uint16 *duration, uint8 *count);
//  118 static void DemoBaseHumiture_StatusCB( void *params, uint16 *duration, uint8 *count);
//  119 static void DemoBaseLightDetect_StatusCB( void *params, uint16 *duration, uint8 *count);
//  120 static void DemoBaseAirDetect_StatusCB( void *params, uint16 *duration, uint8 *count);
//  121 static uint16 getAD(void);
//  122 static void InitTimer1(void);
//  123 
//  124 /*********************************************************************
//  125  * PUBLIC FUNCTIONS
//  126  */
//  127 

        RSEG BANKED_CODE:CODE:NOROOT(0)
//  128 void HalDeviceInit (void)
HalDeviceInit:
        CFI Block cfiBlock0 Using cfiCommon0
        CFI Function HalDeviceInit
        CODE
//  129 {
        ; Saved register size: 0
        ; Auto size: 0
//  130 
//  131 }
        LJMP    ?BRET
        CFI EndBlock cfiBlock0
//  132 

        RSEG BANKED_CODE:CODE:NOROOT(0)
//  133 void HalStatesInit(devStates_t status)
HalStatesInit:
        CFI Block cfiBlock1 Using cfiCommon0
        CFI Function HalStatesInit
        CODE
//  134 {
        FUNCALL HalStatesInit, IRecvByte
        LOCFRAME ISTACK, 0, STACK
        LOCFRAME PSTACK, 0, STACK
        LOCFRAME XSTACK, 10, STACK
        LOCFRAME IOVERLAY, 0, STATIC
        LOCFRAME DOVERLAY, 0, STATIC
        ARGFRAME ISTACK, 0, STACK
        ARGFRAME PSTACK, 0, STACK
        ARGFRAME XSTACK, 10, STACK
        ARGFRAME IOVERLAY, 0, STATIC
        ARGFRAME DOVERLAY, 0, STATIC
        FUNCALL HalStatesInit, update_user_event
        LOCFRAME ISTACK, 0, STACK
        LOCFRAME PSTACK, 0, STACK
        LOCFRAME XSTACK, 15, STACK
        LOCFRAME IOVERLAY, 0, STATIC
        LOCFRAME DOVERLAY, 0, STATIC
        ARGFRAME ISTACK, 0, STACK
        ARGFRAME PSTACK, 0, STACK
        ARGFRAME XSTACK, 15, STACK
        ARGFRAME IOVERLAY, 0, STATIC
        ARGFRAME DOVERLAY, 0, STATIC
        FUNCALL HalStatesInit, update_user_event
        LOCFRAME ISTACK, 0, STACK
        LOCFRAME PSTACK, 0, STACK
        LOCFRAME XSTACK, 15, STACK
        LOCFRAME IOVERLAY, 0, STATIC
        LOCFRAME DOVERLAY, 0, STATIC
        ARGFRAME ISTACK, 0, STACK
        ARGFRAME PSTACK, 0, STACK
        ARGFRAME XSTACK, 15, STACK
        ARGFRAME IOVERLAY, 0, STATIC
        ARGFRAME DOVERLAY, 0, STATIC
        FUNCALL HalStatesInit, update_user_event
        LOCFRAME ISTACK, 0, STACK
        LOCFRAME PSTACK, 0, STACK
        LOCFRAME XSTACK, 15, STACK
        LOCFRAME IOVERLAY, 0, STATIC
        LOCFRAME DOVERLAY, 0, STATIC
        ARGFRAME ISTACK, 0, STACK
        ARGFRAME PSTACK, 0, STACK
        ARGFRAME XSTACK, 15, STACK
        ARGFRAME IOVERLAY, 0, STATIC
        ARGFRAME DOVERLAY, 0, STATIC
        FUNCALL HalStatesInit, update_user_event
        LOCFRAME ISTACK, 0, STACK
        LOCFRAME PSTACK, 0, STACK
        LOCFRAME XSTACK, 15, STACK
        LOCFRAME IOVERLAY, 0, STATIC
        LOCFRAME DOVERLAY, 0, STATIC
        ARGFRAME ISTACK, 0, STACK
        ARGFRAME PSTACK, 0, STACK
        ARGFRAME XSTACK, 15, STACK
        ARGFRAME IOVERLAY, 0, STATIC
        ARGFRAME DOVERLAY, 0, STATIC
        FUNCALL HalStatesInit, lightctrl_init
        LOCFRAME ISTACK, 0, STACK
        LOCFRAME PSTACK, 0, STACK
        LOCFRAME XSTACK, 10, STACK
        LOCFRAME IOVERLAY, 0, STATIC
        LOCFRAME DOVERLAY, 0, STATIC
        ARGFRAME ISTACK, 0, STACK
        ARGFRAME PSTACK, 0, STACK
        ARGFRAME XSTACK, 10, STACK
        ARGFRAME IOVERLAY, 0, STATIC
        ARGFRAME DOVERLAY, 0, STATIC
        MOV     A,#-0xa
        LCALL   ?BANKED_ENTER_XDATA
        CFI DPH0 load(1, XDATA, add(CFA_XSP16, literal(-1)))
        CFI DPL0 load(1, XDATA, add(CFA_XSP16, literal(-2)))
        CFI ?BRET_EXT load(1, XDATA, add(CFA_XSP16, literal(-3)))
        CFI ?RET_HIGH load(1, XDATA, add(CFA_XSP16, literal(-4)))
        CFI ?RET_LOW load(1, XDATA, add(CFA_XSP16, literal(-5)))
        CFI R7 load(1, XDATA, add(CFA_XSP16, literal(-6)))
        CFI V1 load(1, XDATA, add(CFA_XSP16, literal(-7)))
        CFI V0 load(1, XDATA, add(CFA_XSP16, literal(-8)))
        CFI VB load(1, XDATA, add(CFA_XSP16, literal(-9)))
        CFI R6 load(1, XDATA, add(CFA_XSP16, literal(-10)))
        CFI CFA_SP SP+0
        CFI CFA_XSP16 add(XSP16, 10)
        ; Saved register size: 10
        ; Auto size: 0
//  135 	uint8 i2cAddr = IRecvByte(DEMOBASE_DEVICE_IIC_ADDR);
//  136 	switch(i2cAddr)
        ; Setup parameters for call to function IRecvByte
        MOV     R2,#0x1
        MOV     R3,#0x1
        LCALL   ??IRecvByte?relay
        MOV     A,R1
        DEC     A
        JZ      ??HalStatesInit_0
        DEC     A
        JZ      ??HalStatesInit_1
        DEC     A
        JZ      ??HalStatesInit_2
        DEC     A
        JZ      ??HalStatesInit_3
        DEC     A
        JNZ     $+5
        LJMP    ??HalStatesInit_4 & 0xFFFF
        DEC     A
        JNZ     $+5
        LJMP    ??HalStatesInit_5 & 0xFFFF
        DEC     A
        JNZ     $+5
        LJMP    ??HalStatesInit_6 & 0xFFFF
        LJMP    ??HalStatesInit_7 & 0xFFFF
//  137 	{
//  138 	case 1: led_init(); break;
??HalStatesInit_0:
        MOV     0xfe,#-0x1
        MOV     0x90,#0x0
        LJMP    ??HalStatesInit_7 & 0xFFFF
//  139 	case 2: plc_init(); break;
??HalStatesInit_1:
        ANL     0xfe,#0xfe
        ANL     0xfe,#0xfd
        ORL     0xfe,#0x10
        SETB    0x90.4
        ORL     0xfe,#0x20
        SETB    0x90.4
        LJMP    ??HalStatesInit_7 & 0xFFFF
//  140 	case 3: rfid_init(); break;
??HalStatesInit_2:
        ORL     0xfe,#0x20
        CLR     0x90.5
        ; Setup parameters for call to function update_user_event
        CLR     A
        MOV     ?V0 + 0,A
        MOV     ?V0 + 1,A
        MOV     R0,#?V0 + 0
        LCALL   ?PUSH_XSTACK_I_TWO
        CFI CFA_XSP16 add(XSP16, 12)
        MOV     ?V0 + 0,#-0x1
        MOV     R0,#?V0 + 0
        LCALL   ?PUSH_XSTACK_I_ONE
        CFI CFA_XSP16 add(XSP16, 13)
        MOV     ?V0 + 0,#-0xc
        MOV     ?V0 + 1,#0x1
        MOV     R0,#?V0 + 0
        LCALL   ?PUSH_XSTACK_I_TWO
        CFI CFA_XSP16 add(XSP16, 15)
        MOV     R4,#??DemoBaseRFID_QueryCB?relay & 0xff
        MOV     R5,#(??DemoBaseRFID_QueryCB?relay >> 8) & 0xff
        MOV     R2,#0x10
??HalStatesInit_8:
        MOV     R3,#0x0
??HalStatesInit_9:
        LCALL   ??Subroutine36_0 & 0xFFFF
??CrossCallReturnLabel_63:
        LCALL   ?DEALLOC_XSTACK8
        CFI CFA_XSP16 add(XSP16, 10)
        SJMP    ??HalStatesInit_7
//  141 	case 4: humiture_init(); break;
??HalStatesInit_3:
        ; Setup parameters for call to function update_user_event
        CLR     A
        MOV     ?V0 + 0,A
        MOV     ?V0 + 1,A
        MOV     R0,#?V0 + 0
        LCALL   ?PUSH_XSTACK_I_TWO
        CFI CFA_XSP16 add(XSP16, 12)
        MOV     ?V0 + 0,#-0x1
        MOV     R0,#?V0 + 0
        LCALL   ?PUSH_XSTACK_I_ONE
        CFI CFA_XSP16 add(XSP16, 13)
        MOV     ?V0 + 0,#-0x30
        MOV     ?V0 + 1,#0x7
        MOV     R0,#?V0 + 0
        LCALL   ?PUSH_XSTACK_I_TWO
        CFI CFA_XSP16 add(XSP16, 15)
        MOV     R4,#??DemoBaseHumiture_StatusCB?relay & 0xff
        MOV     R5,#(??DemoBaseHumiture_StatusCB?relay >> 8) & 0xff
        MOV     R2,#0x40
        SJMP    ??HalStatesInit_8
        CFI CFA_XSP16 add(XSP16, 10)
//  142 	case 5: lightdetect_init(); break;
??HalStatesInit_4:
        ; Setup parameters for call to function update_user_event
        CLR     A
        MOV     ?V0 + 0,A
        MOV     ?V0 + 1,A
        MOV     R0,#?V0 + 0
        LCALL   ?PUSH_XSTACK_I_TWO
        CFI CFA_XSP16 add(XSP16, 12)
        MOV     ?V0 + 0,#-0x1
        MOV     R0,#?V0 + 0
        LCALL   ?PUSH_XSTACK_I_ONE
        CFI CFA_XSP16 add(XSP16, 13)
        MOV     ?V0 + 0,#-0x30
        MOV     ?V0 + 1,#0x7
        MOV     R0,#?V0 + 0
        LCALL   ?PUSH_XSTACK_I_TWO
        CFI CFA_XSP16 add(XSP16, 15)
        MOV     R4,#??DemoBaseLightDetect_StatusCB?relay & 0xff
        MOV     R5,#(??DemoBaseLightDetect_StatusCB?relay >> 8) & 0xff
        MOV     R2,#-0x80
        LCALL   ?Subroutine18 & 0xFFFF
??CrossCallReturnLabel_61:
        LCALL   ?DEALLOC_XSTACK8
        CFI CFA_XSP16 add(XSP16, 10)
        SJMP    ??HalStatesInit_7
//  143 	case 6: airdetect_init(); break;
??HalStatesInit_5:
        ANL     0xfe,#0xfb
        ; Setup parameters for call to function update_user_event
        CLR     A
        MOV     ?V0 + 0,A
        MOV     ?V0 + 1,A
        MOV     R0,#?V0 + 0
        LCALL   ?PUSH_XSTACK_I_TWO
        CFI CFA_XSP16 add(XSP16, 12)
        MOV     ?V0 + 0,#-0x1
        MOV     R0,#?V0 + 0
        LCALL   ?PUSH_XSTACK_I_ONE
        CFI CFA_XSP16 add(XSP16, 13)
        MOV     ?V0 + 0,#-0x30
        MOV     ?V0 + 1,#0x7
        MOV     R0,#?V0 + 0
        LCALL   ?PUSH_XSTACK_I_TWO
        CFI CFA_XSP16 add(XSP16, 15)
        MOV     R4,#??DemoBaseAirDetect_StatusCB?relay & 0xff
        MOV     R5,#(??DemoBaseAirDetect_StatusCB?relay >> 8) & 0xff
        MOV     R2,#0x0
        MOV     R3,#0x1
        LJMP    ??HalStatesInit_9 & 0xFFFF
        CFI CFA_XSP16 add(XSP16, 10)
//  144 	case 7: lightctrl_init(); break;
??HalStatesInit_6:
        ; Setup parameters for call to function lightctrl_init
        LCALL   ??lightctrl_init?relay
        CFI EndBlock cfiBlock1
//  145 	}
//  146 }
??HalStatesInit_7:
        REQUIRE ?Subroutine0
        REQUIRE P1DIR
        REQUIRE _A_P1
        ; // Fall through to label ?Subroutine0

        RSEG BANKED_CODE:CODE:NOROOT(0)
?Subroutine0:
        CFI Block cfiBlock2 Using cfiCommon0
        CFI NoFunction
        CFI CFA_SP SP+0
        CFI CFA_XSP16 add(XSP16, 10)
        CFI VB load(1, XDATA, add(CFA_XSP16, literal(-9)))
        CFI DPL0 load(1, XDATA, add(CFA_XSP16, literal(-2)))
        CFI DPH0 load(1, XDATA, add(CFA_XSP16, literal(-1)))
        CFI R6 load(1, XDATA, add(CFA_XSP16, literal(-10)))
        CFI R7 load(1, XDATA, add(CFA_XSP16, literal(-6)))
        CFI V0 load(1, XDATA, add(CFA_XSP16, literal(-8)))
        CFI V1 load(1, XDATA, add(CFA_XSP16, literal(-7)))
        CFI ?BRET_EXT load(1, XDATA, add(CFA_XSP16, literal(-3)))
        CFI ?RET_HIGH load(1, XDATA, add(CFA_XSP16, literal(-4)))
        CFI ?RET_LOW load(1, XDATA, add(CFA_XSP16, literal(-5)))
        MOV     R7,#0x2
        LJMP    ?BANKED_LEAVE_XDATA
        CFI EndBlock cfiBlock2
//  147 

        RSEG BANKED_CODE:CODE:NOROOT(0)
//  148 int8 set_device_data(uint8 const *data, uint8 dataLen)
set_device_data:
        CFI Block cfiBlock3 Using cfiCommon0
        CFI Function set_device_data
        CODE
//  149 {
        FUNCALL set_device_data, osal_memcmp
        LOCFRAME ISTACK, 0, STACK
        LOCFRAME PSTACK, 0, STACK
        LOCFRAME XSTACK, 19, STACK
        LOCFRAME IOVERLAY, 0, STATIC
        LOCFRAME DOVERLAY, 0, STATIC
        ARGFRAME ISTACK, 0, STACK
        ARGFRAME PSTACK, 0, STACK
        ARGFRAME XSTACK, 19, STACK
        ARGFRAME IOVERLAY, 0, STATIC
        ARGFRAME DOVERLAY, 0, STATIC
        FUNCALL set_device_data, atox
        LOCFRAME ISTACK, 0, STACK
        LOCFRAME PSTACK, 0, STACK
        LOCFRAME XSTACK, 16, STACK
        LOCFRAME IOVERLAY, 0, STATIC
        LOCFRAME DOVERLAY, 0, STATIC
        ARGFRAME ISTACK, 0, STACK
        ARGFRAME PSTACK, 0, STACK
        ARGFRAME XSTACK, 16, STACK
        ARGFRAME IOVERLAY, 0, STATIC
        ARGFRAME DOVERLAY, 0, STATIC
        FUNCALL set_device_data, ISendByte
        LOCFRAME ISTACK, 0, STACK
        LOCFRAME PSTACK, 0, STACK
        LOCFRAME XSTACK, 16, STACK
        LOCFRAME IOVERLAY, 0, STATIC
        LOCFRAME DOVERLAY, 0, STATIC
        ARGFRAME ISTACK, 0, STACK
        ARGFRAME PSTACK, 0, STACK
        ARGFRAME XSTACK, 16, STACK
        ARGFRAME IOVERLAY, 0, STATIC
        ARGFRAME DOVERLAY, 0, STATIC
        FUNCALL set_device_data, osal_memcpy
        LOCFRAME ISTACK, 0, STACK
        LOCFRAME PSTACK, 0, STACK
        LOCFRAME XSTACK, 19, STACK
        LOCFRAME IOVERLAY, 0, STATIC
        LOCFRAME DOVERLAY, 0, STATIC
        ARGFRAME ISTACK, 0, STACK
        ARGFRAME PSTACK, 0, STACK
        ARGFRAME XSTACK, 19, STACK
        ARGFRAME IOVERLAY, 0, STATIC
        ARGFRAME DOVERLAY, 0, STATIC
        FUNCALL set_device_data, IRecvByte
        LOCFRAME ISTACK, 0, STACK
        LOCFRAME PSTACK, 0, STACK
        LOCFRAME XSTACK, 16, STACK
        LOCFRAME IOVERLAY, 0, STATIC
        LOCFRAME DOVERLAY, 0, STATIC
        ARGFRAME ISTACK, 0, STACK
        ARGFRAME PSTACK, 0, STACK
        ARGFRAME XSTACK, 16, STACK
        ARGFRAME IOVERLAY, 0, STATIC
        ARGFRAME DOVERLAY, 0, STATIC
        FUNCALL set_device_data, incode_xtocs
        LOCFRAME ISTACK, 0, STACK
        LOCFRAME PSTACK, 0, STACK
        LOCFRAME XSTACK, 18, STACK
        LOCFRAME IOVERLAY, 0, STATIC
        LOCFRAME DOVERLAY, 0, STATIC
        ARGFRAME ISTACK, 0, STACK
        ARGFRAME PSTACK, 0, STACK
        ARGFRAME XSTACK, 18, STACK
        ARGFRAME IOVERLAY, 0, STATIC
        ARGFRAME DOVERLAY, 0, STATIC
        FUNCALL set_device_data, osal_memcpy
        LOCFRAME ISTACK, 0, STACK
        LOCFRAME PSTACK, 0, STACK
        LOCFRAME XSTACK, 19, STACK
        LOCFRAME IOVERLAY, 0, STATIC
        LOCFRAME DOVERLAY, 0, STATIC
        ARGFRAME ISTACK, 0, STACK
        ARGFRAME PSTACK, 0, STACK
        ARGFRAME XSTACK, 19, STACK
        ARGFRAME IOVERLAY, 0, STATIC
        ARGFRAME DOVERLAY, 0, STATIC
        FUNCALL set_device_data, IRecvByte
        LOCFRAME ISTACK, 0, STACK
        LOCFRAME PSTACK, 0, STACK
        LOCFRAME XSTACK, 16, STACK
        LOCFRAME IOVERLAY, 0, STATIC
        LOCFRAME DOVERLAY, 0, STATIC
        ARGFRAME ISTACK, 0, STACK
        ARGFRAME PSTACK, 0, STACK
        ARGFRAME XSTACK, 16, STACK
        ARGFRAME IOVERLAY, 0, STATIC
        ARGFRAME DOVERLAY, 0, STATIC
        FUNCALL set_device_data, IRecvByte
        LOCFRAME ISTACK, 0, STACK
        LOCFRAME PSTACK, 0, STACK
        LOCFRAME XSTACK, 16, STACK
        LOCFRAME IOVERLAY, 0, STATIC
        LOCFRAME DOVERLAY, 0, STATIC
        ARGFRAME ISTACK, 0, STACK
        ARGFRAME PSTACK, 0, STACK
        ARGFRAME XSTACK, 16, STACK
        ARGFRAME IOVERLAY, 0, STATIC
        ARGFRAME DOVERLAY, 0, STATIC
        FUNCALL set_device_data, incode_atox
        LOCFRAME ISTACK, 0, STACK
        LOCFRAME PSTACK, 0, STACK
        LOCFRAME XSTACK, 16, STACK
        LOCFRAME IOVERLAY, 0, STATIC
        LOCFRAME DOVERLAY, 0, STATIC
        ARGFRAME ISTACK, 0, STACK
        ARGFRAME PSTACK, 0, STACK
        ARGFRAME XSTACK, 16, STACK
        ARGFRAME IOVERLAY, 0, STATIC
        ARGFRAME DOVERLAY, 0, STATIC
        FUNCALL set_device_data, incode_atox
        LOCFRAME ISTACK, 0, STACK
        LOCFRAME PSTACK, 0, STACK
        LOCFRAME XSTACK, 16, STACK
        LOCFRAME IOVERLAY, 0, STATIC
        LOCFRAME DOVERLAY, 0, STATIC
        ARGFRAME ISTACK, 0, STACK
        ARGFRAME PSTACK, 0, STACK
        ARGFRAME XSTACK, 16, STACK
        ARGFRAME IOVERLAY, 0, STATIC
        ARGFRAME DOVERLAY, 0, STATIC
        FUNCALL set_device_data, IRecvByte
        LOCFRAME ISTACK, 0, STACK
        LOCFRAME PSTACK, 0, STACK
        LOCFRAME XSTACK, 16, STACK
        LOCFRAME IOVERLAY, 0, STATIC
        LOCFRAME DOVERLAY, 0, STATIC
        ARGFRAME ISTACK, 0, STACK
        ARGFRAME PSTACK, 0, STACK
        ARGFRAME XSTACK, 16, STACK
        ARGFRAME IOVERLAY, 0, STATIC
        ARGFRAME DOVERLAY, 0, STATIC
        FUNCALL set_device_data, incode_atox
        LOCFRAME ISTACK, 0, STACK
        LOCFRAME PSTACK, 0, STACK
        LOCFRAME XSTACK, 16, STACK
        LOCFRAME IOVERLAY, 0, STATIC
        LOCFRAME DOVERLAY, 0, STATIC
        ARGFRAME ISTACK, 0, STACK
        ARGFRAME PSTACK, 0, STACK
        ARGFRAME XSTACK, 16, STACK
        ARGFRAME IOVERLAY, 0, STATIC
        ARGFRAME DOVERLAY, 0, STATIC
        FUNCALL set_device_data, IRecvByte
        LOCFRAME ISTACK, 0, STACK
        LOCFRAME PSTACK, 0, STACK
        LOCFRAME XSTACK, 16, STACK
        LOCFRAME IOVERLAY, 0, STATIC
        LOCFRAME DOVERLAY, 0, STATIC
        ARGFRAME ISTACK, 0, STACK
        ARGFRAME PSTACK, 0, STACK
        ARGFRAME XSTACK, 16, STACK
        ARGFRAME IOVERLAY, 0, STATIC
        ARGFRAME DOVERLAY, 0, STATIC
        FUNCALL set_device_data, incode_atox
        LOCFRAME ISTACK, 0, STACK
        LOCFRAME PSTACK, 0, STACK
        LOCFRAME XSTACK, 16, STACK
        LOCFRAME IOVERLAY, 0, STATIC
        LOCFRAME DOVERLAY, 0, STATIC
        ARGFRAME ISTACK, 0, STACK
        ARGFRAME PSTACK, 0, STACK
        ARGFRAME XSTACK, 16, STACK
        ARGFRAME IOVERLAY, 0, STATIC
        ARGFRAME DOVERLAY, 0, STATIC
        FUNCALL set_device_data, IRecvByte
        LOCFRAME ISTACK, 0, STACK
        LOCFRAME PSTACK, 0, STACK
        LOCFRAME XSTACK, 16, STACK
        LOCFRAME IOVERLAY, 0, STATIC
        LOCFRAME DOVERLAY, 0, STATIC
        ARGFRAME ISTACK, 0, STACK
        ARGFRAME PSTACK, 0, STACK
        ARGFRAME XSTACK, 16, STACK
        ARGFRAME IOVERLAY, 0, STATIC
        ARGFRAME DOVERLAY, 0, STATIC
        FUNCALL set_device_data, incode_atox
        LOCFRAME ISTACK, 0, STACK
        LOCFRAME PSTACK, 0, STACK
        LOCFRAME XSTACK, 16, STACK
        LOCFRAME IOVERLAY, 0, STATIC
        LOCFRAME DOVERLAY, 0, STATIC
        ARGFRAME ISTACK, 0, STACK
        ARGFRAME PSTACK, 0, STACK
        ARGFRAME XSTACK, 16, STACK
        ARGFRAME IOVERLAY, 0, STATIC
        ARGFRAME DOVERLAY, 0, STATIC
        FUNCALL set_device_data, IRecvByte
        LOCFRAME ISTACK, 0, STACK
        LOCFRAME PSTACK, 0, STACK
        LOCFRAME XSTACK, 16, STACK
        LOCFRAME IOVERLAY, 0, STATIC
        LOCFRAME DOVERLAY, 0, STATIC
        ARGFRAME ISTACK, 0, STACK
        ARGFRAME PSTACK, 0, STACK
        ARGFRAME XSTACK, 16, STACK
        ARGFRAME IOVERLAY, 0, STATIC
        ARGFRAME DOVERLAY, 0, STATIC
        FUNCALL set_device_data, incode_atox
        LOCFRAME ISTACK, 0, STACK
        LOCFRAME PSTACK, 0, STACK
        LOCFRAME XSTACK, 16, STACK
        LOCFRAME IOVERLAY, 0, STATIC
        LOCFRAME DOVERLAY, 0, STATIC
        ARGFRAME ISTACK, 0, STACK
        ARGFRAME PSTACK, 0, STACK
        ARGFRAME XSTACK, 16, STACK
        ARGFRAME IOVERLAY, 0, STATIC
        ARGFRAME DOVERLAY, 0, STATIC
        FUNCALL set_device_data, IRecvByte
        LOCFRAME ISTACK, 0, STACK
        LOCFRAME PSTACK, 0, STACK
        LOCFRAME XSTACK, 16, STACK
        LOCFRAME IOVERLAY, 0, STATIC
        LOCFRAME DOVERLAY, 0, STATIC
        ARGFRAME ISTACK, 0, STACK
        ARGFRAME PSTACK, 0, STACK
        ARGFRAME XSTACK, 16, STACK
        ARGFRAME IOVERLAY, 0, STATIC
        ARGFRAME DOVERLAY, 0, STATIC
        FUNCALL set_device_data, incode_atox
        LOCFRAME ISTACK, 0, STACK
        LOCFRAME PSTACK, 0, STACK
        LOCFRAME XSTACK, 16, STACK
        LOCFRAME IOVERLAY, 0, STATIC
        LOCFRAME DOVERLAY, 0, STATIC
        ARGFRAME ISTACK, 0, STACK
        ARGFRAME PSTACK, 0, STACK
        ARGFRAME XSTACK, 16, STACK
        ARGFRAME IOVERLAY, 0, STATIC
        ARGFRAME DOVERLAY, 0, STATIC
        FUNCALL set_device_data, set_lightctrl_data
        LOCFRAME ISTACK, 0, STACK
        LOCFRAME PSTACK, 0, STACK
        LOCFRAME XSTACK, 16, STACK
        LOCFRAME IOVERLAY, 0, STATIC
        LOCFRAME DOVERLAY, 0, STATIC
        ARGFRAME ISTACK, 0, STACK
        ARGFRAME PSTACK, 0, STACK
        ARGFRAME XSTACK, 16, STACK
        ARGFRAME IOVERLAY, 0, STATIC
        ARGFRAME DOVERLAY, 0, STATIC
        MOV     A,#-0xf
        LCALL   ?BANKED_ENTER_XDATA
        CFI DPH0 load(1, XDATA, add(CFA_XSP16, literal(-1)))
        CFI DPL0 load(1, XDATA, add(CFA_XSP16, literal(-2)))
        CFI ?BRET_EXT load(1, XDATA, add(CFA_XSP16, literal(-3)))
        CFI ?RET_HIGH load(1, XDATA, add(CFA_XSP16, literal(-4)))
        CFI ?RET_LOW load(1, XDATA, add(CFA_XSP16, literal(-5)))
        CFI R7 load(1, XDATA, add(CFA_XSP16, literal(-6)))
        CFI V6 load(1, XDATA, add(CFA_XSP16, literal(-7)))
        CFI V5 load(1, XDATA, add(CFA_XSP16, literal(-8)))
        CFI V4 load(1, XDATA, add(CFA_XSP16, literal(-9)))
        CFI V3 load(1, XDATA, add(CFA_XSP16, literal(-10)))
        CFI V2 load(1, XDATA, add(CFA_XSP16, literal(-11)))
        CFI V1 load(1, XDATA, add(CFA_XSP16, literal(-12)))
        CFI V0 load(1, XDATA, add(CFA_XSP16, literal(-13)))
        CFI VB load(1, XDATA, add(CFA_XSP16, literal(-14)))
        CFI R6 load(1, XDATA, add(CFA_XSP16, literal(-15)))
        CFI CFA_SP SP+0
        CFI CFA_XSP16 add(XSP16, 15)
        ; Saved register size: 15
        ; Auto size: 1
        MOV     A,#-0x1
        LCALL   ?ALLOC_XSTACK8
        CFI CFA_XSP16 add(XSP16, 16)
        MOV     A,R2
        MOV     R6,A
        MOV     A,R3
        MOV     R7,A
        MOV     ?V0 + 0,R1
//  150 	uint8 i2cAddr;
//  151 	
//  152 	if(dataLen >= 7 && osal_memcmp(optData, DEMOBASE_SETID_HEAD, 5))
        MOV     A,R1
        CLR     C
        SUBB    A,#0x7
        JNC     $+5
        LJMP    ??set_device_data_0 & 0xFFFF
        ; Setup parameters for call to function osal_memcmp
        MOV     ?V0 + 4,#`?<Constant "SETID">` & 0xff
        MOV     ?V0 + 5,#(`?<Constant "SETID">` >> 8) & 0xff
        MOV     ?V0 + 6,#0x0
        MOV     R0,#?V0 + 4
        LCALL   ?PUSH_XSTACK_I_THREE
        CFI CFA_XSP16 add(XSP16, 19)
        LCALL   ?Subroutine14 & 0xFFFF
??CrossCallReturnLabel_25:
        LCALL   ?DEALLOC_XSTACK8
        CFI CFA_XSP16 add(XSP16, 16)
        MOV     A,R1
        JZ      ??set_device_data_0
//  153 	{
//  154 		i2cAddr = atox((uint8 *)(data+5), 2);
        ; Setup parameters for call to function atox
        MOV     R1,#0x2
        MOV     A,R6
        ADD     A,#0x5
        MOV     R2,A
        MOV     A,R7
        ADDC    A,#0x0
        MOV     R3,A
        LCALL   ??atox?relay
        MOV     A,R1
        MOV     DPL,?XSP + 0
        MOV     DPH,?XSP + 1
        MOVX    @DPTR,A
//  155 		if(ISendByte(DEMOBASE_DEVICE_IIC_ADDR, i2cAddr) > 0)
        ; Setup parameters for call to function ISendByte
        MOV     R2,#0x1
        MOV     R3,#0x1
        LCALL   ??ISendByte?relay
        MOV     A,R1
        JZ      ??set_device_data_1
//  156 		{
//  157 			osal_memcpy(optData, DEMOBASE_GETID_HEAD, 5);
        ; Setup parameters for call to function osal_memcpy
        MOV     ?V0 + 4,#`?<Constant "GETID">` & 0xff
        MOV     ?V0 + 5,#(`?<Constant "GETID">` >> 8) & 0xff
        MOV     R0,#?V0 + 4
        LCALL   ?PUSH_XSTACK_I_THREE
        CFI CFA_XSP16 add(XSP16, 19)
        MOV     R4,#0x5
        LCALL   ??Subroutine41_0 & 0xFFFF
??CrossCallReturnLabel_88:
        LCALL   ?DEALLOC_XSTACK8
        CFI CFA_XSP16 add(XSP16, 16)
//  158 			i2cAddr = IRecvByte(DEMOBASE_DEVICE_IIC_ADDR);
        ; Setup parameters for call to function IRecvByte
        LCALL   ?Subroutine5 & 0xFFFF
//  159 			incode_xtocs(optData+5, &i2cAddr, 1);
??CrossCallReturnLabel_5:
        ; Setup parameters for call to function incode_xtocs
        MOV     ?V0 + 2,#0x1
        MOV     ?V0 + 3,#0x0
        MOV     R0,#?V0 + 2
        LCALL   ?PUSH_XSTACK_I_TWO
        CFI CFA_XSP16 add(XSP16, 18)
        MOV     A,#0x2
        LCALL   ?XSTACK_DISP0_8
        MOV     R4,DPL
        MOV     R5,DPH
        LCALL   ??Subroutine37_0 & 0xFFFF
//  160 		}
??CrossCallReturnLabel_66:
        LCALL   ?DEALLOC_XSTACK8
        CFI CFA_XSP16 add(XSP16, 16)
        SJMP    ??set_device_data_2
//  161 		else
//  162 		{
//  163 			osal_memcpy(optData+5, "ER", 2);
??set_device_data_1:
        ; Setup parameters for call to function osal_memcpy
        MOV     ?V0 + 4,#`?<Constant "ER">` & 0xff
        MOV     ?V0 + 5,#(`?<Constant "ER">` >> 8) & 0xff
        MOV     R0,#?V0 + 4
        LCALL   ?PUSH_XSTACK_I_THREE
        CFI CFA_XSP16 add(XSP16, 19)
        MOV     R4,#0x2
        MOV     R5,#0x0
        MOV     DPTR,#optData
        MOVX    A,@DPTR
        ADD     A,#0x5
        MOV     R2,A
        INC     DPTR
        MOVX    A,@DPTR
        ADDC    A,#0x0
        LCALL   ??Subroutine44_0 & 0xFFFF
//  164 		}
??CrossCallReturnLabel_98:
        LCALL   ?DEALLOC_XSTACK8
        CFI CFA_XSP16 add(XSP16, 16)
//  165 		
//  166 		return 0;
??set_device_data_2:
        MOV     R1,#0x0
        LJMP    ??set_device_data_3 & 0xFFFF
//  167 	}
//  168 	
//  169 	i2cAddr = IRecvByte(DEMOBASE_DEVICE_IIC_ADDR);
??set_device_data_0:
        ; Setup parameters for call to function IRecvByte
        LCALL   ?Subroutine5 & 0xFFFF
//  170 	switch(i2cAddr)
??CrossCallReturnLabel_6:
        DEC     A
        JZ      ??set_device_data_4
        DEC     A
        JZ      ??set_device_data_5
        DEC     A
        JZ      ??set_device_data_6
        DEC     A
        JZ      ??set_device_data_6
        DEC     A
        JZ      ??set_device_data_6
        DEC     A
        JZ      ??set_device_data_7
        DEC     A
        JZ      ??set_device_data_8
        SJMP    ??set_device_data_2
//  171 	{
//  172 	case 1: return set_led_data((uint8 *)data, dataLen);
??set_device_data_4:
        ; Setup parameters for call to function IRecvByte
        LCALL   ?Subroutine4 & 0xFFFF
??CrossCallReturnLabel_1:
        JNZ     ??set_device_data_2
        MOV     A,?V0 + 0
        CLR     C
        SUBB    A,#0x4
        JC      ??set_device_data_2
        ; Setup parameters for call to function incode_atox
        LCALL   ?Subroutine28 & 0xFFFF
??CrossCallReturnLabel_45:
        MOV     0x90,A
        SJMP    ??set_device_data_2
//  173 	case 2: return set_plc_data((uint8 *)data, dataLen);
??set_device_data_5:
        ; Setup parameters for call to function IRecvByte
        LCALL   ?Subroutine4 & 0xFFFF
??CrossCallReturnLabel_2:
        JNZ     ??set_device_data_2
        MOV     A,?V0 + 0
        CLR     C
        SUBB    A,#0x4
        JC      ??set_device_data_2
        MOV     DPL,R6
        MOV     DPH,R7
        INC     DPTR
        INC     DPTR
        MOVX    A,@DPTR
        XRL     A,#0x30
        JNZ     ??set_device_data_9
        SETB    0x90.4
        SJMP    ??set_device_data_10
??set_device_data_9:
        CLR     0x90.4
??set_device_data_10:
        MOV     DPL,R6
        MOV     DPH,R7
        INC     DPTR
        INC     DPTR
        INC     DPTR
        MOVX    A,@DPTR
        XRL     A,#0x30
        JNZ     ??set_device_data_11
        SETB    0x90.5
        SJMP    ??set_device_data_2
??set_device_data_11:
        CLR     0x90.5
        SJMP    ??set_device_data_2
//  174 	case 3: return set_rfid_data((uint8 *)data, dataLen);
??set_device_data_6:
        ; Setup parameters for call to function IRecvByte
        LCALL   ?Subroutine4 & 0xFFFF
??CrossCallReturnLabel_3:
        JNZ     ??set_device_data_2
        SJMP    ??set_device_data_12
//  175 	case 4: return set_humiture_data((uint8 *)data, dataLen);
//  176 	case 5: return set_lightdetect_data((uint8 *)data, dataLen);
//  177 	case 6: return set_airdetect_data((uint8 *)data, dataLen);
??set_device_data_7:
        ; Setup parameters for call to function IRecvByte
        LCALL   ?Subroutine4 & 0xFFFF
??CrossCallReturnLabel_4:
        JNZ     ??set_device_data_2
??set_device_data_12:
        MOV     A,?V0 + 0
        CLR     C
        SUBB    A,#0x3
        JC      ??set_device_data_2
        MOV     DPL,R6
        MOV     DPH,R7
        INC     DPTR
        INC     DPTR
        MOVX    A,@DPTR
        MOV     R0,A
        MOV     A,#0x53
        XRL     A,R0
        JNZ     ??set_device_data_13
        MOV     DPTR,#queryStates
        MOV     A,#0x1
??set_device_data_14:
        MOVX    @DPTR,A
        LJMP    ??set_device_data_2 & 0xFFFF
??set_device_data_13:
        MOV     A,#0x50
        XRL     A,R0
        JZ      $+5
        LJMP    ??set_device_data_2 & 0xFFFF
        MOV     DPTR,#queryStates
        CLR     A
        SJMP    ??set_device_data_14
//  178 	case 7: return set_lightctrl_data((uint8 *)data, dataLen);
??set_device_data_8:
        ; Setup parameters for call to function set_lightctrl_data
        MOV     R1,?V0 + 0
        MOV     A,R6
        MOV     R2,A
        MOV     A,R7
        MOV     R3,A
        LCALL   ??set_lightctrl_data?relay
//  179 	}
??set_device_data_3:
        LJMP    ?Subroutine1 & 0xFFFF
        CFI EndBlock cfiBlock3
        REQUIRE _A_P1
//  180 	
//  181 	return 0;
//  182 }

        RSEG BANKED_CODE:CODE:NOROOT(0)
?Subroutine5:
        CFI Block cfiCond4 Using cfiCommon0
        CFI NoFunction
        CFI Conditional ??CrossCallReturnLabel_5
        CFI R6 load(1, XDATA, add(CFA_XSP16, literal(-15)))
        CFI VB load(1, XDATA, add(CFA_XSP16, literal(-14)))
        CFI V0 load(1, XDATA, add(CFA_XSP16, literal(-13)))
        CFI V1 load(1, XDATA, add(CFA_XSP16, literal(-12)))
        CFI V2 load(1, XDATA, add(CFA_XSP16, literal(-11)))
        CFI V3 load(1, XDATA, add(CFA_XSP16, literal(-10)))
        CFI V4 load(1, XDATA, add(CFA_XSP16, literal(-9)))
        CFI V5 load(1, XDATA, add(CFA_XSP16, literal(-8)))
        CFI V6 load(1, XDATA, add(CFA_XSP16, literal(-7)))
        CFI R7 load(1, XDATA, add(CFA_XSP16, literal(-6)))
        CFI ?RET_LOW load(1, XDATA, add(CFA_XSP16, literal(-5)))
        CFI ?RET_HIGH load(1, XDATA, add(CFA_XSP16, literal(-4)))
        CFI ?BRET_EXT load(1, XDATA, add(CFA_XSP16, literal(-3)))
        CFI DPL0 load(1, XDATA, add(CFA_XSP16, literal(-2)))
        CFI DPH0 load(1, XDATA, add(CFA_XSP16, literal(-1)))
        CFI CFA_SP SP+0
        CFI CFA_XSP16 add(XSP16, 16)
        CFI Block cfiCond5 Using cfiCommon0
        CFI (cfiCond5) NoFunction
        CFI (cfiCond5) Conditional ??CrossCallReturnLabel_6
        CFI (cfiCond5) R6 load(1, XDATA, add(CFA_XSP16, literal(-15)))
        CFI (cfiCond5) VB load(1, XDATA, add(CFA_XSP16, literal(-14)))
        CFI (cfiCond5) V0 load(1, XDATA, add(CFA_XSP16, literal(-13)))
        CFI (cfiCond5) V1 load(1, XDATA, add(CFA_XSP16, literal(-12)))
        CFI (cfiCond5) V2 load(1, XDATA, add(CFA_XSP16, literal(-11)))
        CFI (cfiCond5) V3 load(1, XDATA, add(CFA_XSP16, literal(-10)))
        CFI (cfiCond5) V4 load(1, XDATA, add(CFA_XSP16, literal(-9)))
        CFI (cfiCond5) V5 load(1, XDATA, add(CFA_XSP16, literal(-8)))
        CFI (cfiCond5) V6 load(1, XDATA, add(CFA_XSP16, literal(-7)))
        CFI (cfiCond5) R7 load(1, XDATA, add(CFA_XSP16, literal(-6)))
        CFI (cfiCond5) ?RET_LOW load(1, XDATA, add(CFA_XSP16, literal(-5)))
        CFI (cfiCond5) ?RET_HIGH load(1, XDATA, add(CFA_XSP16, literal(-4)))
        CFI (cfiCond5) ?BRET_EXT load(1, XDATA, add(CFA_XSP16, literal(-3)))
        CFI (cfiCond5) DPL0 load(1, XDATA, add(CFA_XSP16, literal(-2)))
        CFI (cfiCond5) DPH0 load(1, XDATA, add(CFA_XSP16, literal(-1)))
        CFI (cfiCond5) CFA_SP SP+0
        CFI (cfiCond5) CFA_XSP16 add(XSP16, 16)
        CFI Block cfiPicker6 Using cfiCommon1
        CFI (cfiPicker6) NoFunction
        CFI (cfiPicker6) Picker
        MOV     R2,#0x1
        MOV     R3,#0x1
        LCALL   ??IRecvByte?relay
        MOV     A,R1
        MOV     DPL,?XSP + 0
        MOV     DPH,?XSP + 1
        MOVX    @DPTR,A
        RET
        CFI EndBlock cfiCond4
        CFI EndBlock cfiCond5
        CFI EndBlock cfiPicker6
//  183 
//  184 

        RSEG BANKED_CODE:CODE:NOROOT(0)
//  185 int8 get_device_data(uint8 *data, uint8 *dataLen)
get_device_data:
        CFI Block cfiBlock7 Using cfiCommon0
        CFI Function get_device_data
        CODE
//  186 {
        FUNCALL get_device_data, osal_memcmp
        LOCFRAME ISTACK, 0, STACK
        LOCFRAME PSTACK, 0, STACK
        LOCFRAME XSTACK, 19, STACK
        LOCFRAME IOVERLAY, 0, STATIC
        LOCFRAME DOVERLAY, 0, STATIC
        ARGFRAME ISTACK, 0, STACK
        ARGFRAME PSTACK, 0, STACK
        ARGFRAME XSTACK, 19, STACK
        ARGFRAME IOVERLAY, 0, STATIC
        ARGFRAME DOVERLAY, 0, STATIC
        FUNCALL get_device_data, osal_memcmp
        LOCFRAME ISTACK, 0, STACK
        LOCFRAME PSTACK, 0, STACK
        LOCFRAME XSTACK, 19, STACK
        LOCFRAME IOVERLAY, 0, STATIC
        LOCFRAME DOVERLAY, 0, STATIC
        ARGFRAME ISTACK, 0, STACK
        ARGFRAME PSTACK, 0, STACK
        ARGFRAME XSTACK, 19, STACK
        ARGFRAME IOVERLAY, 0, STATIC
        ARGFRAME DOVERLAY, 0, STATIC
        FUNCALL get_device_data, osal_memcpy
        LOCFRAME ISTACK, 0, STACK
        LOCFRAME PSTACK, 0, STACK
        LOCFRAME XSTACK, 19, STACK
        LOCFRAME IOVERLAY, 0, STATIC
        LOCFRAME DOVERLAY, 0, STATIC
        ARGFRAME ISTACK, 0, STACK
        ARGFRAME PSTACK, 0, STACK
        ARGFRAME XSTACK, 19, STACK
        ARGFRAME IOVERLAY, 0, STATIC
        ARGFRAME DOVERLAY, 0, STATIC
        FUNCALL get_device_data, IRecvByte
        LOCFRAME ISTACK, 0, STACK
        LOCFRAME PSTACK, 0, STACK
        LOCFRAME XSTACK, 16, STACK
        LOCFRAME IOVERLAY, 0, STATIC
        LOCFRAME DOVERLAY, 0, STATIC
        ARGFRAME ISTACK, 0, STACK
        ARGFRAME PSTACK, 0, STACK
        ARGFRAME XSTACK, 16, STACK
        ARGFRAME IOVERLAY, 0, STATIC
        ARGFRAME DOVERLAY, 0, STATIC
        FUNCALL get_device_data, osal_mem_free
        LOCFRAME ISTACK, 0, STACK
        LOCFRAME PSTACK, 0, STACK
        LOCFRAME XSTACK, 16, STACK
        LOCFRAME IOVERLAY, 0, STATIC
        LOCFRAME DOVERLAY, 0, STATIC
        ARGFRAME ISTACK, 0, STACK
        ARGFRAME PSTACK, 0, STACK
        ARGFRAME XSTACK, 16, STACK
        ARGFRAME IOVERLAY, 0, STATIC
        ARGFRAME DOVERLAY, 0, STATIC
        FUNCALL get_device_data, osal_mem_alloc
        LOCFRAME ISTACK, 0, STACK
        LOCFRAME PSTACK, 0, STACK
        LOCFRAME XSTACK, 16, STACK
        LOCFRAME IOVERLAY, 0, STATIC
        LOCFRAME DOVERLAY, 0, STATIC
        ARGFRAME ISTACK, 0, STACK
        ARGFRAME PSTACK, 0, STACK
        ARGFRAME XSTACK, 16, STACK
        ARGFRAME IOVERLAY, 0, STATIC
        ARGFRAME DOVERLAY, 0, STATIC
        FUNCALL get_device_data, osal_memcpy
        LOCFRAME ISTACK, 0, STACK
        LOCFRAME PSTACK, 0, STACK
        LOCFRAME XSTACK, 19, STACK
        LOCFRAME IOVERLAY, 0, STATIC
        LOCFRAME DOVERLAY, 0, STATIC
        ARGFRAME ISTACK, 0, STACK
        ARGFRAME PSTACK, 0, STACK
        ARGFRAME XSTACK, 19, STACK
        ARGFRAME IOVERLAY, 0, STATIC
        ARGFRAME DOVERLAY, 0, STATIC
        FUNCALL get_device_data, incode_xtocs
        LOCFRAME ISTACK, 0, STACK
        LOCFRAME PSTACK, 0, STACK
        LOCFRAME XSTACK, 18, STACK
        LOCFRAME IOVERLAY, 0, STATIC
        LOCFRAME DOVERLAY, 0, STATIC
        ARGFRAME ISTACK, 0, STACK
        ARGFRAME PSTACK, 0, STACK
        ARGFRAME XSTACK, 18, STACK
        ARGFRAME IOVERLAY, 0, STATIC
        ARGFRAME DOVERLAY, 0, STATIC
        FUNCALL get_device_data, osal_memcpy
        LOCFRAME ISTACK, 0, STACK
        LOCFRAME PSTACK, 0, STACK
        LOCFRAME XSTACK, 19, STACK
        LOCFRAME IOVERLAY, 0, STATIC
        LOCFRAME DOVERLAY, 0, STATIC
        ARGFRAME ISTACK, 0, STACK
        ARGFRAME PSTACK, 0, STACK
        ARGFRAME XSTACK, 19, STACK
        ARGFRAME IOVERLAY, 0, STATIC
        ARGFRAME DOVERLAY, 0, STATIC
        FUNCALL get_device_data, get_plc_data
        LOCFRAME ISTACK, 0, STACK
        LOCFRAME PSTACK, 0, STACK
        LOCFRAME XSTACK, 16, STACK
        LOCFRAME IOVERLAY, 0, STATIC
        LOCFRAME DOVERLAY, 0, STATIC
        ARGFRAME ISTACK, 0, STACK
        ARGFRAME PSTACK, 0, STACK
        ARGFRAME XSTACK, 16, STACK
        ARGFRAME IOVERLAY, 0, STATIC
        ARGFRAME DOVERLAY, 0, STATIC
        FUNCALL get_device_data, get_rfid_data
        LOCFRAME ISTACK, 0, STACK
        LOCFRAME PSTACK, 0, STACK
        LOCFRAME XSTACK, 16, STACK
        LOCFRAME IOVERLAY, 0, STATIC
        LOCFRAME DOVERLAY, 0, STATIC
        ARGFRAME ISTACK, 0, STACK
        ARGFRAME PSTACK, 0, STACK
        ARGFRAME XSTACK, 16, STACK
        ARGFRAME IOVERLAY, 0, STATIC
        ARGFRAME DOVERLAY, 0, STATIC
        FUNCALL get_device_data, get_humiture_data
        LOCFRAME ISTACK, 0, STACK
        LOCFRAME PSTACK, 0, STACK
        LOCFRAME XSTACK, 16, STACK
        LOCFRAME IOVERLAY, 0, STATIC
        LOCFRAME DOVERLAY, 0, STATIC
        ARGFRAME ISTACK, 0, STACK
        ARGFRAME PSTACK, 0, STACK
        ARGFRAME XSTACK, 16, STACK
        ARGFRAME IOVERLAY, 0, STATIC
        ARGFRAME DOVERLAY, 0, STATIC
        FUNCALL get_device_data, get_lightdetect_data
        LOCFRAME ISTACK, 0, STACK
        LOCFRAME PSTACK, 0, STACK
        LOCFRAME XSTACK, 16, STACK
        LOCFRAME IOVERLAY, 0, STATIC
        LOCFRAME DOVERLAY, 0, STATIC
        ARGFRAME ISTACK, 0, STACK
        ARGFRAME PSTACK, 0, STACK
        ARGFRAME XSTACK, 16, STACK
        ARGFRAME IOVERLAY, 0, STATIC
        ARGFRAME DOVERLAY, 0, STATIC
        FUNCALL get_device_data, get_airdetect_data
        LOCFRAME ISTACK, 0, STACK
        LOCFRAME PSTACK, 0, STACK
        LOCFRAME XSTACK, 16, STACK
        LOCFRAME IOVERLAY, 0, STATIC
        LOCFRAME DOVERLAY, 0, STATIC
        ARGFRAME ISTACK, 0, STACK
        ARGFRAME PSTACK, 0, STACK
        ARGFRAME XSTACK, 16, STACK
        ARGFRAME IOVERLAY, 0, STATIC
        ARGFRAME DOVERLAY, 0, STATIC
        FUNCALL get_device_data, osal_mem_free
        LOCFRAME ISTACK, 0, STACK
        LOCFRAME PSTACK, 0, STACK
        LOCFRAME XSTACK, 16, STACK
        LOCFRAME IOVERLAY, 0, STATIC
        LOCFRAME DOVERLAY, 0, STATIC
        ARGFRAME ISTACK, 0, STACK
        ARGFRAME PSTACK, 0, STACK
        ARGFRAME XSTACK, 16, STACK
        ARGFRAME IOVERLAY, 0, STATIC
        ARGFRAME DOVERLAY, 0, STATIC
        FUNCALL get_device_data, osal_mem_alloc
        LOCFRAME ISTACK, 0, STACK
        LOCFRAME PSTACK, 0, STACK
        LOCFRAME XSTACK, 16, STACK
        LOCFRAME IOVERLAY, 0, STATIC
        LOCFRAME DOVERLAY, 0, STATIC
        ARGFRAME ISTACK, 0, STACK
        ARGFRAME PSTACK, 0, STACK
        ARGFRAME XSTACK, 16, STACK
        ARGFRAME IOVERLAY, 0, STATIC
        ARGFRAME DOVERLAY, 0, STATIC
        FUNCALL get_device_data, osal_memcpy
        LOCFRAME ISTACK, 0, STACK
        LOCFRAME PSTACK, 0, STACK
        LOCFRAME XSTACK, 19, STACK
        LOCFRAME IOVERLAY, 0, STATIC
        LOCFRAME DOVERLAY, 0, STATIC
        ARGFRAME ISTACK, 0, STACK
        ARGFRAME PSTACK, 0, STACK
        ARGFRAME XSTACK, 19, STACK
        ARGFRAME IOVERLAY, 0, STATIC
        ARGFRAME DOVERLAY, 0, STATIC
        FUNCALL get_device_data, incode_xtocs
        LOCFRAME ISTACK, 0, STACK
        LOCFRAME PSTACK, 0, STACK
        LOCFRAME XSTACK, 18, STACK
        LOCFRAME IOVERLAY, 0, STATIC
        LOCFRAME DOVERLAY, 0, STATIC
        ARGFRAME ISTACK, 0, STACK
        ARGFRAME PSTACK, 0, STACK
        ARGFRAME XSTACK, 18, STACK
        ARGFRAME IOVERLAY, 0, STATIC
        ARGFRAME DOVERLAY, 0, STATIC
        FUNCALL get_device_data, osal_memcpy
        LOCFRAME ISTACK, 0, STACK
        LOCFRAME PSTACK, 0, STACK
        LOCFRAME XSTACK, 19, STACK
        LOCFRAME IOVERLAY, 0, STATIC
        LOCFRAME DOVERLAY, 0, STATIC
        ARGFRAME ISTACK, 0, STACK
        ARGFRAME PSTACK, 0, STACK
        ARGFRAME XSTACK, 19, STACK
        ARGFRAME IOVERLAY, 0, STATIC
        ARGFRAME DOVERLAY, 0, STATIC
        MOV     A,#-0xf
        LCALL   ?BANKED_ENTER_XDATA
        CFI DPH0 load(1, XDATA, add(CFA_XSP16, literal(-1)))
        CFI DPL0 load(1, XDATA, add(CFA_XSP16, literal(-2)))
        CFI ?BRET_EXT load(1, XDATA, add(CFA_XSP16, literal(-3)))
        CFI ?RET_HIGH load(1, XDATA, add(CFA_XSP16, literal(-4)))
        CFI ?RET_LOW load(1, XDATA, add(CFA_XSP16, literal(-5)))
        CFI R7 load(1, XDATA, add(CFA_XSP16, literal(-6)))
        CFI V6 load(1, XDATA, add(CFA_XSP16, literal(-7)))
        CFI V5 load(1, XDATA, add(CFA_XSP16, literal(-8)))
        CFI V4 load(1, XDATA, add(CFA_XSP16, literal(-9)))
        CFI V3 load(1, XDATA, add(CFA_XSP16, literal(-10)))
        CFI V2 load(1, XDATA, add(CFA_XSP16, literal(-11)))
        CFI V1 load(1, XDATA, add(CFA_XSP16, literal(-12)))
        CFI V0 load(1, XDATA, add(CFA_XSP16, literal(-13)))
        CFI VB load(1, XDATA, add(CFA_XSP16, literal(-14)))
        CFI R6 load(1, XDATA, add(CFA_XSP16, literal(-15)))
        CFI CFA_SP SP+0
        CFI CFA_XSP16 add(XSP16, 15)
        ; Saved register size: 15
        ; Auto size: 1
        MOV     A,#-0x1
        LCALL   ?ALLOC_XSTACK8
        CFI CFA_XSP16 add(XSP16, 16)
        MOV     ?V0 + 0,R2
        MOV     ?V0 + 1,R3
        MOV     A,R4
        MOV     R6,A
        MOV     A,R5
        MOV     R7,A
//  187 	if(osal_memcmp(optData, DEMOBASE_SETID_HEAD, 5)
//  188 		|| osal_memcmp(optData, DEMOBASE_GETID_HEAD, 5))
        ; Setup parameters for call to function osal_memcmp
        MOV     ?V0 + 4,#`?<Constant "SETID">` & 0xff
        MOV     ?V0 + 5,#(`?<Constant "SETID">` >> 8) & 0xff
        MOV     ?V0 + 6,#0x0
        MOV     R0,#?V0 + 4
        LCALL   ?PUSH_XSTACK_I_THREE
        CFI CFA_XSP16 add(XSP16, 19)
        LCALL   ?Subroutine14 & 0xFFFF
??CrossCallReturnLabel_26:
        LCALL   ?DEALLOC_XSTACK8
        CFI CFA_XSP16 add(XSP16, 16)
        MOV     A,R1
        JNZ     ??get_device_data_0
        ; Setup parameters for call to function osal_memcmp
        MOV     ?V0 + 4,#`?<Constant "GETID">` & 0xff
        MOV     ?V0 + 5,#(`?<Constant "GETID">` >> 8) & 0xff
        MOV     R0,#?V0 + 4
        LCALL   ?PUSH_XSTACK_I_THREE
        CFI CFA_XSP16 add(XSP16, 19)
        LCALL   ?Subroutine14 & 0xFFFF
??CrossCallReturnLabel_27:
        LCALL   ?DEALLOC_XSTACK8
        CFI CFA_XSP16 add(XSP16, 16)
        MOV     A,R1
        JZ      ??get_device_data_1
//  189 	{
//  190 		osal_memcpy(data, optData, 7);
??get_device_data_0:
        ; Setup parameters for call to function osal_memcpy
        LCALL   ??Subroutine50_0 & 0xFFFF
??CrossCallReturnLabel_122:
        LCALL   ?PUSH_XSTACK_I_THREE
        CFI CFA_XSP16 add(XSP16, 19)
        MOV     R4,#0x7
        MOV     R5,#0x0
        MOV     R2,?V0 + 0
        MOV     R3,?V0 + 1
        LCALL   ??Subroutine45_0 & 0xFFFF
??CrossCallReturnLabel_99:
        LCALL   ?DEALLOC_XSTACK8
        CFI CFA_XSP16 add(XSP16, 16)
//  191 		*dataLen = 7;
        MOV     DPL,R6
        MOV     DPH,R7
        MOV     A,#0x7
        LJMP    ??get_device_data_2 & 0xFFFF
//  192 		
//  193 		return 0;
//  194 	}
//  195 	
//  196 	uint8 i2cAddr = IRecvByte(DEMOBASE_DEVICE_IIC_ADDR);
//  197 	switch(i2cAddr)
??get_device_data_1:
        ; Setup parameters for call to function IRecvByte
        MOV     R2,#0x1
        MOV     R3,#0x1
        LCALL   ??IRecvByte?relay
        MOV     A,R1
        DEC     A
        JZ      ??get_device_data_3
        DEC     A
        JNZ     $+5
        LJMP    ??get_device_data_4 & 0xFFFF
        DEC     A
        JNZ     $+5
        LJMP    ??get_device_data_5 & 0xFFFF
        DEC     A
        JNZ     $+5
        LJMP    ??get_device_data_6 & 0xFFFF
        DEC     A
        JNZ     $+5
        LJMP    ??get_device_data_7 & 0xFFFF
        DEC     A
        JNZ     $+5
        LJMP    ??get_device_data_8 & 0xFFFF
        DEC     A
        JNZ     $+5
        LJMP    ??get_device_data_9 & 0xFFFF
        LJMP    ??get_device_data_10 & 0xFFFF
//  198 	{
//  199 	case 1: return get_led_data(data, dataLen);
??get_device_data_3:
        LCALL   ??Subroutine46_0 & 0xFFFF
??CrossCallReturnLabel_107:
        JZ      ??CrossCallReturnLabel_13
        MOV     DPTR,#optDataLen
        MOVX    A,@DPTR
        CLR     C
        SUBB    A,#0x4
        JNC     ??CrossCallReturnLabel_38
        ; Setup parameters for call to function osal_mem_free
        LCALL   ?Subroutine10 & 0xFFFF
??CrossCallReturnLabel_13:
        ; Setup parameters for call to function osal_mem_alloc
        LCALL   ?Subroutine23 & 0xFFFF
??CrossCallReturnLabel_38:
        ; Setup parameters for call to function osal_memcpy
        MOV     ?V0 + 4,#`?<Constant "01">` & 0xff
        MOV     ?V0 + 5,#(`?<Constant "01">` >> 8) & 0xff
        MOV     R0,#?V0 + 4
        LCALL   ?PUSH_XSTACK_I_THREE
        CFI CFA_XSP16 add(XSP16, 19)
        LCALL   ?Subroutine7 & 0xFFFF
??CrossCallReturnLabel_77:
        LCALL   ?DEALLOC_XSTACK8
        CFI CFA_XSP16 add(XSP16, 16)
        MOV     A,0x90
        MOV     DPL,?XSP + 0
        MOV     DPH,?XSP + 1
        LCALL   ??Subroutine48_0 & 0xFFFF
??CrossCallReturnLabel_116:
        LCALL   ?PUSH_XSTACK_I_TWO
        CFI CFA_XSP16 add(XSP16, 18)
        MOV     A,#0x2
        LCALL   ?XSTACK_DISP0_8
        MOV     R4,DPL
        MOV     R5,DPH
        MOV     DPTR,#optData
        MOVX    A,@DPTR
        ADD     A,#0x2
        LCALL   ??Subroutine38_0 & 0xFFFF
??CrossCallReturnLabel_67:
        LCALL   ?DEALLOC_XSTACK8
        CFI CFA_XSP16 add(XSP16, 16)
        ; Setup parameters for call to function osal_memcpy
        LCALL   ??Subroutine50_0 & 0xFFFF
??CrossCallReturnLabel_123:
        LCALL   ?PUSH_XSTACK_I_THREE
        CFI CFA_XSP16 add(XSP16, 19)
        MOV     DPTR,#optDataLen
        MOVX    A,@DPTR
        MOV     R4,A
        MOV     R5,#0x0
        MOV     R2,?V0 + 0
        MOV     R3,?V0 + 1
        LCALL   ??Subroutine45_0 & 0xFFFF
??CrossCallReturnLabel_100:
        LCALL   ?DEALLOC_XSTACK8
        CFI CFA_XSP16 add(XSP16, 16)
        MOV     DPTR,#optDataLen
        MOVX    A,@DPTR
        MOV     DPL,R6
        MOV     DPH,R7
        LJMP    ??get_device_data_2 & 0xFFFF
//  200 	case 2: return get_plc_data(data, dataLen);
??get_device_data_4:
        ; Setup parameters for call to function get_plc_data
        MOV     A,R6
        MOV     R4,A
        MOV     A,R7
        MOV     R5,A
        MOV     R2,?V0 + 0
        MOV     R3,?V0 + 1
        LCALL   ??get_plc_data?relay
        LJMP    ??get_device_data_11 & 0xFFFF
//  201 	case 3: return get_rfid_data(data, dataLen);
??get_device_data_5:
        ; Setup parameters for call to function get_rfid_data
        MOV     A,R6
        MOV     R4,A
        MOV     A,R7
        MOV     R5,A
        MOV     R2,?V0 + 0
        MOV     R3,?V0 + 1
        LCALL   ??get_rfid_data?relay
        LJMP    ??get_device_data_11 & 0xFFFF
//  202 	case 4: return get_humiture_data(data, dataLen);
??get_device_data_6:
        ; Setup parameters for call to function get_humiture_data
        MOV     A,R6
        MOV     R4,A
        MOV     A,R7
        MOV     R5,A
        MOV     R2,?V0 + 0
        MOV     R3,?V0 + 1
        LCALL   ??get_humiture_data?relay
        SJMP    ??get_device_data_11
//  203 	case 5: return get_lightdetect_data(data, dataLen);
??get_device_data_7:
        ; Setup parameters for call to function get_lightdetect_data
        MOV     A,R6
        MOV     R4,A
        MOV     A,R7
        MOV     R5,A
        MOV     R2,?V0 + 0
        MOV     R3,?V0 + 1
        LCALL   ??get_lightdetect_data?relay
        SJMP    ??get_device_data_11
//  204 	case 6: return get_airdetect_data(data, dataLen);
??get_device_data_8:
        ; Setup parameters for call to function get_airdetect_data
        MOV     A,R6
        MOV     R4,A
        MOV     A,R7
        MOV     R5,A
        MOV     R2,?V0 + 0
        MOV     R3,?V0 + 1
        LCALL   ??get_airdetect_data?relay
        SJMP    ??get_device_data_11
//  205 	case 7: return get_lightctrl_data(data, dataLen);
??get_device_data_9:
        LCALL   ??Subroutine46_0 & 0xFFFF
??CrossCallReturnLabel_108:
        JZ      ??CrossCallReturnLabel_14
        MOV     DPTR,#optDataLen
        MOVX    A,@DPTR
        CLR     C
        SUBB    A,#0x4
        JNC     ??CrossCallReturnLabel_39
        ; Setup parameters for call to function osal_mem_free
        LCALL   ?Subroutine10 & 0xFFFF
??CrossCallReturnLabel_14:
        ; Setup parameters for call to function osal_mem_alloc
        LCALL   ?Subroutine23 & 0xFFFF
??CrossCallReturnLabel_39:
        ; Setup parameters for call to function osal_memcpy
        MOV     ?V0 + 4,#`?<Constant "07">` & 0xff
        MOV     ?V0 + 5,#(`?<Constant "07">` >> 8) & 0xff
        MOV     R0,#?V0 + 4
        LCALL   ?PUSH_XSTACK_I_THREE
        CFI CFA_XSP16 add(XSP16, 19)
        LCALL   ?Subroutine7 & 0xFFFF
??CrossCallReturnLabel_78:
        LCALL   ?DEALLOC_XSTACK8
        CFI CFA_XSP16 add(XSP16, 16)
        ; Setup parameters for call to function incode_xtocs
        MOV     ?V0 + 2,#0x1
        MOV     ?V0 + 3,#0x0
        MOV     R0,#?V0 + 2
        LCALL   ?PUSH_XSTACK_I_TWO
        CFI CFA_XSP16 add(XSP16, 18)
        MOV     R4,#lightCtrlStates & 0xff
        MOV     R5,#(lightCtrlStates >> 8) & 0xff
        MOV     DPTR,#optData
        MOVX    A,@DPTR
        ADD     A,#0x2
        LCALL   ??Subroutine38_0 & 0xFFFF
??CrossCallReturnLabel_68:
        LCALL   ?DEALLOC_XSTACK8
        CFI CFA_XSP16 add(XSP16, 16)
        ; Setup parameters for call to function osal_memcpy
        LCALL   ??Subroutine50_0 & 0xFFFF
??CrossCallReturnLabel_124:
        LCALL   ?PUSH_XSTACK_I_THREE
        CFI CFA_XSP16 add(XSP16, 19)
        MOV     R4,#0x4
        MOV     R5,#0x0
        MOV     R2,?V0 + 0
        MOV     R3,?V0 + 1
        LCALL   ??Subroutine45_0 & 0xFFFF
??CrossCallReturnLabel_101:
        LCALL   ?DEALLOC_XSTACK8
        CFI CFA_XSP16 add(XSP16, 16)
        MOV     DPL,R6
        MOV     DPH,R7
        MOV     A,#0x4
??get_device_data_2:
        MOVX    @DPTR,A
//  206 	}
//  207 	
//  208 	return 0;
??get_device_data_10:
        MOV     R1,#0x0
??get_device_data_11:
        LJMP    ?Subroutine1 & 0xFFFF
        CFI EndBlock cfiBlock7
        REQUIRE _A_P1
//  209 }

        RSEG BANKED_CODE:CODE:NOROOT(0)
?Subroutine23:
        CFI Block cfiCond8 Using cfiCommon0
        CFI NoFunction
        CFI Conditional ??CrossCallReturnLabel_38
        CFI R6 load(1, XDATA, add(CFA_XSP16, literal(-15)))
        CFI VB load(1, XDATA, add(CFA_XSP16, literal(-14)))
        CFI V0 load(1, XDATA, add(CFA_XSP16, literal(-13)))
        CFI V1 load(1, XDATA, add(CFA_XSP16, literal(-12)))
        CFI V2 load(1, XDATA, add(CFA_XSP16, literal(-11)))
        CFI V3 load(1, XDATA, add(CFA_XSP16, literal(-10)))
        CFI V4 load(1, XDATA, add(CFA_XSP16, literal(-9)))
        CFI V5 load(1, XDATA, add(CFA_XSP16, literal(-8)))
        CFI V6 load(1, XDATA, add(CFA_XSP16, literal(-7)))
        CFI R7 load(1, XDATA, add(CFA_XSP16, literal(-6)))
        CFI ?RET_LOW load(1, XDATA, add(CFA_XSP16, literal(-5)))
        CFI ?RET_HIGH load(1, XDATA, add(CFA_XSP16, literal(-4)))
        CFI ?BRET_EXT load(1, XDATA, add(CFA_XSP16, literal(-3)))
        CFI DPL0 load(1, XDATA, add(CFA_XSP16, literal(-2)))
        CFI DPH0 load(1, XDATA, add(CFA_XSP16, literal(-1)))
        CFI CFA_SP SP+0
        CFI CFA_XSP16 add(XSP16, 16)
        CFI Block cfiCond9 Using cfiCommon0
        CFI (cfiCond9) NoFunction
        CFI (cfiCond9) Conditional ??CrossCallReturnLabel_39
        CFI (cfiCond9) R6 load(1, XDATA, add(CFA_XSP16, literal(-15)))
        CFI (cfiCond9) VB load(1, XDATA, add(CFA_XSP16, literal(-14)))
        CFI (cfiCond9) V0 load(1, XDATA, add(CFA_XSP16, literal(-13)))
        CFI (cfiCond9) V1 load(1, XDATA, add(CFA_XSP16, literal(-12)))
        CFI (cfiCond9) V2 load(1, XDATA, add(CFA_XSP16, literal(-11)))
        CFI (cfiCond9) V3 load(1, XDATA, add(CFA_XSP16, literal(-10)))
        CFI (cfiCond9) V4 load(1, XDATA, add(CFA_XSP16, literal(-9)))
        CFI (cfiCond9) V5 load(1, XDATA, add(CFA_XSP16, literal(-8)))
        CFI (cfiCond9) V6 load(1, XDATA, add(CFA_XSP16, literal(-7)))
        CFI (cfiCond9) R7 load(1, XDATA, add(CFA_XSP16, literal(-6)))
        CFI (cfiCond9) ?RET_LOW load(1, XDATA, add(CFA_XSP16, literal(-5)))
        CFI (cfiCond9) ?RET_HIGH load(1, XDATA, add(CFA_XSP16, literal(-4)))
        CFI (cfiCond9) ?BRET_EXT load(1, XDATA, add(CFA_XSP16, literal(-3)))
        CFI (cfiCond9) DPL0 load(1, XDATA, add(CFA_XSP16, literal(-2)))
        CFI (cfiCond9) DPH0 load(1, XDATA, add(CFA_XSP16, literal(-1)))
        CFI (cfiCond9) CFA_SP SP+0
        CFI (cfiCond9) CFA_XSP16 add(XSP16, 16)
        CFI Block cfiPicker10 Using cfiCommon1
        CFI (cfiPicker10) NoFunction
        CFI (cfiPicker10) Picker
        MOV     R2,#0x4
        LCALL   ?Subroutine30 & 0xFFFF
??CrossCallReturnLabel_48:
        MOV     A,#0x4
        MOVX    @DPTR,A
        RET
        CFI EndBlock cfiCond8
        CFI EndBlock cfiCond9
        CFI EndBlock cfiPicker10

        RSEG BANKED_CODE:CODE:NOROOT(0)
?Subroutine14:
        CFI Block cfiCond11 Using cfiCommon0
        CFI NoFunction
        CFI Conditional ??CrossCallReturnLabel_25
        CFI R6 load(1, XDATA, add(CFA_XSP16, literal(-15)))
        CFI VB load(1, XDATA, add(CFA_XSP16, literal(-14)))
        CFI V0 load(1, XDATA, add(CFA_XSP16, literal(-13)))
        CFI V1 load(1, XDATA, add(CFA_XSP16, literal(-12)))
        CFI V2 load(1, XDATA, add(CFA_XSP16, literal(-11)))
        CFI V3 load(1, XDATA, add(CFA_XSP16, literal(-10)))
        CFI V4 load(1, XDATA, add(CFA_XSP16, literal(-9)))
        CFI V5 load(1, XDATA, add(CFA_XSP16, literal(-8)))
        CFI V6 load(1, XDATA, add(CFA_XSP16, literal(-7)))
        CFI R7 load(1, XDATA, add(CFA_XSP16, literal(-6)))
        CFI ?RET_LOW load(1, XDATA, add(CFA_XSP16, literal(-5)))
        CFI ?RET_HIGH load(1, XDATA, add(CFA_XSP16, literal(-4)))
        CFI ?BRET_EXT load(1, XDATA, add(CFA_XSP16, literal(-3)))
        CFI DPL0 load(1, XDATA, add(CFA_XSP16, literal(-2)))
        CFI DPH0 load(1, XDATA, add(CFA_XSP16, literal(-1)))
        CFI CFA_SP SP+0
        CFI CFA_XSP16 add(XSP16, 19)
        CFI Block cfiCond12 Using cfiCommon0
        CFI (cfiCond12) NoFunction
        CFI (cfiCond12) Conditional ??CrossCallReturnLabel_26
        CFI (cfiCond12) R6 load(1, XDATA, add(CFA_XSP16, literal(-15)))
        CFI (cfiCond12) VB load(1, XDATA, add(CFA_XSP16, literal(-14)))
        CFI (cfiCond12) V0 load(1, XDATA, add(CFA_XSP16, literal(-13)))
        CFI (cfiCond12) V1 load(1, XDATA, add(CFA_XSP16, literal(-12)))
        CFI (cfiCond12) V2 load(1, XDATA, add(CFA_XSP16, literal(-11)))
        CFI (cfiCond12) V3 load(1, XDATA, add(CFA_XSP16, literal(-10)))
        CFI (cfiCond12) V4 load(1, XDATA, add(CFA_XSP16, literal(-9)))
        CFI (cfiCond12) V5 load(1, XDATA, add(CFA_XSP16, literal(-8)))
        CFI (cfiCond12) V6 load(1, XDATA, add(CFA_XSP16, literal(-7)))
        CFI (cfiCond12) R7 load(1, XDATA, add(CFA_XSP16, literal(-6)))
        CFI (cfiCond12) ?RET_LOW load(1, XDATA, add(CFA_XSP16, literal(-5)))
        CFI (cfiCond12) ?RET_HIGH load(1, XDATA, add(CFA_XSP16, literal(-4)))
        CFI (cfiCond12) ?BRET_EXT load(1, XDATA, add(CFA_XSP16, literal(-3)))
        CFI (cfiCond12) DPL0 load(1, XDATA, add(CFA_XSP16, literal(-2)))
        CFI (cfiCond12) DPH0 load(1, XDATA, add(CFA_XSP16, literal(-1)))
        CFI (cfiCond12) CFA_SP SP+0
        CFI (cfiCond12) CFA_XSP16 add(XSP16, 19)
        CFI Block cfiCond13 Using cfiCommon0
        CFI (cfiCond13) NoFunction
        CFI (cfiCond13) Conditional ??CrossCallReturnLabel_27
        CFI (cfiCond13) R6 load(1, XDATA, add(CFA_XSP16, literal(-15)))
        CFI (cfiCond13) VB load(1, XDATA, add(CFA_XSP16, literal(-14)))
        CFI (cfiCond13) V0 load(1, XDATA, add(CFA_XSP16, literal(-13)))
        CFI (cfiCond13) V1 load(1, XDATA, add(CFA_XSP16, literal(-12)))
        CFI (cfiCond13) V2 load(1, XDATA, add(CFA_XSP16, literal(-11)))
        CFI (cfiCond13) V3 load(1, XDATA, add(CFA_XSP16, literal(-10)))
        CFI (cfiCond13) V4 load(1, XDATA, add(CFA_XSP16, literal(-9)))
        CFI (cfiCond13) V5 load(1, XDATA, add(CFA_XSP16, literal(-8)))
        CFI (cfiCond13) V6 load(1, XDATA, add(CFA_XSP16, literal(-7)))
        CFI (cfiCond13) R7 load(1, XDATA, add(CFA_XSP16, literal(-6)))
        CFI (cfiCond13) ?RET_LOW load(1, XDATA, add(CFA_XSP16, literal(-5)))
        CFI (cfiCond13) ?RET_HIGH load(1, XDATA, add(CFA_XSP16, literal(-4)))
        CFI (cfiCond13) ?BRET_EXT load(1, XDATA, add(CFA_XSP16, literal(-3)))
        CFI (cfiCond13) DPL0 load(1, XDATA, add(CFA_XSP16, literal(-2)))
        CFI (cfiCond13) DPH0 load(1, XDATA, add(CFA_XSP16, literal(-1)))
        CFI (cfiCond13) CFA_SP SP+0
        CFI (cfiCond13) CFA_XSP16 add(XSP16, 19)
        CFI Block cfiPicker14 Using cfiCommon1
        CFI (cfiPicker14) NoFunction
        CFI (cfiPicker14) Picker
        MOV     R4,#0x5
        MOV     R5,#0x0
        LCALL   ?Subroutine35 & 0xFFFF
??CrossCallReturnLabel_59:
        MOV     R1,DPL
        MOV     R2,DPH
        MOV     R3,#0x0
        LCALL   ??osal_memcmp?relay
        MOV     A,#0x3
        RET
        CFI EndBlock cfiCond11
        CFI EndBlock cfiCond12
        CFI EndBlock cfiCond13
        CFI EndBlock cfiPicker14
//  210 
//  211 void led_init(void)
//  212 {
//  213 	HAL_INIT_BASELED();
//  214 }
//  215 
//  216 void plc_init(void)
//  217 {
//  218 	HAL_INIT_PLCIN1();
//  219 	HAL_INIT_PLCIN2();
//  220 	HAL_INIT_PLCOUT1();
//  221 	HAL_INIT_PLCOUT2();
//  222 }
//  223 
//  224 void rfid_init(void)
//  225 {
//  226 	HAL_INIT_RFIDBEE();
//  227 
//  228 	update_user_event(CommonApp_TaskID, 
//  229 							DEMOBASE_RFID_QUERY_EVT, 
//  230 							DemoBaseRFID_QueryCB, 
//  231 	  						500, 
//  232 	  						TIMER_LOOP_EXECUTION|TIMER_EVENT_RESIDENTS, 
//  233 	  						NULL);
//  234 
//  235 }
//  236 

        RSEG BANKED_CODE:CODE:NOROOT(0)
//  237 void DemoBaseRFID_QueryCB( void *params, uint16 *duration, uint8 *count)
DemoBaseRFID_QueryCB:
        CFI Block cfiBlock15 Using cfiCommon0
        CFI Function DemoBaseRFID_QueryCB
        CODE
//  238 {
        FUNCALL DemoBaseRFID_QueryCB, Rc522RFReset
        LOCFRAME ISTACK, 0, STACK
        LOCFRAME PSTACK, 0, STACK
        LOCFRAME XSTACK, 14, STACK
        LOCFRAME IOVERLAY, 0, STATIC
        LOCFRAME DOVERLAY, 0, STATIC
        ARGFRAME ISTACK, 0, STACK
        ARGFRAME PSTACK, 0, STACK
        ARGFRAME XSTACK, 14, STACK
        ARGFRAME IOVERLAY, 0, STATIC
        ARGFRAME DOVERLAY, 0, STATIC
        FUNCALL DemoBaseRFID_QueryCB, ActivateCard
        LOCFRAME ISTACK, 0, STACK
        LOCFRAME PSTACK, 0, STACK
        LOCFRAME XSTACK, 18, STACK
        LOCFRAME IOVERLAY, 0, STATIC
        LOCFRAME DOVERLAY, 0, STATIC
        ARGFRAME ISTACK, 0, STACK
        ARGFRAME PSTACK, 0, STACK
        ARGFRAME XSTACK, 18, STACK
        ARGFRAME IOVERLAY, 0, STATIC
        ARGFRAME DOVERLAY, 0, STATIC
        FUNCALL DemoBaseRFID_QueryCB, osal_mem_free
        LOCFRAME ISTACK, 0, STACK
        LOCFRAME PSTACK, 0, STACK
        LOCFRAME XSTACK, 14, STACK
        LOCFRAME IOVERLAY, 0, STATIC
        LOCFRAME DOVERLAY, 0, STATIC
        ARGFRAME ISTACK, 0, STACK
        ARGFRAME PSTACK, 0, STACK
        ARGFRAME XSTACK, 14, STACK
        ARGFRAME IOVERLAY, 0, STATIC
        ARGFRAME DOVERLAY, 0, STATIC
        FUNCALL DemoBaseRFID_QueryCB, osal_mem_alloc
        LOCFRAME ISTACK, 0, STACK
        LOCFRAME PSTACK, 0, STACK
        LOCFRAME XSTACK, 14, STACK
        LOCFRAME IOVERLAY, 0, STATIC
        LOCFRAME DOVERLAY, 0, STATIC
        ARGFRAME ISTACK, 0, STACK
        ARGFRAME PSTACK, 0, STACK
        ARGFRAME XSTACK, 14, STACK
        ARGFRAME IOVERLAY, 0, STATIC
        ARGFRAME DOVERLAY, 0, STATIC
        FUNCALL DemoBaseRFID_QueryCB, osal_memcpy
        LOCFRAME ISTACK, 0, STACK
        LOCFRAME PSTACK, 0, STACK
        LOCFRAME XSTACK, 17, STACK
        LOCFRAME IOVERLAY, 0, STATIC
        LOCFRAME DOVERLAY, 0, STATIC
        ARGFRAME ISTACK, 0, STACK
        ARGFRAME PSTACK, 0, STACK
        ARGFRAME XSTACK, 17, STACK
        ARGFRAME IOVERLAY, 0, STATIC
        ARGFRAME DOVERLAY, 0, STATIC
        FUNCALL DemoBaseRFID_QueryCB, incode_xtocs
        LOCFRAME ISTACK, 0, STACK
        LOCFRAME PSTACK, 0, STACK
        LOCFRAME XSTACK, 16, STACK
        LOCFRAME IOVERLAY, 0, STATIC
        LOCFRAME DOVERLAY, 0, STATIC
        ARGFRAME ISTACK, 0, STACK
        ARGFRAME PSTACK, 0, STACK
        ARGFRAME XSTACK, 16, STACK
        ARGFRAME IOVERLAY, 0, STATIC
        ARGFRAME DOVERLAY, 0, STATIC
        FUNCALL DemoBaseRFID_QueryCB, Update_Refresh
        LOCFRAME ISTACK, 0, STACK
        LOCFRAME PSTACK, 0, STACK
        LOCFRAME XSTACK, 14, STACK
        LOCFRAME IOVERLAY, 0, STATIC
        LOCFRAME DOVERLAY, 0, STATIC
        ARGFRAME ISTACK, 0, STACK
        ARGFRAME PSTACK, 0, STACK
        ARGFRAME XSTACK, 14, STACK
        ARGFRAME IOVERLAY, 0, STATIC
        ARGFRAME DOVERLAY, 0, STATIC
        FUNCALL DemoBaseRFID_QueryCB, update_user_event
        LOCFRAME ISTACK, 0, STACK
        LOCFRAME PSTACK, 0, STACK
        LOCFRAME XSTACK, 19, STACK
        LOCFRAME IOVERLAY, 0, STATIC
        LOCFRAME DOVERLAY, 0, STATIC
        ARGFRAME ISTACK, 0, STACK
        ARGFRAME PSTACK, 0, STACK
        ARGFRAME XSTACK, 19, STACK
        ARGFRAME IOVERLAY, 0, STATIC
        ARGFRAME DOVERLAY, 0, STATIC
        MOV     A,#-0xb
        LCALL   ?BANKED_ENTER_XDATA
        CFI DPH0 load(1, XDATA, add(CFA_XSP16, literal(-1)))
        CFI DPL0 load(1, XDATA, add(CFA_XSP16, literal(-2)))
        CFI ?BRET_EXT load(1, XDATA, add(CFA_XSP16, literal(-3)))
        CFI ?RET_HIGH load(1, XDATA, add(CFA_XSP16, literal(-4)))
        CFI ?RET_LOW load(1, XDATA, add(CFA_XSP16, literal(-5)))
        CFI R7 load(1, XDATA, add(CFA_XSP16, literal(-6)))
        CFI V2 load(1, XDATA, add(CFA_XSP16, literal(-7)))
        CFI V1 load(1, XDATA, add(CFA_XSP16, literal(-8)))
        CFI V0 load(1, XDATA, add(CFA_XSP16, literal(-9)))
        CFI VB load(1, XDATA, add(CFA_XSP16, literal(-10)))
        CFI R6 load(1, XDATA, add(CFA_XSP16, literal(-11)))
        CFI CFA_SP SP+0
        CFI CFA_XSP16 add(XSP16, 11)
        ; Saved register size: 11
        ; Auto size: 3
        MOV     A,#-0x3
        LCALL   ?ALLOC_XSTACK8
        CFI CFA_XSP16 add(XSP16, 14)
//  239 	unsigned char baATQ[2],bSAK;
//  240 	//enum MifareICType eMifareType;
//  241 	short status;
//  242 
//  243 	Rc522RFReset(5);  //RF - Reset 
        ; Setup parameters for call to function Rc522RFReset
        MOV     R1,#0x5
        LCALL   ??Rc522RFReset?relay
//  244 	status = ActivateCard(ISO14443_3_REQA, baATQ, ids, &idlen, &bSAK);
//  245 	if(status !=  STATUS_SUCCESS || idlen > RFID_DATA_SIZE-3)
        ; Setup parameters for call to function ActivateCard
        MOV     DPL,?XSP + 0
        MOV     DPH,?XSP + 1
        MOV     ?V0 + 0,DPL
        MOV     ?V0 + 1,DPH
        MOV     R0,#?V0 + 0
        LCALL   ?PUSH_XSTACK_I_TWO
        CFI CFA_XSP16 add(XSP16, 16)
        MOV     ?V0 + 0,#idlen & 0xff
        MOV     ?V0 + 1,#(idlen >> 8) & 0xff
        MOV     R0,#?V0 + 0
        LCALL   ?PUSH_XSTACK_I_TWO
        CFI CFA_XSP16 add(XSP16, 18)
        MOV     R4,#ids & 0xff
        MOV     R5,#(ids >> 8) & 0xff
        MOV     A,#0x5
        LCALL   ?XSTACK_DISP0_8
        MOV     R2,DPL
        MOV     R3,DPH
        MOV     R1,#0x26
        LCALL   ??ActivateCard?relay
        MOV     A,#0x4
        LCALL   ?DEALLOC_XSTACK8
        CFI CFA_XSP16 add(XSP16, 14)
        MOV     ?V0 + 1,R3
        MOV     A,R2
        ORL     A,?V0 + 1
        JNZ     ??DemoBaseRFID_QueryCB_0
        MOV     DPTR,#idlen
        MOVX    A,@DPTR
        CLR     C
        SUBB    A,#0x11
        JC      ??DemoBaseRFID_QueryCB_1
//  246 	{
//  247 		idlen = 0;
??DemoBaseRFID_QueryCB_0:
        MOV     DPTR,#idlen
        CLR     A
        MOVX    @DPTR,A
//  248 		isBee = 0;
        MOV     DPTR,#isBee
        MOVX    @DPTR,A
//  249 		return;
        LJMP    ??DemoBaseRFID_QueryCB_2 & 0xFFFF
//  250 	}
//  251 
//  252 	if(!isBee)
??DemoBaseRFID_QueryCB_1:
        MOV     DPTR,#isBee
        MOVX    A,@DPTR
        JNZ     ??DemoBaseRFID_QueryCB_2
//  253 	{
//  254 		isBee = 1;
        MOV     A,#0x1
        LCALL   ??Subroutine39_0 & 0xFFFF
//  255 
//  256 		if(queryStates)
??CrossCallReturnLabel_71:
        JZ      ??CrossCallReturnLabel_75
//  257 		{
//  258 			if(optData != NULL && optDataLen < RFID_DATA_SIZE)
        LCALL   ??Subroutine46_0 & 0xFFFF
??CrossCallReturnLabel_109:
        JZ      ??CrossCallReturnLabel_15
        MOV     DPTR,#optDataLen
        MOVX    A,@DPTR
        CLR     C
        SUBB    A,#0x13
        JNC     ??CrossCallReturnLabel_40
//  259 			{
//  260 				osal_mem_free(optData);
        ; Setup parameters for call to function osal_mem_free
        LCALL   ?Subroutine10 & 0xFFFF
//  261 				optData = NULL;
//  262 			}
//  263 
//  264 			if(optData == NULL)
//  265 			{
//  266 				optData = osal_mem_alloc(RFID_DATA_SIZE);
??CrossCallReturnLabel_15:
        ; Setup parameters for call to function osal_mem_alloc
        LCALL   ?Subroutine24 & 0xFFFF
//  267 				optDataLen = RFID_DATA_SIZE;
//  268 			}
//  269 
//  270 			osal_memcpy(optData, DEMOBASE_DEVICE_RFID, 2);
??CrossCallReturnLabel_40:
        ; Setup parameters for call to function osal_memcpy
        MOV     ?V0 + 0,#`?<Constant "03">` & 0xff
        MOV     ?V0 + 1,#(`?<Constant "03">` >> 8) & 0xff
        MOV     ?V0 + 2,#0x0
        MOV     R0,#?V0 + 0
        LCALL   ?PUSH_XSTACK_I_THREE
        CFI CFA_XSP16 add(XSP16, 17)
        LCALL   ?Subroutine7 & 0xFFFF
??CrossCallReturnLabel_79:
        LCALL   ?DEALLOC_XSTACK8
        CFI CFA_XSP16 add(XSP16, 14)
//  271 			optData[2] = 'S';
        LCALL   ?Subroutine33 & 0xFFFF
//  272 			incode_xtocs(optData+3, ids, idlen);
??CrossCallReturnLabel_55:
        ; Setup parameters for call to function incode_xtocs
        MOV     DPTR,#idlen
        MOVX    A,@DPTR
        MOV     ?V0 + 0,A
        MOV     ?V0 + 1,#0x0
        MOV     R0,#?V0 + 0
        LCALL   ?PUSH_XSTACK_I_TWO
        CFI CFA_XSP16 add(XSP16, 16)
        LCALL   ?Subroutine8 & 0xFFFF
??CrossCallReturnLabel_129:
        LCALL   ?DEALLOC_XSTACK8
        CFI CFA_XSP16 add(XSP16, 14)
//  273 			
//  274 			Update_Refresh(optData, (idlen*2)+3);
        ; Setup parameters for call to function Update_Refresh
        MOV     DPTR,#idlen
        MOVX    A,@DPTR
        CLR     C
        RLC     A
        ADD     A,#0x3
        MOV     R1,A
        LCALL   ??Subroutine40_0 & 0xFFFF
//  275 		}
//  276 		
//  277 		HAL_TURN_ON_RFIDBEE();
??CrossCallReturnLabel_75:
        SETB    0x90.5
//  278 		update_user_event(CommonApp_TaskID, 
//  279 								DEMOBASE_RFID_BEE_EVT, 
//  280 								DemoBaseRFID_StopBeeCB, 
//  281 	  							500, 
//  282 	  							TIMER_ONE_EXECUTION|TIMER_EVENT_RESIDENTS, 
//  283 	  							NULL);
        ; Setup parameters for call to function update_user_event
        CLR     A
        MOV     ?V0 + 0,A
        MOV     ?V0 + 1,A
        MOV     R0,#?V0 + 0
        LCALL   ?PUSH_XSTACK_I_TWO
        CFI CFA_XSP16 add(XSP16, 16)
        MOV     ?V0 + 0,#-0x7f
        MOV     R0,#?V0 + 0
        LCALL   ?PUSH_XSTACK_I_ONE
        CFI CFA_XSP16 add(XSP16, 17)
        MOV     ?V0 + 0,#-0xc
        MOV     ?V0 + 1,#0x1
        MOV     R0,#?V0 + 0
        LCALL   ?PUSH_XSTACK_I_TWO
        CFI CFA_XSP16 add(XSP16, 19)
        MOV     R4,#??DemoBaseRFID_StopBeeCB?relay & 0xff
        MOV     R5,#(??DemoBaseRFID_StopBeeCB?relay >> 8) & 0xff
        MOV     R2,#0x20
        LCALL   ?Subroutine18 & 0xFFFF
//  284 	}
??CrossCallReturnLabel_62:
        LCALL   ?DEALLOC_XSTACK8
        CFI CFA_XSP16 add(XSP16, 14)
??DemoBaseRFID_QueryCB_2:
        MOV     A,#0x3
        LCALL   ?DEALLOC_XSTACK8
        CFI EndBlock cfiBlock15
        REQUIRE ?Subroutine2
        REQUIRE _A_P1
        ; // Fall through to label ?Subroutine2
//  285 }

        RSEG BANKED_CODE:CODE:NOROOT(0)
?Subroutine2:
        CFI Block cfiBlock16 Using cfiCommon0
        CFI NoFunction
        CFI CFA_SP SP+0
        CFI CFA_XSP16 add(XSP16, 11)
        CFI VB load(1, XDATA, add(CFA_XSP16, literal(-10)))
        CFI DPL0 load(1, XDATA, add(CFA_XSP16, literal(-2)))
        CFI DPH0 load(1, XDATA, add(CFA_XSP16, literal(-1)))
        CFI R6 load(1, XDATA, add(CFA_XSP16, literal(-11)))
        CFI R7 load(1, XDATA, add(CFA_XSP16, literal(-6)))
        CFI V0 load(1, XDATA, add(CFA_XSP16, literal(-9)))
        CFI V1 load(1, XDATA, add(CFA_XSP16, literal(-8)))
        CFI V2 load(1, XDATA, add(CFA_XSP16, literal(-7)))
        CFI ?BRET_EXT load(1, XDATA, add(CFA_XSP16, literal(-3)))
        CFI ?RET_HIGH load(1, XDATA, add(CFA_XSP16, literal(-4)))
        CFI ?RET_LOW load(1, XDATA, add(CFA_XSP16, literal(-5)))
        MOV     R7,#0x3
        LJMP    ?BANKED_LEAVE_XDATA
        CFI EndBlock cfiBlock16

        RSEG BANKED_CODE:CODE:NOROOT(0)
?Subroutine18:
        CFI Block cfiCond17 Using cfiCommon0
        CFI NoFunction
        CFI Conditional ??CrossCallReturnLabel_61
        CFI R6 load(1, XDATA, add(CFA_XSP16, literal(-10)))
        CFI VB load(1, XDATA, add(CFA_XSP16, literal(-9)))
        CFI V0 load(1, XDATA, add(CFA_XSP16, literal(-8)))
        CFI V1 load(1, XDATA, add(CFA_XSP16, literal(-7)))
        CFI R7 load(1, XDATA, add(CFA_XSP16, literal(-6)))
        CFI ?RET_LOW load(1, XDATA, add(CFA_XSP16, literal(-5)))
        CFI ?RET_HIGH load(1, XDATA, add(CFA_XSP16, literal(-4)))
        CFI ?BRET_EXT load(1, XDATA, add(CFA_XSP16, literal(-3)))
        CFI DPL0 load(1, XDATA, add(CFA_XSP16, literal(-2)))
        CFI DPH0 load(1, XDATA, add(CFA_XSP16, literal(-1)))
        CFI CFA_SP SP+0
        CFI CFA_XSP16 add(XSP16, 15)
        CFI Block cfiCond18 Using cfiCommon0
        CFI (cfiCond18) NoFunction
        CFI (cfiCond18) Conditional ??CrossCallReturnLabel_62
        CFI (cfiCond18) R6 load(1, XDATA, add(CFA_XSP16, literal(-11)))
        CFI (cfiCond18) VB load(1, XDATA, add(CFA_XSP16, literal(-10)))
        CFI (cfiCond18) V0 load(1, XDATA, add(CFA_XSP16, literal(-9)))
        CFI (cfiCond18) V1 load(1, XDATA, add(CFA_XSP16, literal(-8)))
        CFI (cfiCond18) V2 load(1, XDATA, add(CFA_XSP16, literal(-7)))
        CFI (cfiCond18) R7 load(1, XDATA, add(CFA_XSP16, literal(-6)))
        CFI (cfiCond18) ?RET_LOW load(1, XDATA, add(CFA_XSP16, literal(-5)))
        CFI (cfiCond18) ?RET_HIGH load(1, XDATA, add(CFA_XSP16, literal(-4)))
        CFI (cfiCond18) ?BRET_EXT load(1, XDATA, add(CFA_XSP16, literal(-3)))
        CFI (cfiCond18) DPL0 load(1, XDATA, add(CFA_XSP16, literal(-2)))
        CFI (cfiCond18) DPH0 load(1, XDATA, add(CFA_XSP16, literal(-1)))
        CFI (cfiCond18) CFA_SP SP+0
        CFI (cfiCond18) CFA_XSP16 add(XSP16, 19)
        CFI Block cfiPicker19 Using cfiCommon1
        CFI (cfiPicker19) NoFunction
        CFI (cfiPicker19) Picker
        MOV     R3,#0x0
        CFI EndBlock cfiCond17
        CFI EndBlock cfiCond18
        CFI EndBlock cfiPicker19
        REQUIRE ??Subroutine36_0
        ; // Fall through to label ??Subroutine36_0

        RSEG BANKED_CODE:CODE:NOROOT(0)
??Subroutine36_0:
        CFI Block cfiCond20 Using cfiCommon0
        CFI NoFunction
        CFI Conditional ??CrossCallReturnLabel_63
        CFI R6 load(1, XDATA, add(CFA_XSP16, literal(-10)))
        CFI VB load(1, XDATA, add(CFA_XSP16, literal(-9)))
        CFI V0 load(1, XDATA, add(CFA_XSP16, literal(-8)))
        CFI V1 load(1, XDATA, add(CFA_XSP16, literal(-7)))
        CFI R7 load(1, XDATA, add(CFA_XSP16, literal(-6)))
        CFI ?RET_LOW load(1, XDATA, add(CFA_XSP16, literal(-5)))
        CFI ?RET_HIGH load(1, XDATA, add(CFA_XSP16, literal(-4)))
        CFI ?BRET_EXT load(1, XDATA, add(CFA_XSP16, literal(-3)))
        CFI DPL0 load(1, XDATA, add(CFA_XSP16, literal(-2)))
        CFI DPH0 load(1, XDATA, add(CFA_XSP16, literal(-1)))
        CFI CFA_SP SP+0
        CFI CFA_XSP16 add(XSP16, 15)
        CFI Block cfiCond21 Using cfiCommon0
        CFI (cfiCond21) NoFunction
        CFI (cfiCond21) Conditional ??CrossCallReturnLabel_61
        CFI (cfiCond21) R6 load(1, XDATA, add(CFA_XSP16, literal(-10)))
        CFI (cfiCond21) VB load(1, XDATA, add(CFA_XSP16, literal(-9)))
        CFI (cfiCond21) V0 load(1, XDATA, add(CFA_XSP16, literal(-8)))
        CFI (cfiCond21) V1 load(1, XDATA, add(CFA_XSP16, literal(-7)))
        CFI (cfiCond21) R7 load(1, XDATA, add(CFA_XSP16, literal(-6)))
        CFI (cfiCond21) ?RET_LOW load(1, XDATA, add(CFA_XSP16, literal(-5)))
        CFI (cfiCond21) ?RET_HIGH load(1, XDATA, add(CFA_XSP16, literal(-4)))
        CFI (cfiCond21) ?BRET_EXT load(1, XDATA, add(CFA_XSP16, literal(-3)))
        CFI (cfiCond21) DPL0 load(1, XDATA, add(CFA_XSP16, literal(-2)))
        CFI (cfiCond21) DPH0 load(1, XDATA, add(CFA_XSP16, literal(-1)))
        CFI (cfiCond21) CFA_SP SP+0
        CFI (cfiCond21) CFA_XSP16 add(XSP16, 15)
        CFI Block cfiCond22 Using cfiCommon0
        CFI (cfiCond22) NoFunction
        CFI (cfiCond22) Conditional ??CrossCallReturnLabel_62
        CFI (cfiCond22) R6 load(1, XDATA, add(CFA_XSP16, literal(-11)))
        CFI (cfiCond22) VB load(1, XDATA, add(CFA_XSP16, literal(-10)))
        CFI (cfiCond22) V0 load(1, XDATA, add(CFA_XSP16, literal(-9)))
        CFI (cfiCond22) V1 load(1, XDATA, add(CFA_XSP16, literal(-8)))
        CFI (cfiCond22) V2 load(1, XDATA, add(CFA_XSP16, literal(-7)))
        CFI (cfiCond22) R7 load(1, XDATA, add(CFA_XSP16, literal(-6)))
        CFI (cfiCond22) ?RET_LOW load(1, XDATA, add(CFA_XSP16, literal(-5)))
        CFI (cfiCond22) ?RET_HIGH load(1, XDATA, add(CFA_XSP16, literal(-4)))
        CFI (cfiCond22) ?BRET_EXT load(1, XDATA, add(CFA_XSP16, literal(-3)))
        CFI (cfiCond22) DPL0 load(1, XDATA, add(CFA_XSP16, literal(-2)))
        CFI (cfiCond22) DPH0 load(1, XDATA, add(CFA_XSP16, literal(-1)))
        CFI (cfiCond22) CFA_SP SP+0
        CFI (cfiCond22) CFA_XSP16 add(XSP16, 19)
        CFI Block cfiPicker23 Using cfiCommon1
        CFI (cfiPicker23) NoFunction
        CFI (cfiPicker23) Picker
        MOV     DPTR,#CommonApp_TaskID
        MOVX    A,@DPTR
        MOV     R1,A
        LCALL   ??update_user_event?relay
        MOV     A,#0x5
        RET
        CFI EndBlock cfiCond20
        CFI EndBlock cfiCond21
        CFI EndBlock cfiCond22
        CFI EndBlock cfiPicker23
//  286 

        RSEG BANKED_CODE:CODE:NOROOT(0)
//  287 void DemoBaseRFID_StopBeeCB( void *params, uint16 *duration, uint8 *count)
DemoBaseRFID_StopBeeCB:
        CFI Block cfiBlock24 Using cfiCommon0
        CFI Function DemoBaseRFID_StopBeeCB
        CODE
//  288 {
        ; Saved register size: 0
        ; Auto size: 0
//  289 	HAL_TURN_OFF_RFIDBEE();
        CLR     0x90.5
//  290 }
        LJMP    ?BRET
        CFI EndBlock cfiBlock24
        REQUIRE _A_P1
//  291 
//  292 void humiture_init(void)
//  293 {
//  294 	update_user_event(CommonApp_TaskID, 
//  295   					DEMOBASE_HUMITURE_EVT, 
//  296   					DemoBaseHumiture_StatusCB, 
//  297   					2000, 
//  298   					TIMER_LOOP_EXECUTION|TIMER_EVENT_RESIDENTS, 
//  299   					NULL);
//  300 }
//  301 

        RSEG BANKED_CODE:CODE:NOROOT(0)
//  302 void DemoBaseHumiture_StatusCB( void *params, uint16 *duration, uint8 *count)
DemoBaseHumiture_StatusCB:
        CFI Block cfiBlock25 Using cfiCommon0
        CFI Function DemoBaseHumiture_StatusCB
        CODE
//  303 {
        FUNCALL DemoBaseHumiture_StatusCB, s_connectionreset
        LOCFRAME ISTACK, 0, STACK
        LOCFRAME PSTACK, 0, STACK
        LOCFRAME XSTACK, 21, STACK
        LOCFRAME IOVERLAY, 0, STATIC
        LOCFRAME DOVERLAY, 0, STATIC
        ARGFRAME ISTACK, 0, STACK
        ARGFRAME PSTACK, 0, STACK
        ARGFRAME XSTACK, 21, STACK
        ARGFRAME IOVERLAY, 0, STATIC
        ARGFRAME DOVERLAY, 0, STATIC
        FUNCALL DemoBaseHumiture_StatusCB, s_measure
        LOCFRAME ISTACK, 0, STACK
        LOCFRAME PSTACK, 0, STACK
        LOCFRAME XSTACK, 21, STACK
        LOCFRAME IOVERLAY, 0, STATIC
        LOCFRAME DOVERLAY, 0, STATIC
        ARGFRAME ISTACK, 0, STACK
        ARGFRAME PSTACK, 0, STACK
        ARGFRAME XSTACK, 21, STACK
        ARGFRAME IOVERLAY, 0, STATIC
        ARGFRAME DOVERLAY, 0, STATIC
        FUNCALL DemoBaseHumiture_StatusCB, s_measure
        LOCFRAME ISTACK, 0, STACK
        LOCFRAME PSTACK, 0, STACK
        LOCFRAME XSTACK, 21, STACK
        LOCFRAME IOVERLAY, 0, STATIC
        LOCFRAME DOVERLAY, 0, STATIC
        ARGFRAME ISTACK, 0, STACK
        ARGFRAME PSTACK, 0, STACK
        ARGFRAME XSTACK, 21, STACK
        ARGFRAME IOVERLAY, 0, STATIC
        ARGFRAME DOVERLAY, 0, STATIC
        FUNCALL DemoBaseHumiture_StatusCB, s_connectionreset
        LOCFRAME ISTACK, 0, STACK
        LOCFRAME PSTACK, 0, STACK
        LOCFRAME XSTACK, 21, STACK
        LOCFRAME IOVERLAY, 0, STATIC
        LOCFRAME DOVERLAY, 0, STATIC
        ARGFRAME ISTACK, 0, STACK
        ARGFRAME PSTACK, 0, STACK
        ARGFRAME XSTACK, 21, STACK
        ARGFRAME IOVERLAY, 0, STATIC
        ARGFRAME DOVERLAY, 0, STATIC
        FUNCALL DemoBaseHumiture_StatusCB, calc_sht11
        LOCFRAME ISTACK, 0, STACK
        LOCFRAME PSTACK, 0, STACK
        LOCFRAME XSTACK, 21, STACK
        LOCFRAME IOVERLAY, 0, STATIC
        LOCFRAME DOVERLAY, 0, STATIC
        ARGFRAME ISTACK, 0, STACK
        ARGFRAME PSTACK, 0, STACK
        ARGFRAME XSTACK, 21, STACK
        ARGFRAME IOVERLAY, 0, STATIC
        ARGFRAME DOVERLAY, 0, STATIC
        FUNCALL DemoBaseHumiture_StatusCB, osal_mem_free
        LOCFRAME ISTACK, 0, STACK
        LOCFRAME PSTACK, 0, STACK
        LOCFRAME XSTACK, 21, STACK
        LOCFRAME IOVERLAY, 0, STATIC
        LOCFRAME DOVERLAY, 0, STATIC
        ARGFRAME ISTACK, 0, STACK
        ARGFRAME PSTACK, 0, STACK
        ARGFRAME XSTACK, 21, STACK
        ARGFRAME IOVERLAY, 0, STATIC
        ARGFRAME DOVERLAY, 0, STATIC
        FUNCALL DemoBaseHumiture_StatusCB, osal_mem_alloc
        LOCFRAME ISTACK, 0, STACK
        LOCFRAME PSTACK, 0, STACK
        LOCFRAME XSTACK, 21, STACK
        LOCFRAME IOVERLAY, 0, STATIC
        LOCFRAME DOVERLAY, 0, STATIC
        ARGFRAME ISTACK, 0, STACK
        ARGFRAME PSTACK, 0, STACK
        ARGFRAME XSTACK, 21, STACK
        ARGFRAME IOVERLAY, 0, STATIC
        ARGFRAME DOVERLAY, 0, STATIC
        FUNCALL DemoBaseHumiture_StatusCB, osal_memcpy
        LOCFRAME ISTACK, 0, STACK
        LOCFRAME PSTACK, 0, STACK
        LOCFRAME XSTACK, 24, STACK
        LOCFRAME IOVERLAY, 0, STATIC
        LOCFRAME DOVERLAY, 0, STATIC
        ARGFRAME ISTACK, 0, STACK
        ARGFRAME PSTACK, 0, STACK
        ARGFRAME XSTACK, 24, STACK
        ARGFRAME IOVERLAY, 0, STATIC
        ARGFRAME DOVERLAY, 0, STATIC
        FUNCALL DemoBaseHumiture_StatusCB, incode_xtocs
        LOCFRAME ISTACK, 0, STACK
        LOCFRAME PSTACK, 0, STACK
        LOCFRAME XSTACK, 23, STACK
        LOCFRAME IOVERLAY, 0, STATIC
        LOCFRAME DOVERLAY, 0, STATIC
        ARGFRAME ISTACK, 0, STACK
        ARGFRAME PSTACK, 0, STACK
        ARGFRAME XSTACK, 23, STACK
        ARGFRAME IOVERLAY, 0, STATIC
        ARGFRAME DOVERLAY, 0, STATIC
        FUNCALL DemoBaseHumiture_StatusCB, incode_xtocs
        LOCFRAME ISTACK, 0, STACK
        LOCFRAME PSTACK, 0, STACK
        LOCFRAME XSTACK, 23, STACK
        LOCFRAME IOVERLAY, 0, STATIC
        LOCFRAME DOVERLAY, 0, STATIC
        ARGFRAME ISTACK, 0, STACK
        ARGFRAME PSTACK, 0, STACK
        ARGFRAME XSTACK, 23, STACK
        ARGFRAME IOVERLAY, 0, STATIC
        ARGFRAME DOVERLAY, 0, STATIC
        FUNCALL DemoBaseHumiture_StatusCB, Update_Refresh
        LOCFRAME ISTACK, 0, STACK
        LOCFRAME PSTACK, 0, STACK
        LOCFRAME XSTACK, 21, STACK
        LOCFRAME IOVERLAY, 0, STATIC
        LOCFRAME DOVERLAY, 0, STATIC
        ARGFRAME ISTACK, 0, STACK
        ARGFRAME PSTACK, 0, STACK
        ARGFRAME XSTACK, 21, STACK
        ARGFRAME IOVERLAY, 0, STATIC
        ARGFRAME DOVERLAY, 0, STATIC
        MOV     A,#-0xc
        LCALL   ?BANKED_ENTER_XDATA
        CFI DPH0 load(1, XDATA, add(CFA_XSP16, literal(-1)))
        CFI DPL0 load(1, XDATA, add(CFA_XSP16, literal(-2)))
        CFI ?BRET_EXT load(1, XDATA, add(CFA_XSP16, literal(-3)))
        CFI ?RET_HIGH load(1, XDATA, add(CFA_XSP16, literal(-4)))
        CFI ?RET_LOW load(1, XDATA, add(CFA_XSP16, literal(-5)))
        CFI R7 load(1, XDATA, add(CFA_XSP16, literal(-6)))
        CFI V3 load(1, XDATA, add(CFA_XSP16, literal(-7)))
        CFI V2 load(1, XDATA, add(CFA_XSP16, literal(-8)))
        CFI V1 load(1, XDATA, add(CFA_XSP16, literal(-9)))
        CFI V0 load(1, XDATA, add(CFA_XSP16, literal(-10)))
        CFI VB load(1, XDATA, add(CFA_XSP16, literal(-11)))
        CFI R6 load(1, XDATA, add(CFA_XSP16, literal(-12)))
        CFI CFA_SP SP+0
        CFI CFA_XSP16 add(XSP16, 12)
        ; Saved register size: 12
        ; Auto size: 9
        MOV     A,#-0x9
        LCALL   ?ALLOC_XSTACK8
        CFI CFA_XSP16 add(XSP16, 21)
//  304 	HTValue humi_val, temp_val;
//  305 	uint8 error, checksum;
//  306 
//  307 	s_connectionreset();
        ; Setup parameters for call to function s_connectionreset
        LCALL   ??s_connectionreset?relay
//  308 
//  309 	error = 0;
//  310 	error += s_measure((uint8*) &humi_val.i, &checksum, HUMI);  //measure humidity
        ; Setup parameters for call to function s_measure
        MOV     R1,#0x1
        MOV     DPL,?XSP + 0
        MOV     DPH,?XSP + 1
        MOV     R4,DPL
        MOV     R5,DPH
        MOV     A,#0x5
        LCALL   ?XSTACK_DISP0_8
        MOV     R2,DPL
        MOV     R3,DPH
        LCALL   ??s_measure?relay
        MOV     A,R1
        MOV     R6,A
//  311 	error += s_measure((uint8*) &temp_val.i, &checksum, TEMP);  //measure temperature
//  312 	if(error != 0) 
        ; Setup parameters for call to function s_measure
        MOV     R1,#0x0
        MOV     DPL,?XSP + 0
        MOV     DPH,?XSP + 1
        MOV     R4,DPL
        MOV     R5,DPH
        MOV     A,#0x1
        LCALL   ?XSTACK_DISP0_8
        MOV     R2,DPL
        MOV     R3,DPH
        LCALL   ??s_measure?relay
        MOV     A,R1
        ADD     A,R6
        JZ      ??DemoBaseHumiture_StatusCB_0
//  313 	{	
//  314 		s_connectionreset();                 //in case of an error: connection reset
        ; Setup parameters for call to function s_connectionreset
        LCALL   ??s_connectionreset?relay
//  315 		return;
        LJMP    ??CrossCallReturnLabel_76 & 0xFFFF
//  316 	}
//  317 
//  318 	humi_val.f = (float)humi_val.i;                   //converts integer to float
??DemoBaseHumiture_StatusCB_0:
        MOV     A,#0x5
        LCALL   ?XSTACK_DISP0_8
        LCALL   ?Subroutine17 & 0xFFFF
??CrossCallReturnLabel_28:
        LCALL   ?UL_TO_FLT
        MOV     A,#0x5
        LCALL   ?XSTACK_DISP0_8
        MOV     R0,#?V0 + 0
        LCALL   ?L_MOV_TO_X
//  319 	temp_val.f = (float)temp_val.i;                   //converts integer to float
        MOV     A,#0x1
        LCALL   ?XSTACK_DISP0_8
        LCALL   ?Subroutine17 & 0xFFFF
??CrossCallReturnLabel_29:
        LCALL   ?UL_TO_FLT
        MOV     A,#0x1
        LCALL   ?XSTACK_DISP0_8
        MOV     R0,#?V0 + 0
        LCALL   ?L_MOV_TO_X
//  320 	calc_sht11(&humi_val.f, &temp_val.f);            //calculate humidity, temperature
        ; Setup parameters for call to function calc_sht11
        MOV     A,#0x1
        LCALL   ?XSTACK_DISP0_8
        MOV     R4,DPL
        MOV     R5,DPH
        MOV     A,#0x5
        LCALL   ?XSTACK_DISP0_8
        MOV     R2,DPL
        MOV     R3,DPH
        LCALL   ??calc_sht11?relay
//  321 
//  322 	if(temp != (uint8)temp_val.f 
//  323 		|| humi != (uint8)humi_val.f)
        MOV     A,#0x5
        LCALL   ?XSTACK_DISP0_8
        LCALL   ?XLOAD_R2345
        LCALL   ?R2345_FLT_TO_L
        MOV     R1,?V0 + 0
        MOV     A,#0x1
        LCALL   ?XSTACK_DISP0_8
        LCALL   ?XLOAD_R2345
        LCALL   ?R2345_FLT_TO_L
        MOV     R0,?V0 + 0
        MOV     DPTR,#temp
        MOVX    A,@DPTR
        XRL     A,R0
        JNZ     ??DemoBaseHumiture_StatusCB_1
        MOV     DPTR,#humi
        MOVX    A,@DPTR
        XRL     A,R1
        JZ      ??CrossCallReturnLabel_76
//  324 	{
//  325 		temp = (uint8)temp_val.f;
??DemoBaseHumiture_StatusCB_1:
        MOV     A,R0
        MOV     DPTR,#temp
        MOVX    @DPTR,A
//  326 		humi = (uint8)humi_val.f;
        MOV     A,R1
        MOV     DPTR,#humi
        LCALL   ??Subroutine39_0 & 0xFFFF
//  327 		
//  328 		if(queryStates)
??CrossCallReturnLabel_72:
        JZ      ??CrossCallReturnLabel_76
//  329 		{
//  330 			if(optData != NULL && optDataLen < HUMITURE_DATA_SIZE)
        LCALL   ??Subroutine46_0 & 0xFFFF
??CrossCallReturnLabel_110:
        JZ      ??CrossCallReturnLabel_7
        MOV     DPTR,#optDataLen
        MOVX    A,@DPTR
        CLR     C
        SUBB    A,#0x7
        JNC     ??CrossCallReturnLabel_42
//  331 			{
//  332 				osal_mem_free(optData);
        ; Setup parameters for call to function osal_mem_free
        LCALL   ?Subroutine6 & 0xFFFF
//  333 				optData = NULL;
//  334 				optDataLen = 0;
//  335 			}
//  336 
//  337 			if(optData == NULL)
//  338 			{
//  339 				optData = osal_mem_alloc(HUMITURE_DATA_SIZE);
??CrossCallReturnLabel_7:
        ; Setup parameters for call to function osal_mem_alloc
        LCALL   ?Subroutine25 & 0xFFFF
//  340 				optDataLen = HUMITURE_DATA_SIZE;
//  341 			}
//  342 
//  343 			osal_memcpy(optData, DEMOBASE_DEVICE_HUMITURE, 2);
??CrossCallReturnLabel_42:
        ; Setup parameters for call to function osal_memcpy
        MOV     ?V0 + 0,#`?<Constant "04">` & 0xff
        MOV     ?V0 + 1,#(`?<Constant "04">` >> 8) & 0xff
        MOV     ?V0 + 2,#0x0
        MOV     R0,#?V0 + 0
        LCALL   ?PUSH_XSTACK_I_THREE
        CFI CFA_XSP16 add(XSP16, 24)
        LCALL   ?Subroutine7 & 0xFFFF
??CrossCallReturnLabel_80:
        LCALL   ?DEALLOC_XSTACK8
        CFI CFA_XSP16 add(XSP16, 21)
//  344 			optData[2] = 'S';
        LCALL   ?Subroutine13 & 0xFFFF
//  345 			incode_xtocs(optData+3, &temp, 1);
??CrossCallReturnLabel_22:
        LCALL   ?PUSH_XSTACK_I_TWO
        CFI CFA_XSP16 add(XSP16, 23)
        MOV     R4,#temp & 0xff
        MOV     R5,#(temp >> 8) & 0xff
        LCALL   ??Subroutine51_0 & 0xFFFF
??CrossCallReturnLabel_131:
        LCALL   ?DEALLOC_XSTACK8
        CFI CFA_XSP16 add(XSP16, 21)
//  346 			incode_xtocs(optData+5, &humi, 1);
        ; Setup parameters for call to function incode_xtocs
        MOV     R0,#?V0 + 0
        LCALL   ?PUSH_XSTACK_I_TWO
        CFI CFA_XSP16 add(XSP16, 23)
        LCALL   ?Subroutine15 & 0xFFFF
??CrossCallReturnLabel_64:
        LCALL   ?DEALLOC_XSTACK8
        CFI CFA_XSP16 add(XSP16, 21)
//  347 			
//  348 			Update_Refresh(optData, HUMITURE_DATA_SIZE);
        ; Setup parameters for call to function Update_Refresh
        MOV     R1,#0x7
        LCALL   ??Subroutine40_0 & 0xFFFF
//  349 		}
//  350 	}
??CrossCallReturnLabel_76:
        MOV     A,#0x9
        LCALL   ?DEALLOC_XSTACK8
        CFI CFA_XSP16 add(XSP16, 12)
        MOV     R7,#0x4
        LJMP    ?BANKED_LEAVE_XDATA
        CFI EndBlock cfiBlock25
//  351 }

        RSEG BANKED_CODE:CODE:NOROOT(0)
?Subroutine17:
        CFI Block cfiCond26 Using cfiCommon0
        CFI NoFunction
        CFI Conditional ??CrossCallReturnLabel_28
        CFI R6 load(1, XDATA, add(CFA_XSP16, literal(-12)))
        CFI VB load(1, XDATA, add(CFA_XSP16, literal(-11)))
        CFI V0 load(1, XDATA, add(CFA_XSP16, literal(-10)))
        CFI V1 load(1, XDATA, add(CFA_XSP16, literal(-9)))
        CFI V2 load(1, XDATA, add(CFA_XSP16, literal(-8)))
        CFI V3 load(1, XDATA, add(CFA_XSP16, literal(-7)))
        CFI R7 load(1, XDATA, add(CFA_XSP16, literal(-6)))
        CFI ?RET_LOW load(1, XDATA, add(CFA_XSP16, literal(-5)))
        CFI ?RET_HIGH load(1, XDATA, add(CFA_XSP16, literal(-4)))
        CFI ?BRET_EXT load(1, XDATA, add(CFA_XSP16, literal(-3)))
        CFI DPL0 load(1, XDATA, add(CFA_XSP16, literal(-2)))
        CFI DPH0 load(1, XDATA, add(CFA_XSP16, literal(-1)))
        CFI CFA_SP SP+0
        CFI CFA_XSP16 add(XSP16, 21)
        CFI Block cfiCond27 Using cfiCommon0
        CFI (cfiCond27) NoFunction
        CFI (cfiCond27) Conditional ??CrossCallReturnLabel_29
        CFI (cfiCond27) R6 load(1, XDATA, add(CFA_XSP16, literal(-12)))
        CFI (cfiCond27) VB load(1, XDATA, add(CFA_XSP16, literal(-11)))
        CFI (cfiCond27) V0 load(1, XDATA, add(CFA_XSP16, literal(-10)))
        CFI (cfiCond27) V1 load(1, XDATA, add(CFA_XSP16, literal(-9)))
        CFI (cfiCond27) V2 load(1, XDATA, add(CFA_XSP16, literal(-8)))
        CFI (cfiCond27) V3 load(1, XDATA, add(CFA_XSP16, literal(-7)))
        CFI (cfiCond27) R7 load(1, XDATA, add(CFA_XSP16, literal(-6)))
        CFI (cfiCond27) ?RET_LOW load(1, XDATA, add(CFA_XSP16, literal(-5)))
        CFI (cfiCond27) ?RET_HIGH load(1, XDATA, add(CFA_XSP16, literal(-4)))
        CFI (cfiCond27) ?BRET_EXT load(1, XDATA, add(CFA_XSP16, literal(-3)))
        CFI (cfiCond27) DPL0 load(1, XDATA, add(CFA_XSP16, literal(-2)))
        CFI (cfiCond27) DPH0 load(1, XDATA, add(CFA_XSP16, literal(-1)))
        CFI (cfiCond27) CFA_SP SP+0
        CFI (cfiCond27) CFA_XSP16 add(XSP16, 21)
        CFI Block cfiPicker28 Using cfiCommon1
        CFI (cfiPicker28) NoFunction
        CFI (cfiPicker28) Picker
        MOVX    A,@DPTR
        MOV     ?V0 + 0,A
        INC     DPTR
        MOVX    A,@DPTR
        MOV     ?V0 + 1,A
        CLR     A
        MOV     ?V0 + 2,A
        MOV     ?V0 + 3,A
        MOV     R0,#?V0 + 0
        RET
        CFI EndBlock cfiCond26
        CFI EndBlock cfiCond27
        CFI EndBlock cfiPicker28

        RSEG BANKED_CODE:CODE:NOROOT(0)
?Subroutine15:
        CFI Block cfiCond29 Using cfiCommon0
        CFI NoFunction
        CFI Conditional ??CrossCallReturnLabel_64
        CFI R6 load(1, XDATA, add(CFA_XSP16, literal(-12)))
        CFI VB load(1, XDATA, add(CFA_XSP16, literal(-11)))
        CFI V0 load(1, XDATA, add(CFA_XSP16, literal(-10)))
        CFI V1 load(1, XDATA, add(CFA_XSP16, literal(-9)))
        CFI V2 load(1, XDATA, add(CFA_XSP16, literal(-8)))
        CFI V3 load(1, XDATA, add(CFA_XSP16, literal(-7)))
        CFI R7 load(1, XDATA, add(CFA_XSP16, literal(-6)))
        CFI ?RET_LOW load(1, XDATA, add(CFA_XSP16, literal(-5)))
        CFI ?RET_HIGH load(1, XDATA, add(CFA_XSP16, literal(-4)))
        CFI ?BRET_EXT load(1, XDATA, add(CFA_XSP16, literal(-3)))
        CFI DPL0 load(1, XDATA, add(CFA_XSP16, literal(-2)))
        CFI DPH0 load(1, XDATA, add(CFA_XSP16, literal(-1)))
        CFI CFA_SP SP+0
        CFI CFA_XSP16 add(XSP16, 23)
        CFI Block cfiCond30 Using cfiCommon0
        CFI (cfiCond30) NoFunction
        CFI (cfiCond30) Conditional ??CrossCallReturnLabel_65
        CFI (cfiCond30) R6 load(1, XDATA, add(CFA_XSP16, literal(-15)))
        CFI (cfiCond30) VB load(1, XDATA, add(CFA_XSP16, literal(-14)))
        CFI (cfiCond30) V0 load(1, XDATA, add(CFA_XSP16, literal(-13)))
        CFI (cfiCond30) V1 load(1, XDATA, add(CFA_XSP16, literal(-12)))
        CFI (cfiCond30) V2 load(1, XDATA, add(CFA_XSP16, literal(-11)))
        CFI (cfiCond30) V3 load(1, XDATA, add(CFA_XSP16, literal(-10)))
        CFI (cfiCond30) V4 load(1, XDATA, add(CFA_XSP16, literal(-9)))
        CFI (cfiCond30) V5 load(1, XDATA, add(CFA_XSP16, literal(-8)))
        CFI (cfiCond30) V6 load(1, XDATA, add(CFA_XSP16, literal(-7)))
        CFI (cfiCond30) R7 load(1, XDATA, add(CFA_XSP16, literal(-6)))
        CFI (cfiCond30) ?RET_LOW load(1, XDATA, add(CFA_XSP16, literal(-5)))
        CFI (cfiCond30) ?RET_HIGH load(1, XDATA, add(CFA_XSP16, literal(-4)))
        CFI (cfiCond30) ?BRET_EXT load(1, XDATA, add(CFA_XSP16, literal(-3)))
        CFI (cfiCond30) DPL0 load(1, XDATA, add(CFA_XSP16, literal(-2)))
        CFI (cfiCond30) DPH0 load(1, XDATA, add(CFA_XSP16, literal(-1)))
        CFI (cfiCond30) CFA_SP SP+0
        CFI (cfiCond30) CFA_XSP16 add(XSP16, 17)
        CFI Block cfiPicker31 Using cfiCommon1
        CFI (cfiPicker31) NoFunction
        CFI (cfiPicker31) Picker
        MOV     R4,#humi & 0xff
        MOV     R5,#(humi >> 8) & 0xff
        CFI EndBlock cfiCond29
        CFI EndBlock cfiCond30
        CFI EndBlock cfiPicker31
        REQUIRE ??Subroutine37_0
        ; // Fall through to label ??Subroutine37_0

        RSEG BANKED_CODE:CODE:NOROOT(0)
??Subroutine37_0:
        CFI Block cfiCond32 Using cfiCommon0
        CFI NoFunction
        CFI Conditional ??CrossCallReturnLabel_66
        CFI R6 load(1, XDATA, add(CFA_XSP16, literal(-15)))
        CFI VB load(1, XDATA, add(CFA_XSP16, literal(-14)))
        CFI V0 load(1, XDATA, add(CFA_XSP16, literal(-13)))
        CFI V1 load(1, XDATA, add(CFA_XSP16, literal(-12)))
        CFI V2 load(1, XDATA, add(CFA_XSP16, literal(-11)))
        CFI V3 load(1, XDATA, add(CFA_XSP16, literal(-10)))
        CFI V4 load(1, XDATA, add(CFA_XSP16, literal(-9)))
        CFI V5 load(1, XDATA, add(CFA_XSP16, literal(-8)))
        CFI V6 load(1, XDATA, add(CFA_XSP16, literal(-7)))
        CFI R7 load(1, XDATA, add(CFA_XSP16, literal(-6)))
        CFI ?RET_LOW load(1, XDATA, add(CFA_XSP16, literal(-5)))
        CFI ?RET_HIGH load(1, XDATA, add(CFA_XSP16, literal(-4)))
        CFI ?BRET_EXT load(1, XDATA, add(CFA_XSP16, literal(-3)))
        CFI DPL0 load(1, XDATA, add(CFA_XSP16, literal(-2)))
        CFI DPH0 load(1, XDATA, add(CFA_XSP16, literal(-1)))
        CFI CFA_SP SP+0
        CFI CFA_XSP16 add(XSP16, 18)
        CFI Block cfiCond33 Using cfiCommon0
        CFI (cfiCond33) NoFunction
        CFI (cfiCond33) Conditional ??CrossCallReturnLabel_64
        CFI (cfiCond33) R6 load(1, XDATA, add(CFA_XSP16, literal(-12)))
        CFI (cfiCond33) VB load(1, XDATA, add(CFA_XSP16, literal(-11)))
        CFI (cfiCond33) V0 load(1, XDATA, add(CFA_XSP16, literal(-10)))
        CFI (cfiCond33) V1 load(1, XDATA, add(CFA_XSP16, literal(-9)))
        CFI (cfiCond33) V2 load(1, XDATA, add(CFA_XSP16, literal(-8)))
        CFI (cfiCond33) V3 load(1, XDATA, add(CFA_XSP16, literal(-7)))
        CFI (cfiCond33) R7 load(1, XDATA, add(CFA_XSP16, literal(-6)))
        CFI (cfiCond33) ?RET_LOW load(1, XDATA, add(CFA_XSP16, literal(-5)))
        CFI (cfiCond33) ?RET_HIGH load(1, XDATA, add(CFA_XSP16, literal(-4)))
        CFI (cfiCond33) ?BRET_EXT load(1, XDATA, add(CFA_XSP16, literal(-3)))
        CFI (cfiCond33) DPL0 load(1, XDATA, add(CFA_XSP16, literal(-2)))
        CFI (cfiCond33) DPH0 load(1, XDATA, add(CFA_XSP16, literal(-1)))
        CFI (cfiCond33) CFA_SP SP+0
        CFI (cfiCond33) CFA_XSP16 add(XSP16, 23)
        CFI Block cfiCond34 Using cfiCommon0
        CFI (cfiCond34) NoFunction
        CFI (cfiCond34) Conditional ??CrossCallReturnLabel_65
        CFI (cfiCond34) R6 load(1, XDATA, add(CFA_XSP16, literal(-15)))
        CFI (cfiCond34) VB load(1, XDATA, add(CFA_XSP16, literal(-14)))
        CFI (cfiCond34) V0 load(1, XDATA, add(CFA_XSP16, literal(-13)))
        CFI (cfiCond34) V1 load(1, XDATA, add(CFA_XSP16, literal(-12)))
        CFI (cfiCond34) V2 load(1, XDATA, add(CFA_XSP16, literal(-11)))
        CFI (cfiCond34) V3 load(1, XDATA, add(CFA_XSP16, literal(-10)))
        CFI (cfiCond34) V4 load(1, XDATA, add(CFA_XSP16, literal(-9)))
        CFI (cfiCond34) V5 load(1, XDATA, add(CFA_XSP16, literal(-8)))
        CFI (cfiCond34) V6 load(1, XDATA, add(CFA_XSP16, literal(-7)))
        CFI (cfiCond34) R7 load(1, XDATA, add(CFA_XSP16, literal(-6)))
        CFI (cfiCond34) ?RET_LOW load(1, XDATA, add(CFA_XSP16, literal(-5)))
        CFI (cfiCond34) ?RET_HIGH load(1, XDATA, add(CFA_XSP16, literal(-4)))
        CFI (cfiCond34) ?BRET_EXT load(1, XDATA, add(CFA_XSP16, literal(-3)))
        CFI (cfiCond34) DPL0 load(1, XDATA, add(CFA_XSP16, literal(-2)))
        CFI (cfiCond34) DPH0 load(1, XDATA, add(CFA_XSP16, literal(-1)))
        CFI (cfiCond34) CFA_SP SP+0
        CFI (cfiCond34) CFA_XSP16 add(XSP16, 17)
        CFI Block cfiPicker35 Using cfiCommon1
        CFI (cfiPicker35) NoFunction
        CFI (cfiPicker35) Picker
        MOV     DPTR,#optData
        MOVX    A,@DPTR
        ADD     A,#0x5
        CFI EndBlock cfiCond32
        CFI EndBlock cfiCond33
        CFI EndBlock cfiCond34
        CFI EndBlock cfiPicker35
        REQUIRE ??Subroutine38_0
        ; // Fall through to label ??Subroutine38_0

        RSEG BANKED_CODE:CODE:NOROOT(0)
??Subroutine38_0:
        CFI Block cfiCond36 Using cfiCommon0
        CFI NoFunction
        CFI Conditional ??CrossCallReturnLabel_67
        CFI R6 load(1, XDATA, add(CFA_XSP16, literal(-15)))
        CFI VB load(1, XDATA, add(CFA_XSP16, literal(-14)))
        CFI V0 load(1, XDATA, add(CFA_XSP16, literal(-13)))
        CFI V1 load(1, XDATA, add(CFA_XSP16, literal(-12)))
        CFI V2 load(1, XDATA, add(CFA_XSP16, literal(-11)))
        CFI V3 load(1, XDATA, add(CFA_XSP16, literal(-10)))
        CFI V4 load(1, XDATA, add(CFA_XSP16, literal(-9)))
        CFI V5 load(1, XDATA, add(CFA_XSP16, literal(-8)))
        CFI V6 load(1, XDATA, add(CFA_XSP16, literal(-7)))
        CFI R7 load(1, XDATA, add(CFA_XSP16, literal(-6)))
        CFI ?RET_LOW load(1, XDATA, add(CFA_XSP16, literal(-5)))
        CFI ?RET_HIGH load(1, XDATA, add(CFA_XSP16, literal(-4)))
        CFI ?BRET_EXT load(1, XDATA, add(CFA_XSP16, literal(-3)))
        CFI DPL0 load(1, XDATA, add(CFA_XSP16, literal(-2)))
        CFI DPH0 load(1, XDATA, add(CFA_XSP16, literal(-1)))
        CFI CFA_SP SP+0
        CFI CFA_XSP16 add(XSP16, 18)
        CFI Block cfiCond37 Using cfiCommon0
        CFI (cfiCond37) NoFunction
        CFI (cfiCond37) Conditional ??CrossCallReturnLabel_68
        CFI (cfiCond37) R6 load(1, XDATA, add(CFA_XSP16, literal(-15)))
        CFI (cfiCond37) VB load(1, XDATA, add(CFA_XSP16, literal(-14)))
        CFI (cfiCond37) V0 load(1, XDATA, add(CFA_XSP16, literal(-13)))
        CFI (cfiCond37) V1 load(1, XDATA, add(CFA_XSP16, literal(-12)))
        CFI (cfiCond37) V2 load(1, XDATA, add(CFA_XSP16, literal(-11)))
        CFI (cfiCond37) V3 load(1, XDATA, add(CFA_XSP16, literal(-10)))
        CFI (cfiCond37) V4 load(1, XDATA, add(CFA_XSP16, literal(-9)))
        CFI (cfiCond37) V5 load(1, XDATA, add(CFA_XSP16, literal(-8)))
        CFI (cfiCond37) V6 load(1, XDATA, add(CFA_XSP16, literal(-7)))
        CFI (cfiCond37) R7 load(1, XDATA, add(CFA_XSP16, literal(-6)))
        CFI (cfiCond37) ?RET_LOW load(1, XDATA, add(CFA_XSP16, literal(-5)))
        CFI (cfiCond37) ?RET_HIGH load(1, XDATA, add(CFA_XSP16, literal(-4)))
        CFI (cfiCond37) ?BRET_EXT load(1, XDATA, add(CFA_XSP16, literal(-3)))
        CFI (cfiCond37) DPL0 load(1, XDATA, add(CFA_XSP16, literal(-2)))
        CFI (cfiCond37) DPH0 load(1, XDATA, add(CFA_XSP16, literal(-1)))
        CFI (cfiCond37) CFA_SP SP+0
        CFI (cfiCond37) CFA_XSP16 add(XSP16, 18)
        CFI Block cfiCond38 Using cfiCommon0
        CFI (cfiCond38) NoFunction
        CFI (cfiCond38) Conditional ??CrossCallReturnLabel_66
        CFI (cfiCond38) R6 load(1, XDATA, add(CFA_XSP16, literal(-15)))
        CFI (cfiCond38) VB load(1, XDATA, add(CFA_XSP16, literal(-14)))
        CFI (cfiCond38) V0 load(1, XDATA, add(CFA_XSP16, literal(-13)))
        CFI (cfiCond38) V1 load(1, XDATA, add(CFA_XSP16, literal(-12)))
        CFI (cfiCond38) V2 load(1, XDATA, add(CFA_XSP16, literal(-11)))
        CFI (cfiCond38) V3 load(1, XDATA, add(CFA_XSP16, literal(-10)))
        CFI (cfiCond38) V4 load(1, XDATA, add(CFA_XSP16, literal(-9)))
        CFI (cfiCond38) V5 load(1, XDATA, add(CFA_XSP16, literal(-8)))
        CFI (cfiCond38) V6 load(1, XDATA, add(CFA_XSP16, literal(-7)))
        CFI (cfiCond38) R7 load(1, XDATA, add(CFA_XSP16, literal(-6)))
        CFI (cfiCond38) ?RET_LOW load(1, XDATA, add(CFA_XSP16, literal(-5)))
        CFI (cfiCond38) ?RET_HIGH load(1, XDATA, add(CFA_XSP16, literal(-4)))
        CFI (cfiCond38) ?BRET_EXT load(1, XDATA, add(CFA_XSP16, literal(-3)))
        CFI (cfiCond38) DPL0 load(1, XDATA, add(CFA_XSP16, literal(-2)))
        CFI (cfiCond38) DPH0 load(1, XDATA, add(CFA_XSP16, literal(-1)))
        CFI (cfiCond38) CFA_SP SP+0
        CFI (cfiCond38) CFA_XSP16 add(XSP16, 18)
        CFI Block cfiCond39 Using cfiCommon0
        CFI (cfiCond39) NoFunction
        CFI (cfiCond39) Conditional ??CrossCallReturnLabel_64
        CFI (cfiCond39) R6 load(1, XDATA, add(CFA_XSP16, literal(-12)))
        CFI (cfiCond39) VB load(1, XDATA, add(CFA_XSP16, literal(-11)))
        CFI (cfiCond39) V0 load(1, XDATA, add(CFA_XSP16, literal(-10)))
        CFI (cfiCond39) V1 load(1, XDATA, add(CFA_XSP16, literal(-9)))
        CFI (cfiCond39) V2 load(1, XDATA, add(CFA_XSP16, literal(-8)))
        CFI (cfiCond39) V3 load(1, XDATA, add(CFA_XSP16, literal(-7)))
        CFI (cfiCond39) R7 load(1, XDATA, add(CFA_XSP16, literal(-6)))
        CFI (cfiCond39) ?RET_LOW load(1, XDATA, add(CFA_XSP16, literal(-5)))
        CFI (cfiCond39) ?RET_HIGH load(1, XDATA, add(CFA_XSP16, literal(-4)))
        CFI (cfiCond39) ?BRET_EXT load(1, XDATA, add(CFA_XSP16, literal(-3)))
        CFI (cfiCond39) DPL0 load(1, XDATA, add(CFA_XSP16, literal(-2)))
        CFI (cfiCond39) DPH0 load(1, XDATA, add(CFA_XSP16, literal(-1)))
        CFI (cfiCond39) CFA_SP SP+0
        CFI (cfiCond39) CFA_XSP16 add(XSP16, 23)
        CFI Block cfiCond40 Using cfiCommon0
        CFI (cfiCond40) NoFunction
        CFI (cfiCond40) Conditional ??CrossCallReturnLabel_65
        CFI (cfiCond40) R6 load(1, XDATA, add(CFA_XSP16, literal(-15)))
        CFI (cfiCond40) VB load(1, XDATA, add(CFA_XSP16, literal(-14)))
        CFI (cfiCond40) V0 load(1, XDATA, add(CFA_XSP16, literal(-13)))
        CFI (cfiCond40) V1 load(1, XDATA, add(CFA_XSP16, literal(-12)))
        CFI (cfiCond40) V2 load(1, XDATA, add(CFA_XSP16, literal(-11)))
        CFI (cfiCond40) V3 load(1, XDATA, add(CFA_XSP16, literal(-10)))
        CFI (cfiCond40) V4 load(1, XDATA, add(CFA_XSP16, literal(-9)))
        CFI (cfiCond40) V5 load(1, XDATA, add(CFA_XSP16, literal(-8)))
        CFI (cfiCond40) V6 load(1, XDATA, add(CFA_XSP16, literal(-7)))
        CFI (cfiCond40) R7 load(1, XDATA, add(CFA_XSP16, literal(-6)))
        CFI (cfiCond40) ?RET_LOW load(1, XDATA, add(CFA_XSP16, literal(-5)))
        CFI (cfiCond40) ?RET_HIGH load(1, XDATA, add(CFA_XSP16, literal(-4)))
        CFI (cfiCond40) ?BRET_EXT load(1, XDATA, add(CFA_XSP16, literal(-3)))
        CFI (cfiCond40) DPL0 load(1, XDATA, add(CFA_XSP16, literal(-2)))
        CFI (cfiCond40) DPH0 load(1, XDATA, add(CFA_XSP16, literal(-1)))
        CFI (cfiCond40) CFA_SP SP+0
        CFI (cfiCond40) CFA_XSP16 add(XSP16, 17)
        CFI Block cfiPicker41 Using cfiCommon1
        CFI (cfiPicker41) NoFunction
        CFI (cfiPicker41) Picker
        LCALL   ?Subroutine31 & 0xFFFF
??CrossCallReturnLabel_137:
        RET
        CFI EndBlock cfiCond36
        CFI EndBlock cfiCond37
        CFI EndBlock cfiCond38
        CFI EndBlock cfiCond39
        CFI EndBlock cfiCond40
        CFI EndBlock cfiPicker41
//  352 
//  353 void lightdetect_init(void)
//  354 {
//  355 	update_user_event(CommonApp_TaskID, 
//  356   					DEMOBASE_LIGHTDETECT_EVT, 
//  357   					DemoBaseLightDetect_StatusCB, 
//  358   					2000, 
//  359   					TIMER_LOOP_EXECUTION|TIMER_EVENT_RESIDENTS, 
//  360   					NULL);
//  361 }
//  362 

        RSEG BANKED_CODE:CODE:NOROOT(0)
//  363 void DemoBaseLightDetect_StatusCB( void *params, uint16 *duration, uint8 *count)
DemoBaseLightDetect_StatusCB:
        CFI Block cfiBlock42 Using cfiCommon0
        CFI Function DemoBaseLightDetect_StatusCB
        CODE
//  364 {
        FUNCALL DemoBaseLightDetect_StatusCB, osal_mem_free
        LOCFRAME ISTACK, 0, STACK
        LOCFRAME PSTACK, 0, STACK
        LOCFRAME XSTACK, 11, STACK
        LOCFRAME IOVERLAY, 0, STATIC
        LOCFRAME DOVERLAY, 0, STATIC
        ARGFRAME ISTACK, 0, STACK
        ARGFRAME PSTACK, 0, STACK
        ARGFRAME XSTACK, 11, STACK
        ARGFRAME IOVERLAY, 0, STATIC
        ARGFRAME DOVERLAY, 0, STATIC
        FUNCALL DemoBaseLightDetect_StatusCB, osal_mem_alloc
        LOCFRAME ISTACK, 0, STACK
        LOCFRAME PSTACK, 0, STACK
        LOCFRAME XSTACK, 11, STACK
        LOCFRAME IOVERLAY, 0, STATIC
        LOCFRAME DOVERLAY, 0, STATIC
        ARGFRAME ISTACK, 0, STACK
        ARGFRAME PSTACK, 0, STACK
        ARGFRAME XSTACK, 11, STACK
        ARGFRAME IOVERLAY, 0, STATIC
        ARGFRAME DOVERLAY, 0, STATIC
        FUNCALL DemoBaseLightDetect_StatusCB, osal_memcpy
        LOCFRAME ISTACK, 0, STACK
        LOCFRAME PSTACK, 0, STACK
        LOCFRAME XSTACK, 14, STACK
        LOCFRAME IOVERLAY, 0, STATIC
        LOCFRAME DOVERLAY, 0, STATIC
        ARGFRAME ISTACK, 0, STACK
        ARGFRAME PSTACK, 0, STACK
        ARGFRAME XSTACK, 14, STACK
        ARGFRAME IOVERLAY, 0, STATIC
        ARGFRAME DOVERLAY, 0, STATIC
        FUNCALL DemoBaseLightDetect_StatusCB, incode_xtocs
        LOCFRAME ISTACK, 0, STACK
        LOCFRAME PSTACK, 0, STACK
        LOCFRAME XSTACK, 13, STACK
        LOCFRAME IOVERLAY, 0, STATIC
        LOCFRAME DOVERLAY, 0, STATIC
        ARGFRAME ISTACK, 0, STACK
        ARGFRAME PSTACK, 0, STACK
        ARGFRAME XSTACK, 13, STACK
        ARGFRAME IOVERLAY, 0, STATIC
        ARGFRAME DOVERLAY, 0, STATIC
        FUNCALL DemoBaseLightDetect_StatusCB, Update_Refresh
        LOCFRAME ISTACK, 0, STACK
        LOCFRAME PSTACK, 0, STACK
        LOCFRAME XSTACK, 11, STACK
        LOCFRAME IOVERLAY, 0, STATIC
        LOCFRAME DOVERLAY, 0, STATIC
        ARGFRAME ISTACK, 0, STACK
        ARGFRAME PSTACK, 0, STACK
        ARGFRAME XSTACK, 11, STACK
        ARGFRAME IOVERLAY, 0, STATIC
        ARGFRAME DOVERLAY, 0, STATIC
        MOV     A,#-0xb
        LCALL   ?BANKED_ENTER_XDATA
        CFI DPH0 load(1, XDATA, add(CFA_XSP16, literal(-1)))
        CFI DPL0 load(1, XDATA, add(CFA_XSP16, literal(-2)))
        CFI ?BRET_EXT load(1, XDATA, add(CFA_XSP16, literal(-3)))
        CFI ?RET_HIGH load(1, XDATA, add(CFA_XSP16, literal(-4)))
        CFI ?RET_LOW load(1, XDATA, add(CFA_XSP16, literal(-5)))
        CFI R7 load(1, XDATA, add(CFA_XSP16, literal(-6)))
        CFI V2 load(1, XDATA, add(CFA_XSP16, literal(-7)))
        CFI V1 load(1, XDATA, add(CFA_XSP16, literal(-8)))
        CFI V0 load(1, XDATA, add(CFA_XSP16, literal(-9)))
        CFI VB load(1, XDATA, add(CFA_XSP16, literal(-10)))
        CFI R6 load(1, XDATA, add(CFA_XSP16, literal(-11)))
        CFI CFA_SP SP+0
        CFI CFA_XSP16 add(XSP16, 11)
        ; Saved register size: 11
        ; Auto size: 0
//  365 	uint16 avgAD, i;
//  366 	uint8 currentGrade;
//  367 	
//  368 	for(i=0; i<64; i++)
        MOV     R6,#0x40
//  369 	{
//  370 		avgAD += getAD();
//  371 		avgAD = avgAD/2;
??DemoBaseLightDetect_StatusCB_0:
        MOV     0xb6,#-0x4f
??DemoBaseLightDetect_StatusCB_1:
        MOV     A,0xb4
        MOV     C,0xE0 /* A   */.7
        JNC     ??DemoBaseLightDetect_StatusCB_1
        MOV     A,0xba
        SWAP    A
        ANL     A,#0xf
        MOV     R4,A
        MOV     ?V0 + 0,0xbb
        MOV     ?V0 + 1,#0x0
        MOV     A,#0x4
        MOV     R0,#?V0 + 0
        LCALL   ?S_SHL
        MOV     A,R4
        ORL     A,?V0 + 0
        MOV     R0,A
        MOV     R1,?V0 + 1
        MOV     A,R2
        ADD     A,R0
        MOV     R2,A
        MOV     A,R3
        ADDC    A,R1
        CLR     C
        RRC     A
        MOV     R3,A
        MOV     A,R2
        RRC     A
        MOV     R2,A
//  372 	}
        DEC     R6
        MOV     A,R6
        JNZ     ??DemoBaseLightDetect_StatusCB_0
//  373 	avgAD &= 0x0FFF;
        MOV     A,#0xf
        ANL     A,R3
        MOV     R3,A
//  374 
//  375 	if(avgAD > 962)	/* 弱光 */
        CLR     C
        MOV     A,R2
        SUBB    A,#-0x3d
        MOV     A,R3
        SUBB    A,#0x3
        JC      ??DemoBaseLightDetect_StatusCB_2
//  376 	{
//  377 		currentGrade = 1;
        MOV     R0,#0x1
        SJMP    ??DemoBaseLightDetect_StatusCB_3
//  378 	}
//  379 	else if(avgAD > 200) /* 正常*/
??DemoBaseLightDetect_StatusCB_2:
        CLR     C
        MOV     A,R2
        SUBB    A,#-0x37
        MOV     A,R3
        SUBB    A,#0x0
        JC      ??DemoBaseLightDetect_StatusCB_4
//  380 	{
//  381 		currentGrade = 2;
        MOV     R0,#0x2
        SJMP    ??DemoBaseLightDetect_StatusCB_3
//  382 	}
//  383 	else /* 强光*/
//  384 	{
//  385 		currentGrade = 3;
??DemoBaseLightDetect_StatusCB_4:
        MOV     R0,#0x3
//  386 	}
//  387 	
//  388 	if( lightGrade != currentGrade )
??DemoBaseLightDetect_StatusCB_3:
        MOV     DPTR,#lightGrade
        MOVX    A,@DPTR
        XRL     A,R0
        JZ      ??CrossCallReturnLabel_73
//  389 	{
//  390 		lightGrade = currentGrade;
        LCALL   ?Subroutine26 & 0xFFFF
//  391 		
//  392 		if(queryStates)
??CrossCallReturnLabel_69:
        JZ      ??CrossCallReturnLabel_73
//  393 		{
//  394 			if(optData != NULL && optDataLen < LIGHTDETECT_DATA_SIZE)
        LCALL   ??Subroutine46_0 & 0xFFFF
??CrossCallReturnLabel_111:
        JZ      ??CrossCallReturnLabel_8
        MOV     DPTR,#optDataLen
        MOVX    A,@DPTR
        CLR     C
        SUBB    A,#0x5
        JNC     ??CrossCallReturnLabel_34
//  395 			{
//  396 				osal_mem_free(optData);
        ; Setup parameters for call to function osal_mem_free
        LCALL   ?Subroutine6 & 0xFFFF
//  397 				optData = NULL;
//  398 				optDataLen = 0;
//  399 			}
//  400 
//  401 			if(optData == NULL)
//  402 			{
//  403 				optData = osal_mem_alloc(LIGHTDETECT_DATA_SIZE);
??CrossCallReturnLabel_8:
        ; Setup parameters for call to function osal_mem_alloc
        LCALL   ?Subroutine21 & 0xFFFF
//  404 				optDataLen = LIGHTDETECT_DATA_SIZE;
//  405 			}
//  406 
//  407 			osal_memcpy(optData, DEMOBASE_DEVICE_LIGHTDETECT, 2);
??CrossCallReturnLabel_34:
        ; Setup parameters for call to function osal_memcpy
        MOV     ?V0 + 0,#`?<Constant "05">` & 0xff
        MOV     ?V0 + 1,#(`?<Constant "05">` >> 8) & 0xff
        MOV     ?V0 + 2,#0x0
        MOV     R0,#?V0 + 0
        LCALL   ?PUSH_XSTACK_I_THREE
        CFI CFA_XSP16 add(XSP16, 14)
        LCALL   ?Subroutine7 & 0xFFFF
??CrossCallReturnLabel_81:
        LCALL   ?DEALLOC_XSTACK8
        CFI CFA_XSP16 add(XSP16, 11)
//  408 			optData[2] = 'S';
        LCALL   ?Subroutine13 & 0xFFFF
//  409 			incode_xtocs(optData+3, &lightGrade, 1);
??CrossCallReturnLabel_23:
        LCALL   ?PUSH_XSTACK_I_TWO
        CFI CFA_XSP16 add(XSP16, 13)
        MOV     R4,#lightGrade & 0xff
        MOV     R5,#(lightGrade >> 8) & 0xff
        LCALL   ??Subroutine51_0 & 0xFFFF
??CrossCallReturnLabel_132:
        LCALL   ?DEALLOC_XSTACK8
        CFI CFA_XSP16 add(XSP16, 11)
//  410 			
//  411 			Update_Refresh(optData, LIGHTDETECT_DATA_SIZE);
        ; Setup parameters for call to function Update_Refresh
        LCALL   ?Subroutine16 & 0xFFFF
//  412 		}
//  413 	}
//  414 }
??CrossCallReturnLabel_73:
        LJMP    ?Subroutine2 & 0xFFFF
        CFI EndBlock cfiBlock42
        REQUIRE ADCCON3
        REQUIRE ADCCON1
        REQUIRE ADCL
        REQUIRE ADCH

        RSEG BANKED_CODE:CODE:NOROOT(0)
?Subroutine26:
        CFI Block cfiCond43 Using cfiCommon0
        CFI NoFunction
        CFI Conditional ??CrossCallReturnLabel_69
        CFI R6 load(1, XDATA, add(CFA_XSP16, literal(-11)))
        CFI VB load(1, XDATA, add(CFA_XSP16, literal(-10)))
        CFI V0 load(1, XDATA, add(CFA_XSP16, literal(-9)))
        CFI V1 load(1, XDATA, add(CFA_XSP16, literal(-8)))
        CFI V2 load(1, XDATA, add(CFA_XSP16, literal(-7)))
        CFI R7 load(1, XDATA, add(CFA_XSP16, literal(-6)))
        CFI ?RET_LOW load(1, XDATA, add(CFA_XSP16, literal(-5)))
        CFI ?RET_HIGH load(1, XDATA, add(CFA_XSP16, literal(-4)))
        CFI ?BRET_EXT load(1, XDATA, add(CFA_XSP16, literal(-3)))
        CFI DPL0 load(1, XDATA, add(CFA_XSP16, literal(-2)))
        CFI DPH0 load(1, XDATA, add(CFA_XSP16, literal(-1)))
        CFI CFA_SP SP+0
        CFI CFA_XSP16 add(XSP16, 11)
        CFI Block cfiCond44 Using cfiCommon0
        CFI (cfiCond44) NoFunction
        CFI (cfiCond44) Conditional ??CrossCallReturnLabel_70
        CFI (cfiCond44) R6 load(1, XDATA, add(CFA_XSP16, literal(-11)))
        CFI (cfiCond44) VB load(1, XDATA, add(CFA_XSP16, literal(-10)))
        CFI (cfiCond44) V0 load(1, XDATA, add(CFA_XSP16, literal(-9)))
        CFI (cfiCond44) V1 load(1, XDATA, add(CFA_XSP16, literal(-8)))
        CFI (cfiCond44) V2 load(1, XDATA, add(CFA_XSP16, literal(-7)))
        CFI (cfiCond44) R7 load(1, XDATA, add(CFA_XSP16, literal(-6)))
        CFI (cfiCond44) ?RET_LOW load(1, XDATA, add(CFA_XSP16, literal(-5)))
        CFI (cfiCond44) ?RET_HIGH load(1, XDATA, add(CFA_XSP16, literal(-4)))
        CFI (cfiCond44) ?BRET_EXT load(1, XDATA, add(CFA_XSP16, literal(-3)))
        CFI (cfiCond44) DPL0 load(1, XDATA, add(CFA_XSP16, literal(-2)))
        CFI (cfiCond44) DPH0 load(1, XDATA, add(CFA_XSP16, literal(-1)))
        CFI (cfiCond44) CFA_SP SP+0
        CFI (cfiCond44) CFA_XSP16 add(XSP16, 11)
        CFI Block cfiPicker45 Using cfiCommon1
        CFI (cfiPicker45) NoFunction
        CFI (cfiPicker45) Picker
        MOV     A,R0
        CFI EndBlock cfiCond43
        CFI EndBlock cfiCond44
        CFI EndBlock cfiPicker45
        REQUIRE ??Subroutine39_0
        ; // Fall through to label ??Subroutine39_0

        RSEG BANKED_CODE:CODE:NOROOT(0)
??Subroutine39_0:
        CFI Block cfiCond46 Using cfiCommon0
        CFI NoFunction
        CFI Conditional ??CrossCallReturnLabel_71
        CFI R6 load(1, XDATA, add(CFA_XSP16, literal(-11)))
        CFI VB load(1, XDATA, add(CFA_XSP16, literal(-10)))
        CFI V0 load(1, XDATA, add(CFA_XSP16, literal(-9)))
        CFI V1 load(1, XDATA, add(CFA_XSP16, literal(-8)))
        CFI V2 load(1, XDATA, add(CFA_XSP16, literal(-7)))
        CFI R7 load(1, XDATA, add(CFA_XSP16, literal(-6)))
        CFI ?RET_LOW load(1, XDATA, add(CFA_XSP16, literal(-5)))
        CFI ?RET_HIGH load(1, XDATA, add(CFA_XSP16, literal(-4)))
        CFI ?BRET_EXT load(1, XDATA, add(CFA_XSP16, literal(-3)))
        CFI DPL0 load(1, XDATA, add(CFA_XSP16, literal(-2)))
        CFI DPH0 load(1, XDATA, add(CFA_XSP16, literal(-1)))
        CFI CFA_SP SP+0
        CFI CFA_XSP16 add(XSP16, 14)
        CFI Block cfiCond47 Using cfiCommon0
        CFI (cfiCond47) NoFunction
        CFI (cfiCond47) Conditional ??CrossCallReturnLabel_72
        CFI (cfiCond47) R6 load(1, XDATA, add(CFA_XSP16, literal(-12)))
        CFI (cfiCond47) VB load(1, XDATA, add(CFA_XSP16, literal(-11)))
        CFI (cfiCond47) V0 load(1, XDATA, add(CFA_XSP16, literal(-10)))
        CFI (cfiCond47) V1 load(1, XDATA, add(CFA_XSP16, literal(-9)))
        CFI (cfiCond47) V2 load(1, XDATA, add(CFA_XSP16, literal(-8)))
        CFI (cfiCond47) V3 load(1, XDATA, add(CFA_XSP16, literal(-7)))
        CFI (cfiCond47) R7 load(1, XDATA, add(CFA_XSP16, literal(-6)))
        CFI (cfiCond47) ?RET_LOW load(1, XDATA, add(CFA_XSP16, literal(-5)))
        CFI (cfiCond47) ?RET_HIGH load(1, XDATA, add(CFA_XSP16, literal(-4)))
        CFI (cfiCond47) ?BRET_EXT load(1, XDATA, add(CFA_XSP16, literal(-3)))
        CFI (cfiCond47) DPL0 load(1, XDATA, add(CFA_XSP16, literal(-2)))
        CFI (cfiCond47) DPH0 load(1, XDATA, add(CFA_XSP16, literal(-1)))
        CFI (cfiCond47) CFA_SP SP+0
        CFI (cfiCond47) CFA_XSP16 add(XSP16, 21)
        CFI Block cfiCond48 Using cfiCommon0
        CFI (cfiCond48) NoFunction
        CFI (cfiCond48) Conditional ??CrossCallReturnLabel_69
        CFI (cfiCond48) R6 load(1, XDATA, add(CFA_XSP16, literal(-11)))
        CFI (cfiCond48) VB load(1, XDATA, add(CFA_XSP16, literal(-10)))
        CFI (cfiCond48) V0 load(1, XDATA, add(CFA_XSP16, literal(-9)))
        CFI (cfiCond48) V1 load(1, XDATA, add(CFA_XSP16, literal(-8)))
        CFI (cfiCond48) V2 load(1, XDATA, add(CFA_XSP16, literal(-7)))
        CFI (cfiCond48) R7 load(1, XDATA, add(CFA_XSP16, literal(-6)))
        CFI (cfiCond48) ?RET_LOW load(1, XDATA, add(CFA_XSP16, literal(-5)))
        CFI (cfiCond48) ?RET_HIGH load(1, XDATA, add(CFA_XSP16, literal(-4)))
        CFI (cfiCond48) ?BRET_EXT load(1, XDATA, add(CFA_XSP16, literal(-3)))
        CFI (cfiCond48) DPL0 load(1, XDATA, add(CFA_XSP16, literal(-2)))
        CFI (cfiCond48) DPH0 load(1, XDATA, add(CFA_XSP16, literal(-1)))
        CFI (cfiCond48) CFA_SP SP+0
        CFI (cfiCond48) CFA_XSP16 add(XSP16, 11)
        CFI Block cfiCond49 Using cfiCommon0
        CFI (cfiCond49) NoFunction
        CFI (cfiCond49) Conditional ??CrossCallReturnLabel_70
        CFI (cfiCond49) R6 load(1, XDATA, add(CFA_XSP16, literal(-11)))
        CFI (cfiCond49) VB load(1, XDATA, add(CFA_XSP16, literal(-10)))
        CFI (cfiCond49) V0 load(1, XDATA, add(CFA_XSP16, literal(-9)))
        CFI (cfiCond49) V1 load(1, XDATA, add(CFA_XSP16, literal(-8)))
        CFI (cfiCond49) V2 load(1, XDATA, add(CFA_XSP16, literal(-7)))
        CFI (cfiCond49) R7 load(1, XDATA, add(CFA_XSP16, literal(-6)))
        CFI (cfiCond49) ?RET_LOW load(1, XDATA, add(CFA_XSP16, literal(-5)))
        CFI (cfiCond49) ?RET_HIGH load(1, XDATA, add(CFA_XSP16, literal(-4)))
        CFI (cfiCond49) ?BRET_EXT load(1, XDATA, add(CFA_XSP16, literal(-3)))
        CFI (cfiCond49) DPL0 load(1, XDATA, add(CFA_XSP16, literal(-2)))
        CFI (cfiCond49) DPH0 load(1, XDATA, add(CFA_XSP16, literal(-1)))
        CFI (cfiCond49) CFA_SP SP+0
        CFI (cfiCond49) CFA_XSP16 add(XSP16, 11)
        CFI Block cfiPicker50 Using cfiCommon1
        CFI (cfiPicker50) NoFunction
        CFI (cfiPicker50) Picker
        MOVX    @DPTR,A
        MOV     DPTR,#queryStates
        MOVX    A,@DPTR
        RET
        CFI EndBlock cfiCond46
        CFI EndBlock cfiCond47
        CFI EndBlock cfiCond48
        CFI EndBlock cfiCond49
        CFI EndBlock cfiPicker50

        RSEG BANKED_CODE:CODE:NOROOT(0)
?Subroutine16:
        CFI Block cfiCond51 Using cfiCommon0
        CFI NoFunction
        CFI Conditional ??CrossCallReturnLabel_73
        CFI R6 load(1, XDATA, add(CFA_XSP16, literal(-11)))
        CFI VB load(1, XDATA, add(CFA_XSP16, literal(-10)))
        CFI V0 load(1, XDATA, add(CFA_XSP16, literal(-9)))
        CFI V1 load(1, XDATA, add(CFA_XSP16, literal(-8)))
        CFI V2 load(1, XDATA, add(CFA_XSP16, literal(-7)))
        CFI R7 load(1, XDATA, add(CFA_XSP16, literal(-6)))
        CFI ?RET_LOW load(1, XDATA, add(CFA_XSP16, literal(-5)))
        CFI ?RET_HIGH load(1, XDATA, add(CFA_XSP16, literal(-4)))
        CFI ?BRET_EXT load(1, XDATA, add(CFA_XSP16, literal(-3)))
        CFI DPL0 load(1, XDATA, add(CFA_XSP16, literal(-2)))
        CFI DPH0 load(1, XDATA, add(CFA_XSP16, literal(-1)))
        CFI CFA_SP SP+0
        CFI CFA_XSP16 add(XSP16, 11)
        CFI Block cfiCond52 Using cfiCommon0
        CFI (cfiCond52) NoFunction
        CFI (cfiCond52) Conditional ??CrossCallReturnLabel_74
        CFI (cfiCond52) R6 load(1, XDATA, add(CFA_XSP16, literal(-11)))
        CFI (cfiCond52) VB load(1, XDATA, add(CFA_XSP16, literal(-10)))
        CFI (cfiCond52) V0 load(1, XDATA, add(CFA_XSP16, literal(-9)))
        CFI (cfiCond52) V1 load(1, XDATA, add(CFA_XSP16, literal(-8)))
        CFI (cfiCond52) V2 load(1, XDATA, add(CFA_XSP16, literal(-7)))
        CFI (cfiCond52) R7 load(1, XDATA, add(CFA_XSP16, literal(-6)))
        CFI (cfiCond52) ?RET_LOW load(1, XDATA, add(CFA_XSP16, literal(-5)))
        CFI (cfiCond52) ?RET_HIGH load(1, XDATA, add(CFA_XSP16, literal(-4)))
        CFI (cfiCond52) ?BRET_EXT load(1, XDATA, add(CFA_XSP16, literal(-3)))
        CFI (cfiCond52) DPL0 load(1, XDATA, add(CFA_XSP16, literal(-2)))
        CFI (cfiCond52) DPH0 load(1, XDATA, add(CFA_XSP16, literal(-1)))
        CFI (cfiCond52) CFA_SP SP+0
        CFI (cfiCond52) CFA_XSP16 add(XSP16, 11)
        CFI Block cfiPicker53 Using cfiCommon1
        CFI (cfiPicker53) NoFunction
        CFI (cfiPicker53) Picker
        MOV     R1,#0x5
        CFI EndBlock cfiCond51
        CFI EndBlock cfiCond52
        CFI EndBlock cfiPicker53
        REQUIRE ??Subroutine40_0
        ; // Fall through to label ??Subroutine40_0

        RSEG BANKED_CODE:CODE:NOROOT(0)
??Subroutine40_0:
        CFI Block cfiCond54 Using cfiCommon0
        CFI NoFunction
        CFI Conditional ??CrossCallReturnLabel_75
        CFI R6 load(1, XDATA, add(CFA_XSP16, literal(-11)))
        CFI VB load(1, XDATA, add(CFA_XSP16, literal(-10)))
        CFI V0 load(1, XDATA, add(CFA_XSP16, literal(-9)))
        CFI V1 load(1, XDATA, add(CFA_XSP16, literal(-8)))
        CFI V2 load(1, XDATA, add(CFA_XSP16, literal(-7)))
        CFI R7 load(1, XDATA, add(CFA_XSP16, literal(-6)))
        CFI ?RET_LOW load(1, XDATA, add(CFA_XSP16, literal(-5)))
        CFI ?RET_HIGH load(1, XDATA, add(CFA_XSP16, literal(-4)))
        CFI ?BRET_EXT load(1, XDATA, add(CFA_XSP16, literal(-3)))
        CFI DPL0 load(1, XDATA, add(CFA_XSP16, literal(-2)))
        CFI DPH0 load(1, XDATA, add(CFA_XSP16, literal(-1)))
        CFI CFA_SP SP+0
        CFI CFA_XSP16 add(XSP16, 14)
        CFI Block cfiCond55 Using cfiCommon0
        CFI (cfiCond55) NoFunction
        CFI (cfiCond55) Conditional ??CrossCallReturnLabel_76
        CFI (cfiCond55) R6 load(1, XDATA, add(CFA_XSP16, literal(-12)))
        CFI (cfiCond55) VB load(1, XDATA, add(CFA_XSP16, literal(-11)))
        CFI (cfiCond55) V0 load(1, XDATA, add(CFA_XSP16, literal(-10)))
        CFI (cfiCond55) V1 load(1, XDATA, add(CFA_XSP16, literal(-9)))
        CFI (cfiCond55) V2 load(1, XDATA, add(CFA_XSP16, literal(-8)))
        CFI (cfiCond55) V3 load(1, XDATA, add(CFA_XSP16, literal(-7)))
        CFI (cfiCond55) R7 load(1, XDATA, add(CFA_XSP16, literal(-6)))
        CFI (cfiCond55) ?RET_LOW load(1, XDATA, add(CFA_XSP16, literal(-5)))
        CFI (cfiCond55) ?RET_HIGH load(1, XDATA, add(CFA_XSP16, literal(-4)))
        CFI (cfiCond55) ?BRET_EXT load(1, XDATA, add(CFA_XSP16, literal(-3)))
        CFI (cfiCond55) DPL0 load(1, XDATA, add(CFA_XSP16, literal(-2)))
        CFI (cfiCond55) DPH0 load(1, XDATA, add(CFA_XSP16, literal(-1)))
        CFI (cfiCond55) CFA_SP SP+0
        CFI (cfiCond55) CFA_XSP16 add(XSP16, 21)
        CFI Block cfiCond56 Using cfiCommon0
        CFI (cfiCond56) NoFunction
        CFI (cfiCond56) Conditional ??CrossCallReturnLabel_73
        CFI (cfiCond56) R6 load(1, XDATA, add(CFA_XSP16, literal(-11)))
        CFI (cfiCond56) VB load(1, XDATA, add(CFA_XSP16, literal(-10)))
        CFI (cfiCond56) V0 load(1, XDATA, add(CFA_XSP16, literal(-9)))
        CFI (cfiCond56) V1 load(1, XDATA, add(CFA_XSP16, literal(-8)))
        CFI (cfiCond56) V2 load(1, XDATA, add(CFA_XSP16, literal(-7)))
        CFI (cfiCond56) R7 load(1, XDATA, add(CFA_XSP16, literal(-6)))
        CFI (cfiCond56) ?RET_LOW load(1, XDATA, add(CFA_XSP16, literal(-5)))
        CFI (cfiCond56) ?RET_HIGH load(1, XDATA, add(CFA_XSP16, literal(-4)))
        CFI (cfiCond56) ?BRET_EXT load(1, XDATA, add(CFA_XSP16, literal(-3)))
        CFI (cfiCond56) DPL0 load(1, XDATA, add(CFA_XSP16, literal(-2)))
        CFI (cfiCond56) DPH0 load(1, XDATA, add(CFA_XSP16, literal(-1)))
        CFI (cfiCond56) CFA_SP SP+0
        CFI (cfiCond56) CFA_XSP16 add(XSP16, 11)
        CFI Block cfiCond57 Using cfiCommon0
        CFI (cfiCond57) NoFunction
        CFI (cfiCond57) Conditional ??CrossCallReturnLabel_74
        CFI (cfiCond57) R6 load(1, XDATA, add(CFA_XSP16, literal(-11)))
        CFI (cfiCond57) VB load(1, XDATA, add(CFA_XSP16, literal(-10)))
        CFI (cfiCond57) V0 load(1, XDATA, add(CFA_XSP16, literal(-9)))
        CFI (cfiCond57) V1 load(1, XDATA, add(CFA_XSP16, literal(-8)))
        CFI (cfiCond57) V2 load(1, XDATA, add(CFA_XSP16, literal(-7)))
        CFI (cfiCond57) R7 load(1, XDATA, add(CFA_XSP16, literal(-6)))
        CFI (cfiCond57) ?RET_LOW load(1, XDATA, add(CFA_XSP16, literal(-5)))
        CFI (cfiCond57) ?RET_HIGH load(1, XDATA, add(CFA_XSP16, literal(-4)))
        CFI (cfiCond57) ?BRET_EXT load(1, XDATA, add(CFA_XSP16, literal(-3)))
        CFI (cfiCond57) DPL0 load(1, XDATA, add(CFA_XSP16, literal(-2)))
        CFI (cfiCond57) DPH0 load(1, XDATA, add(CFA_XSP16, literal(-1)))
        CFI (cfiCond57) CFA_SP SP+0
        CFI (cfiCond57) CFA_XSP16 add(XSP16, 11)
        CFI Block cfiPicker58 Using cfiCommon1
        CFI (cfiPicker58) NoFunction
        CFI (cfiPicker58) Picker
        MOV     DPTR,#optData
        MOVX    A,@DPTR
        MOV     R2,A
        INC     DPTR
        MOVX    A,@DPTR
        MOV     R3,A
        LCALL   ??Update_Refresh?relay
        RET
        CFI EndBlock cfiCond54
        CFI EndBlock cfiCond55
        CFI EndBlock cfiCond56
        CFI EndBlock cfiCond57
        CFI EndBlock cfiPicker58

        RSEG BANKED_CODE:CODE:NOROOT(0)
?Subroutine13:
        CFI Block cfiCond59 Using cfiCommon0
        CFI NoFunction
        CFI Conditional ??CrossCallReturnLabel_22
        CFI R6 load(1, XDATA, add(CFA_XSP16, literal(-12)))
        CFI VB load(1, XDATA, add(CFA_XSP16, literal(-11)))
        CFI V0 load(1, XDATA, add(CFA_XSP16, literal(-10)))
        CFI V1 load(1, XDATA, add(CFA_XSP16, literal(-9)))
        CFI V2 load(1, XDATA, add(CFA_XSP16, literal(-8)))
        CFI V3 load(1, XDATA, add(CFA_XSP16, literal(-7)))
        CFI R7 load(1, XDATA, add(CFA_XSP16, literal(-6)))
        CFI ?RET_LOW load(1, XDATA, add(CFA_XSP16, literal(-5)))
        CFI ?RET_HIGH load(1, XDATA, add(CFA_XSP16, literal(-4)))
        CFI ?BRET_EXT load(1, XDATA, add(CFA_XSP16, literal(-3)))
        CFI DPL0 load(1, XDATA, add(CFA_XSP16, literal(-2)))
        CFI DPH0 load(1, XDATA, add(CFA_XSP16, literal(-1)))
        CFI CFA_SP SP+0
        CFI CFA_XSP16 add(XSP16, 21)
        CFI Block cfiCond60 Using cfiCommon0
        CFI (cfiCond60) NoFunction
        CFI (cfiCond60) Conditional ??CrossCallReturnLabel_23
        CFI (cfiCond60) R6 load(1, XDATA, add(CFA_XSP16, literal(-11)))
        CFI (cfiCond60) VB load(1, XDATA, add(CFA_XSP16, literal(-10)))
        CFI (cfiCond60) V0 load(1, XDATA, add(CFA_XSP16, literal(-9)))
        CFI (cfiCond60) V1 load(1, XDATA, add(CFA_XSP16, literal(-8)))
        CFI (cfiCond60) V2 load(1, XDATA, add(CFA_XSP16, literal(-7)))
        CFI (cfiCond60) R7 load(1, XDATA, add(CFA_XSP16, literal(-6)))
        CFI (cfiCond60) ?RET_LOW load(1, XDATA, add(CFA_XSP16, literal(-5)))
        CFI (cfiCond60) ?RET_HIGH load(1, XDATA, add(CFA_XSP16, literal(-4)))
        CFI (cfiCond60) ?BRET_EXT load(1, XDATA, add(CFA_XSP16, literal(-3)))
        CFI (cfiCond60) DPL0 load(1, XDATA, add(CFA_XSP16, literal(-2)))
        CFI (cfiCond60) DPH0 load(1, XDATA, add(CFA_XSP16, literal(-1)))
        CFI (cfiCond60) CFA_SP SP+0
        CFI (cfiCond60) CFA_XSP16 add(XSP16, 11)
        CFI Block cfiCond61 Using cfiCommon0
        CFI (cfiCond61) NoFunction
        CFI (cfiCond61) Conditional ??CrossCallReturnLabel_24
        CFI (cfiCond61) R6 load(1, XDATA, add(CFA_XSP16, literal(-11)))
        CFI (cfiCond61) VB load(1, XDATA, add(CFA_XSP16, literal(-10)))
        CFI (cfiCond61) V0 load(1, XDATA, add(CFA_XSP16, literal(-9)))
        CFI (cfiCond61) V1 load(1, XDATA, add(CFA_XSP16, literal(-8)))
        CFI (cfiCond61) V2 load(1, XDATA, add(CFA_XSP16, literal(-7)))
        CFI (cfiCond61) R7 load(1, XDATA, add(CFA_XSP16, literal(-6)))
        CFI (cfiCond61) ?RET_LOW load(1, XDATA, add(CFA_XSP16, literal(-5)))
        CFI (cfiCond61) ?RET_HIGH load(1, XDATA, add(CFA_XSP16, literal(-4)))
        CFI (cfiCond61) ?BRET_EXT load(1, XDATA, add(CFA_XSP16, literal(-3)))
        CFI (cfiCond61) DPL0 load(1, XDATA, add(CFA_XSP16, literal(-2)))
        CFI (cfiCond61) DPH0 load(1, XDATA, add(CFA_XSP16, literal(-1)))
        CFI (cfiCond61) CFA_SP SP+0
        CFI (cfiCond61) CFA_XSP16 add(XSP16, 11)
        CFI Block cfiPicker62 Using cfiCommon1
        CFI (cfiPicker62) NoFunction
        CFI (cfiPicker62) Picker
        LCALL   ?Subroutine33 & 0xFFFF
??CrossCallReturnLabel_56:
        ; Setup parameters for call to function incode_xtocs
        ; Setup parameters for call to function incode_xtocs
        ; Setup parameters for call to function incode_xtocs
        MOV     ?V0 + 0,#0x1
        MOV     ?V0 + 1,#0x0
        MOV     R0,#?V0 + 0
        RET
        CFI EndBlock cfiCond59
        CFI EndBlock cfiCond60
        CFI EndBlock cfiCond61
        CFI EndBlock cfiPicker62

        RSEG BANKED_CODE:CODE:NOROOT(0)
?Subroutine33:
        CFI Block cfiCond63 Using cfiCommon0
        CFI NoFunction
        CFI Conditional ??CrossCallReturnLabel_55
        CFI R6 load(1, XDATA, add(CFA_XSP16, literal(-11)))
        CFI VB load(1, XDATA, add(CFA_XSP16, literal(-10)))
        CFI V0 load(1, XDATA, add(CFA_XSP16, literal(-9)))
        CFI V1 load(1, XDATA, add(CFA_XSP16, literal(-8)))
        CFI V2 load(1, XDATA, add(CFA_XSP16, literal(-7)))
        CFI R7 load(1, XDATA, add(CFA_XSP16, literal(-6)))
        CFI ?RET_LOW load(1, XDATA, add(CFA_XSP16, literal(-5)))
        CFI ?RET_HIGH load(1, XDATA, add(CFA_XSP16, literal(-4)))
        CFI ?BRET_EXT load(1, XDATA, add(CFA_XSP16, literal(-3)))
        CFI DPL0 load(1, XDATA, add(CFA_XSP16, literal(-2)))
        CFI DPH0 load(1, XDATA, add(CFA_XSP16, literal(-1)))
        CFI CFA_SP SP+0
        CFI CFA_XSP16 add(XSP16, 14)
        CFI Block cfiCond64 Using cfiCommon0
        CFI (cfiCond64) NoFunction
        CFI (cfiCond64) Conditional ??CrossCallReturnLabel_56, ??CrossCallReturnLabel_22
        CFI (cfiCond64) R6 load(1, XDATA, add(CFA_XSP16, literal(-12)))
        CFI (cfiCond64) VB load(1, XDATA, add(CFA_XSP16, literal(-11)))
        CFI (cfiCond64) V0 load(1, XDATA, add(CFA_XSP16, literal(-10)))
        CFI (cfiCond64) V1 load(1, XDATA, add(CFA_XSP16, literal(-9)))
        CFI (cfiCond64) V2 load(1, XDATA, add(CFA_XSP16, literal(-8)))
        CFI (cfiCond64) V3 load(1, XDATA, add(CFA_XSP16, literal(-7)))
        CFI (cfiCond64) R7 load(1, XDATA, add(CFA_XSP16, literal(-6)))
        CFI (cfiCond64) ?RET_LOW load(1, XDATA, add(CFA_XSP16, literal(-5)))
        CFI (cfiCond64) ?RET_HIGH load(1, XDATA, add(CFA_XSP16, literal(-4)))
        CFI (cfiCond64) ?BRET_EXT load(1, XDATA, add(CFA_XSP16, literal(-3)))
        CFI (cfiCond64) DPL0 load(1, XDATA, add(CFA_XSP16, literal(-2)))
        CFI (cfiCond64) DPH0 load(1, XDATA, add(CFA_XSP16, literal(-1)))
        CFI (cfiCond64) CFA_SP SP+0
        CFI (cfiCond64) CFA_XSP16 add(XSP16, 21)
        CFI Block cfiCond65 Using cfiCommon0
        CFI (cfiCond65) NoFunction
        CFI (cfiCond65) Conditional ??CrossCallReturnLabel_56, ??CrossCallReturnLabel_23
        CFI (cfiCond65) R6 load(1, XDATA, add(CFA_XSP16, literal(-11)))
        CFI (cfiCond65) VB load(1, XDATA, add(CFA_XSP16, literal(-10)))
        CFI (cfiCond65) V0 load(1, XDATA, add(CFA_XSP16, literal(-9)))
        CFI (cfiCond65) V1 load(1, XDATA, add(CFA_XSP16, literal(-8)))
        CFI (cfiCond65) V2 load(1, XDATA, add(CFA_XSP16, literal(-7)))
        CFI (cfiCond65) R7 load(1, XDATA, add(CFA_XSP16, literal(-6)))
        CFI (cfiCond65) ?RET_LOW load(1, XDATA, add(CFA_XSP16, literal(-5)))
        CFI (cfiCond65) ?RET_HIGH load(1, XDATA, add(CFA_XSP16, literal(-4)))
        CFI (cfiCond65) ?BRET_EXT load(1, XDATA, add(CFA_XSP16, literal(-3)))
        CFI (cfiCond65) DPL0 load(1, XDATA, add(CFA_XSP16, literal(-2)))
        CFI (cfiCond65) DPH0 load(1, XDATA, add(CFA_XSP16, literal(-1)))
        CFI (cfiCond65) CFA_SP SP+0
        CFI (cfiCond65) CFA_XSP16 add(XSP16, 11)
        CFI Block cfiCond66 Using cfiCommon0
        CFI (cfiCond66) NoFunction
        CFI (cfiCond66) Conditional ??CrossCallReturnLabel_56, ??CrossCallReturnLabel_24
        CFI (cfiCond66) R6 load(1, XDATA, add(CFA_XSP16, literal(-11)))
        CFI (cfiCond66) VB load(1, XDATA, add(CFA_XSP16, literal(-10)))
        CFI (cfiCond66) V0 load(1, XDATA, add(CFA_XSP16, literal(-9)))
        CFI (cfiCond66) V1 load(1, XDATA, add(CFA_XSP16, literal(-8)))
        CFI (cfiCond66) V2 load(1, XDATA, add(CFA_XSP16, literal(-7)))
        CFI (cfiCond66) R7 load(1, XDATA, add(CFA_XSP16, literal(-6)))
        CFI (cfiCond66) ?RET_LOW load(1, XDATA, add(CFA_XSP16, literal(-5)))
        CFI (cfiCond66) ?RET_HIGH load(1, XDATA, add(CFA_XSP16, literal(-4)))
        CFI (cfiCond66) ?BRET_EXT load(1, XDATA, add(CFA_XSP16, literal(-3)))
        CFI (cfiCond66) DPL0 load(1, XDATA, add(CFA_XSP16, literal(-2)))
        CFI (cfiCond66) DPH0 load(1, XDATA, add(CFA_XSP16, literal(-1)))
        CFI (cfiCond66) CFA_SP SP+0
        CFI (cfiCond66) CFA_XSP16 add(XSP16, 11)
        CFI Block cfiPicker67 Using cfiCommon1
        CFI (cfiPicker67) NoFunction
        CFI (cfiPicker67) Picker
        LCALL   ?Subroutine35 & 0xFFFF
??CrossCallReturnLabel_60:
        INC     DPTR
        INC     DPTR
        MOV     A,#0x53
        MOVX    @DPTR,A
        RET
        CFI EndBlock cfiCond63
        CFI EndBlock cfiCond64
        CFI EndBlock cfiCond65
        CFI EndBlock cfiCond66
        CFI EndBlock cfiPicker67

        RSEG BANKED_CODE:CODE:NOROOT(0)
?Subroutine35:
        CFI Block cfiCond68 Using cfiCommon0
        CFI NoFunction
        CFI Conditional ??CrossCallReturnLabel_59, ??CrossCallReturnLabel_25
        CFI R6 load(1, XDATA, add(CFA_XSP16, literal(-15)))
        CFI VB load(1, XDATA, add(CFA_XSP16, literal(-14)))
        CFI V0 load(1, XDATA, add(CFA_XSP16, literal(-13)))
        CFI V1 load(1, XDATA, add(CFA_XSP16, literal(-12)))
        CFI V2 load(1, XDATA, add(CFA_XSP16, literal(-11)))
        CFI V3 load(1, XDATA, add(CFA_XSP16, literal(-10)))
        CFI V4 load(1, XDATA, add(CFA_XSP16, literal(-9)))
        CFI V5 load(1, XDATA, add(CFA_XSP16, literal(-8)))
        CFI V6 load(1, XDATA, add(CFA_XSP16, literal(-7)))
        CFI R7 load(1, XDATA, add(CFA_XSP16, literal(-6)))
        CFI ?RET_LOW load(1, XDATA, add(CFA_XSP16, literal(-5)))
        CFI ?RET_HIGH load(1, XDATA, add(CFA_XSP16, literal(-4)))
        CFI ?BRET_EXT load(1, XDATA, add(CFA_XSP16, literal(-3)))
        CFI DPL0 load(1, XDATA, add(CFA_XSP16, literal(-2)))
        CFI DPH0 load(1, XDATA, add(CFA_XSP16, literal(-1)))
        CFI CFA_SP SP+0
        CFI CFA_XSP16 add(XSP16, 19)
        CFI Block cfiCond69 Using cfiCommon0
        CFI (cfiCond69) NoFunction
        CFI (cfiCond69) Conditional ??CrossCallReturnLabel_59, ??CrossCallReturnLabel_26
        CFI (cfiCond69) R6 load(1, XDATA, add(CFA_XSP16, literal(-15)))
        CFI (cfiCond69) VB load(1, XDATA, add(CFA_XSP16, literal(-14)))
        CFI (cfiCond69) V0 load(1, XDATA, add(CFA_XSP16, literal(-13)))
        CFI (cfiCond69) V1 load(1, XDATA, add(CFA_XSP16, literal(-12)))
        CFI (cfiCond69) V2 load(1, XDATA, add(CFA_XSP16, literal(-11)))
        CFI (cfiCond69) V3 load(1, XDATA, add(CFA_XSP16, literal(-10)))
        CFI (cfiCond69) V4 load(1, XDATA, add(CFA_XSP16, literal(-9)))
        CFI (cfiCond69) V5 load(1, XDATA, add(CFA_XSP16, literal(-8)))
        CFI (cfiCond69) V6 load(1, XDATA, add(CFA_XSP16, literal(-7)))
        CFI (cfiCond69) R7 load(1, XDATA, add(CFA_XSP16, literal(-6)))
        CFI (cfiCond69) ?RET_LOW load(1, XDATA, add(CFA_XSP16, literal(-5)))
        CFI (cfiCond69) ?RET_HIGH load(1, XDATA, add(CFA_XSP16, literal(-4)))
        CFI (cfiCond69) ?BRET_EXT load(1, XDATA, add(CFA_XSP16, literal(-3)))
        CFI (cfiCond69) DPL0 load(1, XDATA, add(CFA_XSP16, literal(-2)))
        CFI (cfiCond69) DPH0 load(1, XDATA, add(CFA_XSP16, literal(-1)))
        CFI (cfiCond69) CFA_SP SP+0
        CFI (cfiCond69) CFA_XSP16 add(XSP16, 19)
        CFI Block cfiCond70 Using cfiCommon0
        CFI (cfiCond70) NoFunction
        CFI (cfiCond70) Conditional ??CrossCallReturnLabel_59, ??CrossCallReturnLabel_27
        CFI (cfiCond70) R6 load(1, XDATA, add(CFA_XSP16, literal(-15)))
        CFI (cfiCond70) VB load(1, XDATA, add(CFA_XSP16, literal(-14)))
        CFI (cfiCond70) V0 load(1, XDATA, add(CFA_XSP16, literal(-13)))
        CFI (cfiCond70) V1 load(1, XDATA, add(CFA_XSP16, literal(-12)))
        CFI (cfiCond70) V2 load(1, XDATA, add(CFA_XSP16, literal(-11)))
        CFI (cfiCond70) V3 load(1, XDATA, add(CFA_XSP16, literal(-10)))
        CFI (cfiCond70) V4 load(1, XDATA, add(CFA_XSP16, literal(-9)))
        CFI (cfiCond70) V5 load(1, XDATA, add(CFA_XSP16, literal(-8)))
        CFI (cfiCond70) V6 load(1, XDATA, add(CFA_XSP16, literal(-7)))
        CFI (cfiCond70) R7 load(1, XDATA, add(CFA_XSP16, literal(-6)))
        CFI (cfiCond70) ?RET_LOW load(1, XDATA, add(CFA_XSP16, literal(-5)))
        CFI (cfiCond70) ?RET_HIGH load(1, XDATA, add(CFA_XSP16, literal(-4)))
        CFI (cfiCond70) ?BRET_EXT load(1, XDATA, add(CFA_XSP16, literal(-3)))
        CFI (cfiCond70) DPL0 load(1, XDATA, add(CFA_XSP16, literal(-2)))
        CFI (cfiCond70) DPH0 load(1, XDATA, add(CFA_XSP16, literal(-1)))
        CFI (cfiCond70) CFA_SP SP+0
        CFI (cfiCond70) CFA_XSP16 add(XSP16, 19)
        CFI Block cfiCond71 Using cfiCommon0
        CFI (cfiCond71) NoFunction
        CFI (cfiCond71) Conditional ??CrossCallReturnLabel_60, ??CrossCallReturnLabel_55
        CFI (cfiCond71) R6 load(1, XDATA, add(CFA_XSP16, literal(-11)))
        CFI (cfiCond71) VB load(1, XDATA, add(CFA_XSP16, literal(-10)))
        CFI (cfiCond71) V0 load(1, XDATA, add(CFA_XSP16, literal(-9)))
        CFI (cfiCond71) V1 load(1, XDATA, add(CFA_XSP16, literal(-8)))
        CFI (cfiCond71) V2 load(1, XDATA, add(CFA_XSP16, literal(-7)))
        CFI (cfiCond71) R7 load(1, XDATA, add(CFA_XSP16, literal(-6)))
        CFI (cfiCond71) ?RET_LOW load(1, XDATA, add(CFA_XSP16, literal(-5)))
        CFI (cfiCond71) ?RET_HIGH load(1, XDATA, add(CFA_XSP16, literal(-4)))
        CFI (cfiCond71) ?BRET_EXT load(1, XDATA, add(CFA_XSP16, literal(-3)))
        CFI (cfiCond71) DPL0 load(1, XDATA, add(CFA_XSP16, literal(-2)))
        CFI (cfiCond71) DPH0 load(1, XDATA, add(CFA_XSP16, literal(-1)))
        CFI (cfiCond71) CFA_SP SP+0
        CFI (cfiCond71) CFA_XSP16 add(XSP16, 14)
        CFI Block cfiCond72 Using cfiCommon0
        CFI (cfiCond72) NoFunction
        CFI (cfiCond72) Conditional ??CrossCallReturnLabel_60, ??CrossCallReturnLabel_56, ??CrossCallReturnLabel_22
        CFI (cfiCond72) R6 load(1, XDATA, add(CFA_XSP16, literal(-12)))
        CFI (cfiCond72) VB load(1, XDATA, add(CFA_XSP16, literal(-11)))
        CFI (cfiCond72) V0 load(1, XDATA, add(CFA_XSP16, literal(-10)))
        CFI (cfiCond72) V1 load(1, XDATA, add(CFA_XSP16, literal(-9)))
        CFI (cfiCond72) V2 load(1, XDATA, add(CFA_XSP16, literal(-8)))
        CFI (cfiCond72) V3 load(1, XDATA, add(CFA_XSP16, literal(-7)))
        CFI (cfiCond72) R7 load(1, XDATA, add(CFA_XSP16, literal(-6)))
        CFI (cfiCond72) ?RET_LOW load(1, XDATA, add(CFA_XSP16, literal(-5)))
        CFI (cfiCond72) ?RET_HIGH load(1, XDATA, add(CFA_XSP16, literal(-4)))
        CFI (cfiCond72) ?BRET_EXT load(1, XDATA, add(CFA_XSP16, literal(-3)))
        CFI (cfiCond72) DPL0 load(1, XDATA, add(CFA_XSP16, literal(-2)))
        CFI (cfiCond72) DPH0 load(1, XDATA, add(CFA_XSP16, literal(-1)))
        CFI (cfiCond72) CFA_SP SP+0
        CFI (cfiCond72) CFA_XSP16 add(XSP16, 21)
        CFI Block cfiCond73 Using cfiCommon0
        CFI (cfiCond73) NoFunction
        CFI (cfiCond73) Conditional ??CrossCallReturnLabel_60, ??CrossCallReturnLabel_56, ??CrossCallReturnLabel_23
        CFI (cfiCond73) R6 load(1, XDATA, add(CFA_XSP16, literal(-11)))
        CFI (cfiCond73) VB load(1, XDATA, add(CFA_XSP16, literal(-10)))
        CFI (cfiCond73) V0 load(1, XDATA, add(CFA_XSP16, literal(-9)))
        CFI (cfiCond73) V1 load(1, XDATA, add(CFA_XSP16, literal(-8)))
        CFI (cfiCond73) V2 load(1, XDATA, add(CFA_XSP16, literal(-7)))
        CFI (cfiCond73) R7 load(1, XDATA, add(CFA_XSP16, literal(-6)))
        CFI (cfiCond73) ?RET_LOW load(1, XDATA, add(CFA_XSP16, literal(-5)))
        CFI (cfiCond73) ?RET_HIGH load(1, XDATA, add(CFA_XSP16, literal(-4)))
        CFI (cfiCond73) ?BRET_EXT load(1, XDATA, add(CFA_XSP16, literal(-3)))
        CFI (cfiCond73) DPL0 load(1, XDATA, add(CFA_XSP16, literal(-2)))
        CFI (cfiCond73) DPH0 load(1, XDATA, add(CFA_XSP16, literal(-1)))
        CFI (cfiCond73) CFA_SP SP+0
        CFI (cfiCond73) CFA_XSP16 add(XSP16, 11)
        CFI Block cfiCond74 Using cfiCommon0
        CFI (cfiCond74) NoFunction
        CFI (cfiCond74) Conditional ??CrossCallReturnLabel_60, ??CrossCallReturnLabel_56, ??CrossCallReturnLabel_24
        CFI (cfiCond74) R6 load(1, XDATA, add(CFA_XSP16, literal(-11)))
        CFI (cfiCond74) VB load(1, XDATA, add(CFA_XSP16, literal(-10)))
        CFI (cfiCond74) V0 load(1, XDATA, add(CFA_XSP16, literal(-9)))
        CFI (cfiCond74) V1 load(1, XDATA, add(CFA_XSP16, literal(-8)))
        CFI (cfiCond74) V2 load(1, XDATA, add(CFA_XSP16, literal(-7)))
        CFI (cfiCond74) R7 load(1, XDATA, add(CFA_XSP16, literal(-6)))
        CFI (cfiCond74) ?RET_LOW load(1, XDATA, add(CFA_XSP16, literal(-5)))
        CFI (cfiCond74) ?RET_HIGH load(1, XDATA, add(CFA_XSP16, literal(-4)))
        CFI (cfiCond74) ?BRET_EXT load(1, XDATA, add(CFA_XSP16, literal(-3)))
        CFI (cfiCond74) DPL0 load(1, XDATA, add(CFA_XSP16, literal(-2)))
        CFI (cfiCond74) DPH0 load(1, XDATA, add(CFA_XSP16, literal(-1)))
        CFI (cfiCond74) CFA_SP SP+0
        CFI (cfiCond74) CFA_XSP16 add(XSP16, 11)
        CFI Block cfiPicker75 Using cfiCommon1
        CFI (cfiPicker75) NoFunction
        CFI (cfiPicker75) Picker
        MOV     DPTR,#optData
        MOVX    A,@DPTR
        MOV     R0,A
        INC     DPTR
        MOVX    A,@DPTR
        MOV     DPH,A
        MOV     DPL,R0
        RET
        CFI EndBlock cfiCond68
        CFI EndBlock cfiCond69
        CFI EndBlock cfiCond70
        CFI EndBlock cfiCond71
        CFI EndBlock cfiCond72
        CFI EndBlock cfiCond73
        CFI EndBlock cfiCond74
        CFI EndBlock cfiPicker75
//  415 
//  416 uint16 getAD(void)
//  417 {
//  418   uint16 value;
//  419   ADCCON3 = 0xB1;
//  420   
//  421   while(!(ADCCON1 & 0x80));
//  422   value = ADCL>>4;
//  423   value |= (((uint16)ADCH)<<4);
//  424   
//  425   return value;
//  426 }
//  427 
//  428 void airdetect_init(void)
//  429 {
//  430 	HAL_INIT_AIRDETECT();
//  431 	
//  432 	update_user_event(CommonApp_TaskID, 
//  433   					DEMOBASE_AIRETECT_EVT, 
//  434   					DemoBaseAirDetect_StatusCB, 
//  435   					2000, 
//  436   					TIMER_LOOP_EXECUTION|TIMER_EVENT_RESIDENTS, 
//  437   					NULL);
//  438 }
//  439 

        RSEG BANKED_CODE:CODE:NOROOT(0)
//  440 void DemoBaseAirDetect_StatusCB( void *params, uint16 *duration, uint8 *count)
DemoBaseAirDetect_StatusCB:
        CFI Block cfiBlock76 Using cfiCommon0
        CFI Function DemoBaseAirDetect_StatusCB
        CODE
//  441 {
        FUNCALL DemoBaseAirDetect_StatusCB, osal_mem_free
        LOCFRAME ISTACK, 0, STACK
        LOCFRAME PSTACK, 0, STACK
        LOCFRAME XSTACK, 11, STACK
        LOCFRAME IOVERLAY, 0, STATIC
        LOCFRAME DOVERLAY, 0, STATIC
        ARGFRAME ISTACK, 0, STACK
        ARGFRAME PSTACK, 0, STACK
        ARGFRAME XSTACK, 11, STACK
        ARGFRAME IOVERLAY, 0, STATIC
        ARGFRAME DOVERLAY, 0, STATIC
        FUNCALL DemoBaseAirDetect_StatusCB, osal_mem_alloc
        LOCFRAME ISTACK, 0, STACK
        LOCFRAME PSTACK, 0, STACK
        LOCFRAME XSTACK, 11, STACK
        LOCFRAME IOVERLAY, 0, STATIC
        LOCFRAME DOVERLAY, 0, STATIC
        ARGFRAME ISTACK, 0, STACK
        ARGFRAME PSTACK, 0, STACK
        ARGFRAME XSTACK, 11, STACK
        ARGFRAME IOVERLAY, 0, STATIC
        ARGFRAME DOVERLAY, 0, STATIC
        FUNCALL DemoBaseAirDetect_StatusCB, osal_memcpy
        LOCFRAME ISTACK, 0, STACK
        LOCFRAME PSTACK, 0, STACK
        LOCFRAME XSTACK, 14, STACK
        LOCFRAME IOVERLAY, 0, STATIC
        LOCFRAME DOVERLAY, 0, STATIC
        ARGFRAME ISTACK, 0, STACK
        ARGFRAME PSTACK, 0, STACK
        ARGFRAME XSTACK, 14, STACK
        ARGFRAME IOVERLAY, 0, STATIC
        ARGFRAME DOVERLAY, 0, STATIC
        FUNCALL DemoBaseAirDetect_StatusCB, incode_xtocs
        LOCFRAME ISTACK, 0, STACK
        LOCFRAME PSTACK, 0, STACK
        LOCFRAME XSTACK, 13, STACK
        LOCFRAME IOVERLAY, 0, STATIC
        LOCFRAME DOVERLAY, 0, STATIC
        ARGFRAME ISTACK, 0, STACK
        ARGFRAME PSTACK, 0, STACK
        ARGFRAME XSTACK, 13, STACK
        ARGFRAME IOVERLAY, 0, STATIC
        ARGFRAME DOVERLAY, 0, STATIC
        FUNCALL DemoBaseAirDetect_StatusCB, Update_Refresh
        LOCFRAME ISTACK, 0, STACK
        LOCFRAME PSTACK, 0, STACK
        LOCFRAME XSTACK, 11, STACK
        LOCFRAME IOVERLAY, 0, STATIC
        LOCFRAME DOVERLAY, 0, STATIC
        ARGFRAME ISTACK, 0, STACK
        ARGFRAME PSTACK, 0, STACK
        ARGFRAME XSTACK, 11, STACK
        ARGFRAME IOVERLAY, 0, STATIC
        ARGFRAME DOVERLAY, 0, STATIC
        MOV     A,#-0xb
        LCALL   ?BANKED_ENTER_XDATA
        CFI DPH0 load(1, XDATA, add(CFA_XSP16, literal(-1)))
        CFI DPL0 load(1, XDATA, add(CFA_XSP16, literal(-2)))
        CFI ?BRET_EXT load(1, XDATA, add(CFA_XSP16, literal(-3)))
        CFI ?RET_HIGH load(1, XDATA, add(CFA_XSP16, literal(-4)))
        CFI ?RET_LOW load(1, XDATA, add(CFA_XSP16, literal(-5)))
        CFI R7 load(1, XDATA, add(CFA_XSP16, literal(-6)))
        CFI V2 load(1, XDATA, add(CFA_XSP16, literal(-7)))
        CFI V1 load(1, XDATA, add(CFA_XSP16, literal(-8)))
        CFI V0 load(1, XDATA, add(CFA_XSP16, literal(-9)))
        CFI VB load(1, XDATA, add(CFA_XSP16, literal(-10)))
        CFI R6 load(1, XDATA, add(CFA_XSP16, literal(-11)))
        CFI CFA_SP SP+0
        CFI CFA_XSP16 add(XSP16, 11)
        ; Saved register size: 11
        ; Auto size: 0
//  442 	uint8 currentStates = HAL_STATE_AIRDETECT();
        SETB    B.0
        MOV     C,0x90.2
        JNB     B.0,??DemoBaseAirDetect_StatusCB_0
        CPL     C
??DemoBaseAirDetect_StatusCB_0:
        CLR     A
        RLC     A
        MOV     R0,A
//  443 	
//  444 	if( airStates != currentStates )
        MOV     DPTR,#airStates
        MOVX    A,@DPTR
        XRL     A,R0
        JZ      ??CrossCallReturnLabel_74
//  445 	{
//  446 		airStates = currentStates;
        LCALL   ?Subroutine26 & 0xFFFF
//  447 		
//  448 		if(queryStates)
??CrossCallReturnLabel_70:
        JZ      ??CrossCallReturnLabel_74
//  449 		{
//  450 			if(optData != NULL && optDataLen < AIRDETECT_DATA_SIZE)
        LCALL   ??Subroutine46_0 & 0xFFFF
??CrossCallReturnLabel_112:
        JZ      ??CrossCallReturnLabel_9
        MOV     DPTR,#optDataLen
        MOVX    A,@DPTR
        SUBB    A,#0x5
        JNC     ??CrossCallReturnLabel_35
//  451 			{
//  452 				osal_mem_free(optData);
        ; Setup parameters for call to function osal_mem_free
        LCALL   ?Subroutine6 & 0xFFFF
//  453 				optData = NULL;
//  454 				optDataLen = 0;
//  455 			}
//  456 
//  457 			if(optData == NULL)
//  458 			{
//  459 				optData = osal_mem_alloc(AIRDETECT_DATA_SIZE);
??CrossCallReturnLabel_9:
        ; Setup parameters for call to function osal_mem_alloc
        LCALL   ?Subroutine21 & 0xFFFF
//  460 				optDataLen = AIRDETECT_DATA_SIZE;
//  461 			}
//  462 
//  463 			osal_memcpy(optData, DEMOBASE_DEVICE_AIRDETECT, 2);
??CrossCallReturnLabel_35:
        ; Setup parameters for call to function osal_memcpy
        MOV     ?V0 + 0,#`?<Constant "06">` & 0xff
        MOV     ?V0 + 1,#(`?<Constant "06">` >> 8) & 0xff
        MOV     ?V0 + 2,#0x0
        MOV     R0,#?V0 + 0
        LCALL   ?PUSH_XSTACK_I_THREE
        CFI CFA_XSP16 add(XSP16, 14)
        LCALL   ?Subroutine7 & 0xFFFF
??CrossCallReturnLabel_82:
        LCALL   ?DEALLOC_XSTACK8
        CFI CFA_XSP16 add(XSP16, 11)
//  464 			optData[2] = 'S';
        LCALL   ?Subroutine13 & 0xFFFF
//  465 			incode_xtocs(optData+3, &airStates, 1);
??CrossCallReturnLabel_24:
        LCALL   ?PUSH_XSTACK_I_TWO
        CFI CFA_XSP16 add(XSP16, 13)
        MOV     R4,#airStates & 0xff
        MOV     R5,#(airStates >> 8) & 0xff
        LCALL   ??Subroutine51_0 & 0xFFFF
??CrossCallReturnLabel_133:
        LCALL   ?DEALLOC_XSTACK8
        CFI CFA_XSP16 add(XSP16, 11)
//  466 			
//  467 			Update_Refresh(optData, AIRDETECT_DATA_SIZE);
        ; Setup parameters for call to function Update_Refresh
        LCALL   ?Subroutine16 & 0xFFFF
//  468 		}
//  469 	}
//  470 }
??CrossCallReturnLabel_74:
        LJMP    ?Subroutine2 & 0xFFFF
        CFI EndBlock cfiBlock76
        REQUIRE _A_P1

        RSEG BANKED_CODE:CODE:NOROOT(0)
?Subroutine7:
        CFI Block cfiCond77 Using cfiCommon0
        CFI NoFunction
        CFI Conditional ??CrossCallReturnLabel_77
        CFI R6 load(1, XDATA, add(CFA_XSP16, literal(-15)))
        CFI VB load(1, XDATA, add(CFA_XSP16, literal(-14)))
        CFI V0 load(1, XDATA, add(CFA_XSP16, literal(-13)))
        CFI V1 load(1, XDATA, add(CFA_XSP16, literal(-12)))
        CFI V2 load(1, XDATA, add(CFA_XSP16, literal(-11)))
        CFI V3 load(1, XDATA, add(CFA_XSP16, literal(-10)))
        CFI V4 load(1, XDATA, add(CFA_XSP16, literal(-9)))
        CFI V5 load(1, XDATA, add(CFA_XSP16, literal(-8)))
        CFI V6 load(1, XDATA, add(CFA_XSP16, literal(-7)))
        CFI R7 load(1, XDATA, add(CFA_XSP16, literal(-6)))
        CFI ?RET_LOW load(1, XDATA, add(CFA_XSP16, literal(-5)))
        CFI ?RET_HIGH load(1, XDATA, add(CFA_XSP16, literal(-4)))
        CFI ?BRET_EXT load(1, XDATA, add(CFA_XSP16, literal(-3)))
        CFI DPL0 load(1, XDATA, add(CFA_XSP16, literal(-2)))
        CFI DPH0 load(1, XDATA, add(CFA_XSP16, literal(-1)))
        CFI CFA_SP SP+0
        CFI CFA_XSP16 add(XSP16, 19)
        CFI Block cfiCond78 Using cfiCommon0
        CFI (cfiCond78) NoFunction
        CFI (cfiCond78) Conditional ??CrossCallReturnLabel_78
        CFI (cfiCond78) R6 load(1, XDATA, add(CFA_XSP16, literal(-15)))
        CFI (cfiCond78) VB load(1, XDATA, add(CFA_XSP16, literal(-14)))
        CFI (cfiCond78) V0 load(1, XDATA, add(CFA_XSP16, literal(-13)))
        CFI (cfiCond78) V1 load(1, XDATA, add(CFA_XSP16, literal(-12)))
        CFI (cfiCond78) V2 load(1, XDATA, add(CFA_XSP16, literal(-11)))
        CFI (cfiCond78) V3 load(1, XDATA, add(CFA_XSP16, literal(-10)))
        CFI (cfiCond78) V4 load(1, XDATA, add(CFA_XSP16, literal(-9)))
        CFI (cfiCond78) V5 load(1, XDATA, add(CFA_XSP16, literal(-8)))
        CFI (cfiCond78) V6 load(1, XDATA, add(CFA_XSP16, literal(-7)))
        CFI (cfiCond78) R7 load(1, XDATA, add(CFA_XSP16, literal(-6)))
        CFI (cfiCond78) ?RET_LOW load(1, XDATA, add(CFA_XSP16, literal(-5)))
        CFI (cfiCond78) ?RET_HIGH load(1, XDATA, add(CFA_XSP16, literal(-4)))
        CFI (cfiCond78) ?BRET_EXT load(1, XDATA, add(CFA_XSP16, literal(-3)))
        CFI (cfiCond78) DPL0 load(1, XDATA, add(CFA_XSP16, literal(-2)))
        CFI (cfiCond78) DPH0 load(1, XDATA, add(CFA_XSP16, literal(-1)))
        CFI (cfiCond78) CFA_SP SP+0
        CFI (cfiCond78) CFA_XSP16 add(XSP16, 19)
        CFI Block cfiCond79 Using cfiCommon0
        CFI (cfiCond79) NoFunction
        CFI (cfiCond79) Conditional ??CrossCallReturnLabel_79
        CFI (cfiCond79) R6 load(1, XDATA, add(CFA_XSP16, literal(-11)))
        CFI (cfiCond79) VB load(1, XDATA, add(CFA_XSP16, literal(-10)))
        CFI (cfiCond79) V0 load(1, XDATA, add(CFA_XSP16, literal(-9)))
        CFI (cfiCond79) V1 load(1, XDATA, add(CFA_XSP16, literal(-8)))
        CFI (cfiCond79) V2 load(1, XDATA, add(CFA_XSP16, literal(-7)))
        CFI (cfiCond79) R7 load(1, XDATA, add(CFA_XSP16, literal(-6)))
        CFI (cfiCond79) ?RET_LOW load(1, XDATA, add(CFA_XSP16, literal(-5)))
        CFI (cfiCond79) ?RET_HIGH load(1, XDATA, add(CFA_XSP16, literal(-4)))
        CFI (cfiCond79) ?BRET_EXT load(1, XDATA, add(CFA_XSP16, literal(-3)))
        CFI (cfiCond79) DPL0 load(1, XDATA, add(CFA_XSP16, literal(-2)))
        CFI (cfiCond79) DPH0 load(1, XDATA, add(CFA_XSP16, literal(-1)))
        CFI (cfiCond79) CFA_SP SP+0
        CFI (cfiCond79) CFA_XSP16 add(XSP16, 17)
        CFI Block cfiCond80 Using cfiCommon0
        CFI (cfiCond80) NoFunction
        CFI (cfiCond80) Conditional ??CrossCallReturnLabel_80
        CFI (cfiCond80) R6 load(1, XDATA, add(CFA_XSP16, literal(-12)))
        CFI (cfiCond80) VB load(1, XDATA, add(CFA_XSP16, literal(-11)))
        CFI (cfiCond80) V0 load(1, XDATA, add(CFA_XSP16, literal(-10)))
        CFI (cfiCond80) V1 load(1, XDATA, add(CFA_XSP16, literal(-9)))
        CFI (cfiCond80) V2 load(1, XDATA, add(CFA_XSP16, literal(-8)))
        CFI (cfiCond80) V3 load(1, XDATA, add(CFA_XSP16, literal(-7)))
        CFI (cfiCond80) R7 load(1, XDATA, add(CFA_XSP16, literal(-6)))
        CFI (cfiCond80) ?RET_LOW load(1, XDATA, add(CFA_XSP16, literal(-5)))
        CFI (cfiCond80) ?RET_HIGH load(1, XDATA, add(CFA_XSP16, literal(-4)))
        CFI (cfiCond80) ?BRET_EXT load(1, XDATA, add(CFA_XSP16, literal(-3)))
        CFI (cfiCond80) DPL0 load(1, XDATA, add(CFA_XSP16, literal(-2)))
        CFI (cfiCond80) DPH0 load(1, XDATA, add(CFA_XSP16, literal(-1)))
        CFI (cfiCond80) CFA_SP SP+0
        CFI (cfiCond80) CFA_XSP16 add(XSP16, 24)
        CFI Block cfiCond81 Using cfiCommon0
        CFI (cfiCond81) NoFunction
        CFI (cfiCond81) Conditional ??CrossCallReturnLabel_81
        CFI (cfiCond81) R6 load(1, XDATA, add(CFA_XSP16, literal(-11)))
        CFI (cfiCond81) VB load(1, XDATA, add(CFA_XSP16, literal(-10)))
        CFI (cfiCond81) V0 load(1, XDATA, add(CFA_XSP16, literal(-9)))
        CFI (cfiCond81) V1 load(1, XDATA, add(CFA_XSP16, literal(-8)))
        CFI (cfiCond81) V2 load(1, XDATA, add(CFA_XSP16, literal(-7)))
        CFI (cfiCond81) R7 load(1, XDATA, add(CFA_XSP16, literal(-6)))
        CFI (cfiCond81) ?RET_LOW load(1, XDATA, add(CFA_XSP16, literal(-5)))
        CFI (cfiCond81) ?RET_HIGH load(1, XDATA, add(CFA_XSP16, literal(-4)))
        CFI (cfiCond81) ?BRET_EXT load(1, XDATA, add(CFA_XSP16, literal(-3)))
        CFI (cfiCond81) DPL0 load(1, XDATA, add(CFA_XSP16, literal(-2)))
        CFI (cfiCond81) DPH0 load(1, XDATA, add(CFA_XSP16, literal(-1)))
        CFI (cfiCond81) CFA_SP SP+0
        CFI (cfiCond81) CFA_XSP16 add(XSP16, 14)
        CFI Block cfiCond82 Using cfiCommon0
        CFI (cfiCond82) NoFunction
        CFI (cfiCond82) Conditional ??CrossCallReturnLabel_82
        CFI (cfiCond82) R6 load(1, XDATA, add(CFA_XSP16, literal(-11)))
        CFI (cfiCond82) VB load(1, XDATA, add(CFA_XSP16, literal(-10)))
        CFI (cfiCond82) V0 load(1, XDATA, add(CFA_XSP16, literal(-9)))
        CFI (cfiCond82) V1 load(1, XDATA, add(CFA_XSP16, literal(-8)))
        CFI (cfiCond82) V2 load(1, XDATA, add(CFA_XSP16, literal(-7)))
        CFI (cfiCond82) R7 load(1, XDATA, add(CFA_XSP16, literal(-6)))
        CFI (cfiCond82) ?RET_LOW load(1, XDATA, add(CFA_XSP16, literal(-5)))
        CFI (cfiCond82) ?RET_HIGH load(1, XDATA, add(CFA_XSP16, literal(-4)))
        CFI (cfiCond82) ?BRET_EXT load(1, XDATA, add(CFA_XSP16, literal(-3)))
        CFI (cfiCond82) DPL0 load(1, XDATA, add(CFA_XSP16, literal(-2)))
        CFI (cfiCond82) DPH0 load(1, XDATA, add(CFA_XSP16, literal(-1)))
        CFI (cfiCond82) CFA_SP SP+0
        CFI (cfiCond82) CFA_XSP16 add(XSP16, 14)
        CFI Block cfiCond83 Using cfiCommon0
        CFI (cfiCond83) NoFunction
        CFI (cfiCond83) Conditional ??CrossCallReturnLabel_83
        CFI (cfiCond83) R6 load(1, XDATA, add(CFA_XSP16, literal(-15)))
        CFI (cfiCond83) VB load(1, XDATA, add(CFA_XSP16, literal(-14)))
        CFI (cfiCond83) V0 load(1, XDATA, add(CFA_XSP16, literal(-13)))
        CFI (cfiCond83) V1 load(1, XDATA, add(CFA_XSP16, literal(-12)))
        CFI (cfiCond83) V2 load(1, XDATA, add(CFA_XSP16, literal(-11)))
        CFI (cfiCond83) V3 load(1, XDATA, add(CFA_XSP16, literal(-10)))
        CFI (cfiCond83) V4 load(1, XDATA, add(CFA_XSP16, literal(-9)))
        CFI (cfiCond83) V5 load(1, XDATA, add(CFA_XSP16, literal(-8)))
        CFI (cfiCond83) V6 load(1, XDATA, add(CFA_XSP16, literal(-7)))
        CFI (cfiCond83) R7 load(1, XDATA, add(CFA_XSP16, literal(-6)))
        CFI (cfiCond83) ?RET_LOW load(1, XDATA, add(CFA_XSP16, literal(-5)))
        CFI (cfiCond83) ?RET_HIGH load(1, XDATA, add(CFA_XSP16, literal(-4)))
        CFI (cfiCond83) ?BRET_EXT load(1, XDATA, add(CFA_XSP16, literal(-3)))
        CFI (cfiCond83) DPL0 load(1, XDATA, add(CFA_XSP16, literal(-2)))
        CFI (cfiCond83) DPH0 load(1, XDATA, add(CFA_XSP16, literal(-1)))
        CFI (cfiCond83) CFA_SP SP+0
        CFI (cfiCond83) CFA_XSP16 add(XSP16, 18)
        CFI Block cfiCond84 Using cfiCommon0
        CFI (cfiCond84) NoFunction
        CFI (cfiCond84) Conditional ??CrossCallReturnLabel_84
        CFI (cfiCond84) R6 load(1, XDATA, add(CFA_XSP16, literal(-15)))
        CFI (cfiCond84) VB load(1, XDATA, add(CFA_XSP16, literal(-14)))
        CFI (cfiCond84) V0 load(1, XDATA, add(CFA_XSP16, literal(-13)))
        CFI (cfiCond84) V1 load(1, XDATA, add(CFA_XSP16, literal(-12)))
        CFI (cfiCond84) V2 load(1, XDATA, add(CFA_XSP16, literal(-11)))
        CFI (cfiCond84) V3 load(1, XDATA, add(CFA_XSP16, literal(-10)))
        CFI (cfiCond84) V4 load(1, XDATA, add(CFA_XSP16, literal(-9)))
        CFI (cfiCond84) V5 load(1, XDATA, add(CFA_XSP16, literal(-8)))
        CFI (cfiCond84) V6 load(1, XDATA, add(CFA_XSP16, literal(-7)))
        CFI (cfiCond84) R7 load(1, XDATA, add(CFA_XSP16, literal(-6)))
        CFI (cfiCond84) ?RET_LOW load(1, XDATA, add(CFA_XSP16, literal(-5)))
        CFI (cfiCond84) ?RET_HIGH load(1, XDATA, add(CFA_XSP16, literal(-4)))
        CFI (cfiCond84) ?BRET_EXT load(1, XDATA, add(CFA_XSP16, literal(-3)))
        CFI (cfiCond84) DPL0 load(1, XDATA, add(CFA_XSP16, literal(-2)))
        CFI (cfiCond84) DPH0 load(1, XDATA, add(CFA_XSP16, literal(-1)))
        CFI (cfiCond84) CFA_SP SP+0
        CFI (cfiCond84) CFA_XSP16 add(XSP16, 18)
        CFI Block cfiCond85 Using cfiCommon0
        CFI (cfiCond85) NoFunction
        CFI (cfiCond85) Conditional ??CrossCallReturnLabel_85
        CFI (cfiCond85) R6 load(1, XDATA, add(CFA_XSP16, literal(-15)))
        CFI (cfiCond85) VB load(1, XDATA, add(CFA_XSP16, literal(-14)))
        CFI (cfiCond85) V0 load(1, XDATA, add(CFA_XSP16, literal(-13)))
        CFI (cfiCond85) V1 load(1, XDATA, add(CFA_XSP16, literal(-12)))
        CFI (cfiCond85) V2 load(1, XDATA, add(CFA_XSP16, literal(-11)))
        CFI (cfiCond85) V3 load(1, XDATA, add(CFA_XSP16, literal(-10)))
        CFI (cfiCond85) V4 load(1, XDATA, add(CFA_XSP16, literal(-9)))
        CFI (cfiCond85) V5 load(1, XDATA, add(CFA_XSP16, literal(-8)))
        CFI (cfiCond85) V6 load(1, XDATA, add(CFA_XSP16, literal(-7)))
        CFI (cfiCond85) R7 load(1, XDATA, add(CFA_XSP16, literal(-6)))
        CFI (cfiCond85) ?RET_LOW load(1, XDATA, add(CFA_XSP16, literal(-5)))
        CFI (cfiCond85) ?RET_HIGH load(1, XDATA, add(CFA_XSP16, literal(-4)))
        CFI (cfiCond85) ?BRET_EXT load(1, XDATA, add(CFA_XSP16, literal(-3)))
        CFI (cfiCond85) DPL0 load(1, XDATA, add(CFA_XSP16, literal(-2)))
        CFI (cfiCond85) DPH0 load(1, XDATA, add(CFA_XSP16, literal(-1)))
        CFI (cfiCond85) CFA_SP SP+0
        CFI (cfiCond85) CFA_XSP16 add(XSP16, 18)
        CFI Block cfiCond86 Using cfiCommon0
        CFI (cfiCond86) NoFunction
        CFI (cfiCond86) Conditional ??CrossCallReturnLabel_86
        CFI (cfiCond86) R6 load(1, XDATA, add(CFA_XSP16, literal(-15)))
        CFI (cfiCond86) VB load(1, XDATA, add(CFA_XSP16, literal(-14)))
        CFI (cfiCond86) V0 load(1, XDATA, add(CFA_XSP16, literal(-13)))
        CFI (cfiCond86) V1 load(1, XDATA, add(CFA_XSP16, literal(-12)))
        CFI (cfiCond86) V2 load(1, XDATA, add(CFA_XSP16, literal(-11)))
        CFI (cfiCond86) V3 load(1, XDATA, add(CFA_XSP16, literal(-10)))
        CFI (cfiCond86) V4 load(1, XDATA, add(CFA_XSP16, literal(-9)))
        CFI (cfiCond86) V5 load(1, XDATA, add(CFA_XSP16, literal(-8)))
        CFI (cfiCond86) V6 load(1, XDATA, add(CFA_XSP16, literal(-7)))
        CFI (cfiCond86) R7 load(1, XDATA, add(CFA_XSP16, literal(-6)))
        CFI (cfiCond86) ?RET_LOW load(1, XDATA, add(CFA_XSP16, literal(-5)))
        CFI (cfiCond86) ?RET_HIGH load(1, XDATA, add(CFA_XSP16, literal(-4)))
        CFI (cfiCond86) ?BRET_EXT load(1, XDATA, add(CFA_XSP16, literal(-3)))
        CFI (cfiCond86) DPL0 load(1, XDATA, add(CFA_XSP16, literal(-2)))
        CFI (cfiCond86) DPH0 load(1, XDATA, add(CFA_XSP16, literal(-1)))
        CFI (cfiCond86) CFA_SP SP+0
        CFI (cfiCond86) CFA_XSP16 add(XSP16, 18)
        CFI Block cfiCond87 Using cfiCommon0
        CFI (cfiCond87) NoFunction
        CFI (cfiCond87) Conditional ??CrossCallReturnLabel_87
        CFI (cfiCond87) R6 load(1, XDATA, add(CFA_XSP16, literal(-15)))
        CFI (cfiCond87) VB load(1, XDATA, add(CFA_XSP16, literal(-14)))
        CFI (cfiCond87) V0 load(1, XDATA, add(CFA_XSP16, literal(-13)))
        CFI (cfiCond87) V1 load(1, XDATA, add(CFA_XSP16, literal(-12)))
        CFI (cfiCond87) V2 load(1, XDATA, add(CFA_XSP16, literal(-11)))
        CFI (cfiCond87) V3 load(1, XDATA, add(CFA_XSP16, literal(-10)))
        CFI (cfiCond87) V4 load(1, XDATA, add(CFA_XSP16, literal(-9)))
        CFI (cfiCond87) V5 load(1, XDATA, add(CFA_XSP16, literal(-8)))
        CFI (cfiCond87) V6 load(1, XDATA, add(CFA_XSP16, literal(-7)))
        CFI (cfiCond87) R7 load(1, XDATA, add(CFA_XSP16, literal(-6)))
        CFI (cfiCond87) ?RET_LOW load(1, XDATA, add(CFA_XSP16, literal(-5)))
        CFI (cfiCond87) ?RET_HIGH load(1, XDATA, add(CFA_XSP16, literal(-4)))
        CFI (cfiCond87) ?BRET_EXT load(1, XDATA, add(CFA_XSP16, literal(-3)))
        CFI (cfiCond87) DPL0 load(1, XDATA, add(CFA_XSP16, literal(-2)))
        CFI (cfiCond87) DPH0 load(1, XDATA, add(CFA_XSP16, literal(-1)))
        CFI (cfiCond87) CFA_SP SP+0
        CFI (cfiCond87) CFA_XSP16 add(XSP16, 18)
        CFI Block cfiPicker88 Using cfiCommon1
        CFI (cfiPicker88) NoFunction
        CFI (cfiPicker88) Picker
        MOV     R4,#0x2
        CFI EndBlock cfiCond77
        CFI EndBlock cfiCond78
        CFI EndBlock cfiCond79
        CFI EndBlock cfiCond80
        CFI EndBlock cfiCond81
        CFI EndBlock cfiCond82
        CFI EndBlock cfiCond83
        CFI EndBlock cfiCond84
        CFI EndBlock cfiCond85
        CFI EndBlock cfiCond86
        CFI EndBlock cfiCond87
        CFI EndBlock cfiPicker88
        REQUIRE ??Subroutine41_0
        ; // Fall through to label ??Subroutine41_0

        RSEG BANKED_CODE:CODE:NOROOT(0)
??Subroutine41_0:
        CFI Block cfiCond89 Using cfiCommon0
        CFI NoFunction
        CFI Conditional ??CrossCallReturnLabel_88
        CFI R6 load(1, XDATA, add(CFA_XSP16, literal(-15)))
        CFI VB load(1, XDATA, add(CFA_XSP16, literal(-14)))
        CFI V0 load(1, XDATA, add(CFA_XSP16, literal(-13)))
        CFI V1 load(1, XDATA, add(CFA_XSP16, literal(-12)))
        CFI V2 load(1, XDATA, add(CFA_XSP16, literal(-11)))
        CFI V3 load(1, XDATA, add(CFA_XSP16, literal(-10)))
        CFI V4 load(1, XDATA, add(CFA_XSP16, literal(-9)))
        CFI V5 load(1, XDATA, add(CFA_XSP16, literal(-8)))
        CFI V6 load(1, XDATA, add(CFA_XSP16, literal(-7)))
        CFI R7 load(1, XDATA, add(CFA_XSP16, literal(-6)))
        CFI ?RET_LOW load(1, XDATA, add(CFA_XSP16, literal(-5)))
        CFI ?RET_HIGH load(1, XDATA, add(CFA_XSP16, literal(-4)))
        CFI ?BRET_EXT load(1, XDATA, add(CFA_XSP16, literal(-3)))
        CFI DPL0 load(1, XDATA, add(CFA_XSP16, literal(-2)))
        CFI DPH0 load(1, XDATA, add(CFA_XSP16, literal(-1)))
        CFI CFA_SP SP+0
        CFI CFA_XSP16 add(XSP16, 19)
        CFI Block cfiCond90 Using cfiCommon0
        CFI (cfiCond90) NoFunction
        CFI (cfiCond90) Conditional ??CrossCallReturnLabel_77
        CFI (cfiCond90) R6 load(1, XDATA, add(CFA_XSP16, literal(-15)))
        CFI (cfiCond90) VB load(1, XDATA, add(CFA_XSP16, literal(-14)))
        CFI (cfiCond90) V0 load(1, XDATA, add(CFA_XSP16, literal(-13)))
        CFI (cfiCond90) V1 load(1, XDATA, add(CFA_XSP16, literal(-12)))
        CFI (cfiCond90) V2 load(1, XDATA, add(CFA_XSP16, literal(-11)))
        CFI (cfiCond90) V3 load(1, XDATA, add(CFA_XSP16, literal(-10)))
        CFI (cfiCond90) V4 load(1, XDATA, add(CFA_XSP16, literal(-9)))
        CFI (cfiCond90) V5 load(1, XDATA, add(CFA_XSP16, literal(-8)))
        CFI (cfiCond90) V6 load(1, XDATA, add(CFA_XSP16, literal(-7)))
        CFI (cfiCond90) R7 load(1, XDATA, add(CFA_XSP16, literal(-6)))
        CFI (cfiCond90) ?RET_LOW load(1, XDATA, add(CFA_XSP16, literal(-5)))
        CFI (cfiCond90) ?RET_HIGH load(1, XDATA, add(CFA_XSP16, literal(-4)))
        CFI (cfiCond90) ?BRET_EXT load(1, XDATA, add(CFA_XSP16, literal(-3)))
        CFI (cfiCond90) DPL0 load(1, XDATA, add(CFA_XSP16, literal(-2)))
        CFI (cfiCond90) DPH0 load(1, XDATA, add(CFA_XSP16, literal(-1)))
        CFI (cfiCond90) CFA_SP SP+0
        CFI (cfiCond90) CFA_XSP16 add(XSP16, 19)
        CFI Block cfiCond91 Using cfiCommon0
        CFI (cfiCond91) NoFunction
        CFI (cfiCond91) Conditional ??CrossCallReturnLabel_78
        CFI (cfiCond91) R6 load(1, XDATA, add(CFA_XSP16, literal(-15)))
        CFI (cfiCond91) VB load(1, XDATA, add(CFA_XSP16, literal(-14)))
        CFI (cfiCond91) V0 load(1, XDATA, add(CFA_XSP16, literal(-13)))
        CFI (cfiCond91) V1 load(1, XDATA, add(CFA_XSP16, literal(-12)))
        CFI (cfiCond91) V2 load(1, XDATA, add(CFA_XSP16, literal(-11)))
        CFI (cfiCond91) V3 load(1, XDATA, add(CFA_XSP16, literal(-10)))
        CFI (cfiCond91) V4 load(1, XDATA, add(CFA_XSP16, literal(-9)))
        CFI (cfiCond91) V5 load(1, XDATA, add(CFA_XSP16, literal(-8)))
        CFI (cfiCond91) V6 load(1, XDATA, add(CFA_XSP16, literal(-7)))
        CFI (cfiCond91) R7 load(1, XDATA, add(CFA_XSP16, literal(-6)))
        CFI (cfiCond91) ?RET_LOW load(1, XDATA, add(CFA_XSP16, literal(-5)))
        CFI (cfiCond91) ?RET_HIGH load(1, XDATA, add(CFA_XSP16, literal(-4)))
        CFI (cfiCond91) ?BRET_EXT load(1, XDATA, add(CFA_XSP16, literal(-3)))
        CFI (cfiCond91) DPL0 load(1, XDATA, add(CFA_XSP16, literal(-2)))
        CFI (cfiCond91) DPH0 load(1, XDATA, add(CFA_XSP16, literal(-1)))
        CFI (cfiCond91) CFA_SP SP+0
        CFI (cfiCond91) CFA_XSP16 add(XSP16, 19)
        CFI Block cfiCond92 Using cfiCommon0
        CFI (cfiCond92) NoFunction
        CFI (cfiCond92) Conditional ??CrossCallReturnLabel_79
        CFI (cfiCond92) R6 load(1, XDATA, add(CFA_XSP16, literal(-11)))
        CFI (cfiCond92) VB load(1, XDATA, add(CFA_XSP16, literal(-10)))
        CFI (cfiCond92) V0 load(1, XDATA, add(CFA_XSP16, literal(-9)))
        CFI (cfiCond92) V1 load(1, XDATA, add(CFA_XSP16, literal(-8)))
        CFI (cfiCond92) V2 load(1, XDATA, add(CFA_XSP16, literal(-7)))
        CFI (cfiCond92) R7 load(1, XDATA, add(CFA_XSP16, literal(-6)))
        CFI (cfiCond92) ?RET_LOW load(1, XDATA, add(CFA_XSP16, literal(-5)))
        CFI (cfiCond92) ?RET_HIGH load(1, XDATA, add(CFA_XSP16, literal(-4)))
        CFI (cfiCond92) ?BRET_EXT load(1, XDATA, add(CFA_XSP16, literal(-3)))
        CFI (cfiCond92) DPL0 load(1, XDATA, add(CFA_XSP16, literal(-2)))
        CFI (cfiCond92) DPH0 load(1, XDATA, add(CFA_XSP16, literal(-1)))
        CFI (cfiCond92) CFA_SP SP+0
        CFI (cfiCond92) CFA_XSP16 add(XSP16, 17)
        CFI Block cfiCond93 Using cfiCommon0
        CFI (cfiCond93) NoFunction
        CFI (cfiCond93) Conditional ??CrossCallReturnLabel_80
        CFI (cfiCond93) R6 load(1, XDATA, add(CFA_XSP16, literal(-12)))
        CFI (cfiCond93) VB load(1, XDATA, add(CFA_XSP16, literal(-11)))
        CFI (cfiCond93) V0 load(1, XDATA, add(CFA_XSP16, literal(-10)))
        CFI (cfiCond93) V1 load(1, XDATA, add(CFA_XSP16, literal(-9)))
        CFI (cfiCond93) V2 load(1, XDATA, add(CFA_XSP16, literal(-8)))
        CFI (cfiCond93) V3 load(1, XDATA, add(CFA_XSP16, literal(-7)))
        CFI (cfiCond93) R7 load(1, XDATA, add(CFA_XSP16, literal(-6)))
        CFI (cfiCond93) ?RET_LOW load(1, XDATA, add(CFA_XSP16, literal(-5)))
        CFI (cfiCond93) ?RET_HIGH load(1, XDATA, add(CFA_XSP16, literal(-4)))
        CFI (cfiCond93) ?BRET_EXT load(1, XDATA, add(CFA_XSP16, literal(-3)))
        CFI (cfiCond93) DPL0 load(1, XDATA, add(CFA_XSP16, literal(-2)))
        CFI (cfiCond93) DPH0 load(1, XDATA, add(CFA_XSP16, literal(-1)))
        CFI (cfiCond93) CFA_SP SP+0
        CFI (cfiCond93) CFA_XSP16 add(XSP16, 24)
        CFI Block cfiCond94 Using cfiCommon0
        CFI (cfiCond94) NoFunction
        CFI (cfiCond94) Conditional ??CrossCallReturnLabel_81
        CFI (cfiCond94) R6 load(1, XDATA, add(CFA_XSP16, literal(-11)))
        CFI (cfiCond94) VB load(1, XDATA, add(CFA_XSP16, literal(-10)))
        CFI (cfiCond94) V0 load(1, XDATA, add(CFA_XSP16, literal(-9)))
        CFI (cfiCond94) V1 load(1, XDATA, add(CFA_XSP16, literal(-8)))
        CFI (cfiCond94) V2 load(1, XDATA, add(CFA_XSP16, literal(-7)))
        CFI (cfiCond94) R7 load(1, XDATA, add(CFA_XSP16, literal(-6)))
        CFI (cfiCond94) ?RET_LOW load(1, XDATA, add(CFA_XSP16, literal(-5)))
        CFI (cfiCond94) ?RET_HIGH load(1, XDATA, add(CFA_XSP16, literal(-4)))
        CFI (cfiCond94) ?BRET_EXT load(1, XDATA, add(CFA_XSP16, literal(-3)))
        CFI (cfiCond94) DPL0 load(1, XDATA, add(CFA_XSP16, literal(-2)))
        CFI (cfiCond94) DPH0 load(1, XDATA, add(CFA_XSP16, literal(-1)))
        CFI (cfiCond94) CFA_SP SP+0
        CFI (cfiCond94) CFA_XSP16 add(XSP16, 14)
        CFI Block cfiCond95 Using cfiCommon0
        CFI (cfiCond95) NoFunction
        CFI (cfiCond95) Conditional ??CrossCallReturnLabel_82
        CFI (cfiCond95) R6 load(1, XDATA, add(CFA_XSP16, literal(-11)))
        CFI (cfiCond95) VB load(1, XDATA, add(CFA_XSP16, literal(-10)))
        CFI (cfiCond95) V0 load(1, XDATA, add(CFA_XSP16, literal(-9)))
        CFI (cfiCond95) V1 load(1, XDATA, add(CFA_XSP16, literal(-8)))
        CFI (cfiCond95) V2 load(1, XDATA, add(CFA_XSP16, literal(-7)))
        CFI (cfiCond95) R7 load(1, XDATA, add(CFA_XSP16, literal(-6)))
        CFI (cfiCond95) ?RET_LOW load(1, XDATA, add(CFA_XSP16, literal(-5)))
        CFI (cfiCond95) ?RET_HIGH load(1, XDATA, add(CFA_XSP16, literal(-4)))
        CFI (cfiCond95) ?BRET_EXT load(1, XDATA, add(CFA_XSP16, literal(-3)))
        CFI (cfiCond95) DPL0 load(1, XDATA, add(CFA_XSP16, literal(-2)))
        CFI (cfiCond95) DPH0 load(1, XDATA, add(CFA_XSP16, literal(-1)))
        CFI (cfiCond95) CFA_SP SP+0
        CFI (cfiCond95) CFA_XSP16 add(XSP16, 14)
        CFI Block cfiCond96 Using cfiCommon0
        CFI (cfiCond96) NoFunction
        CFI (cfiCond96) Conditional ??CrossCallReturnLabel_83
        CFI (cfiCond96) R6 load(1, XDATA, add(CFA_XSP16, literal(-15)))
        CFI (cfiCond96) VB load(1, XDATA, add(CFA_XSP16, literal(-14)))
        CFI (cfiCond96) V0 load(1, XDATA, add(CFA_XSP16, literal(-13)))
        CFI (cfiCond96) V1 load(1, XDATA, add(CFA_XSP16, literal(-12)))
        CFI (cfiCond96) V2 load(1, XDATA, add(CFA_XSP16, literal(-11)))
        CFI (cfiCond96) V3 load(1, XDATA, add(CFA_XSP16, literal(-10)))
        CFI (cfiCond96) V4 load(1, XDATA, add(CFA_XSP16, literal(-9)))
        CFI (cfiCond96) V5 load(1, XDATA, add(CFA_XSP16, literal(-8)))
        CFI (cfiCond96) V6 load(1, XDATA, add(CFA_XSP16, literal(-7)))
        CFI (cfiCond96) R7 load(1, XDATA, add(CFA_XSP16, literal(-6)))
        CFI (cfiCond96) ?RET_LOW load(1, XDATA, add(CFA_XSP16, literal(-5)))
        CFI (cfiCond96) ?RET_HIGH load(1, XDATA, add(CFA_XSP16, literal(-4)))
        CFI (cfiCond96) ?BRET_EXT load(1, XDATA, add(CFA_XSP16, literal(-3)))
        CFI (cfiCond96) DPL0 load(1, XDATA, add(CFA_XSP16, literal(-2)))
        CFI (cfiCond96) DPH0 load(1, XDATA, add(CFA_XSP16, literal(-1)))
        CFI (cfiCond96) CFA_SP SP+0
        CFI (cfiCond96) CFA_XSP16 add(XSP16, 18)
        CFI Block cfiCond97 Using cfiCommon0
        CFI (cfiCond97) NoFunction
        CFI (cfiCond97) Conditional ??CrossCallReturnLabel_84
        CFI (cfiCond97) R6 load(1, XDATA, add(CFA_XSP16, literal(-15)))
        CFI (cfiCond97) VB load(1, XDATA, add(CFA_XSP16, literal(-14)))
        CFI (cfiCond97) V0 load(1, XDATA, add(CFA_XSP16, literal(-13)))
        CFI (cfiCond97) V1 load(1, XDATA, add(CFA_XSP16, literal(-12)))
        CFI (cfiCond97) V2 load(1, XDATA, add(CFA_XSP16, literal(-11)))
        CFI (cfiCond97) V3 load(1, XDATA, add(CFA_XSP16, literal(-10)))
        CFI (cfiCond97) V4 load(1, XDATA, add(CFA_XSP16, literal(-9)))
        CFI (cfiCond97) V5 load(1, XDATA, add(CFA_XSP16, literal(-8)))
        CFI (cfiCond97) V6 load(1, XDATA, add(CFA_XSP16, literal(-7)))
        CFI (cfiCond97) R7 load(1, XDATA, add(CFA_XSP16, literal(-6)))
        CFI (cfiCond97) ?RET_LOW load(1, XDATA, add(CFA_XSP16, literal(-5)))
        CFI (cfiCond97) ?RET_HIGH load(1, XDATA, add(CFA_XSP16, literal(-4)))
        CFI (cfiCond97) ?BRET_EXT load(1, XDATA, add(CFA_XSP16, literal(-3)))
        CFI (cfiCond97) DPL0 load(1, XDATA, add(CFA_XSP16, literal(-2)))
        CFI (cfiCond97) DPH0 load(1, XDATA, add(CFA_XSP16, literal(-1)))
        CFI (cfiCond97) CFA_SP SP+0
        CFI (cfiCond97) CFA_XSP16 add(XSP16, 18)
        CFI Block cfiCond98 Using cfiCommon0
        CFI (cfiCond98) NoFunction
        CFI (cfiCond98) Conditional ??CrossCallReturnLabel_85
        CFI (cfiCond98) R6 load(1, XDATA, add(CFA_XSP16, literal(-15)))
        CFI (cfiCond98) VB load(1, XDATA, add(CFA_XSP16, literal(-14)))
        CFI (cfiCond98) V0 load(1, XDATA, add(CFA_XSP16, literal(-13)))
        CFI (cfiCond98) V1 load(1, XDATA, add(CFA_XSP16, literal(-12)))
        CFI (cfiCond98) V2 load(1, XDATA, add(CFA_XSP16, literal(-11)))
        CFI (cfiCond98) V3 load(1, XDATA, add(CFA_XSP16, literal(-10)))
        CFI (cfiCond98) V4 load(1, XDATA, add(CFA_XSP16, literal(-9)))
        CFI (cfiCond98) V5 load(1, XDATA, add(CFA_XSP16, literal(-8)))
        CFI (cfiCond98) V6 load(1, XDATA, add(CFA_XSP16, literal(-7)))
        CFI (cfiCond98) R7 load(1, XDATA, add(CFA_XSP16, literal(-6)))
        CFI (cfiCond98) ?RET_LOW load(1, XDATA, add(CFA_XSP16, literal(-5)))
        CFI (cfiCond98) ?RET_HIGH load(1, XDATA, add(CFA_XSP16, literal(-4)))
        CFI (cfiCond98) ?BRET_EXT load(1, XDATA, add(CFA_XSP16, literal(-3)))
        CFI (cfiCond98) DPL0 load(1, XDATA, add(CFA_XSP16, literal(-2)))
        CFI (cfiCond98) DPH0 load(1, XDATA, add(CFA_XSP16, literal(-1)))
        CFI (cfiCond98) CFA_SP SP+0
        CFI (cfiCond98) CFA_XSP16 add(XSP16, 18)
        CFI Block cfiCond99 Using cfiCommon0
        CFI (cfiCond99) NoFunction
        CFI (cfiCond99) Conditional ??CrossCallReturnLabel_86
        CFI (cfiCond99) R6 load(1, XDATA, add(CFA_XSP16, literal(-15)))
        CFI (cfiCond99) VB load(1, XDATA, add(CFA_XSP16, literal(-14)))
        CFI (cfiCond99) V0 load(1, XDATA, add(CFA_XSP16, literal(-13)))
        CFI (cfiCond99) V1 load(1, XDATA, add(CFA_XSP16, literal(-12)))
        CFI (cfiCond99) V2 load(1, XDATA, add(CFA_XSP16, literal(-11)))
        CFI (cfiCond99) V3 load(1, XDATA, add(CFA_XSP16, literal(-10)))
        CFI (cfiCond99) V4 load(1, XDATA, add(CFA_XSP16, literal(-9)))
        CFI (cfiCond99) V5 load(1, XDATA, add(CFA_XSP16, literal(-8)))
        CFI (cfiCond99) V6 load(1, XDATA, add(CFA_XSP16, literal(-7)))
        CFI (cfiCond99) R7 load(1, XDATA, add(CFA_XSP16, literal(-6)))
        CFI (cfiCond99) ?RET_LOW load(1, XDATA, add(CFA_XSP16, literal(-5)))
        CFI (cfiCond99) ?RET_HIGH load(1, XDATA, add(CFA_XSP16, literal(-4)))
        CFI (cfiCond99) ?BRET_EXT load(1, XDATA, add(CFA_XSP16, literal(-3)))
        CFI (cfiCond99) DPL0 load(1, XDATA, add(CFA_XSP16, literal(-2)))
        CFI (cfiCond99) DPH0 load(1, XDATA, add(CFA_XSP16, literal(-1)))
        CFI (cfiCond99) CFA_SP SP+0
        CFI (cfiCond99) CFA_XSP16 add(XSP16, 18)
        CFI Block cfiCond100 Using cfiCommon0
        CFI (cfiCond100) NoFunction
        CFI (cfiCond100) Conditional ??CrossCallReturnLabel_87
        CFI (cfiCond100) R6 load(1, XDATA, add(CFA_XSP16, literal(-15)))
        CFI (cfiCond100) VB load(1, XDATA, add(CFA_XSP16, literal(-14)))
        CFI (cfiCond100) V0 load(1, XDATA, add(CFA_XSP16, literal(-13)))
        CFI (cfiCond100) V1 load(1, XDATA, add(CFA_XSP16, literal(-12)))
        CFI (cfiCond100) V2 load(1, XDATA, add(CFA_XSP16, literal(-11)))
        CFI (cfiCond100) V3 load(1, XDATA, add(CFA_XSP16, literal(-10)))
        CFI (cfiCond100) V4 load(1, XDATA, add(CFA_XSP16, literal(-9)))
        CFI (cfiCond100) V5 load(1, XDATA, add(CFA_XSP16, literal(-8)))
        CFI (cfiCond100) V6 load(1, XDATA, add(CFA_XSP16, literal(-7)))
        CFI (cfiCond100) R7 load(1, XDATA, add(CFA_XSP16, literal(-6)))
        CFI (cfiCond100) ?RET_LOW load(1, XDATA, add(CFA_XSP16, literal(-5)))
        CFI (cfiCond100) ?RET_HIGH load(1, XDATA, add(CFA_XSP16, literal(-4)))
        CFI (cfiCond100) ?BRET_EXT load(1, XDATA, add(CFA_XSP16, literal(-3)))
        CFI (cfiCond100) DPL0 load(1, XDATA, add(CFA_XSP16, literal(-2)))
        CFI (cfiCond100) DPH0 load(1, XDATA, add(CFA_XSP16, literal(-1)))
        CFI (cfiCond100) CFA_SP SP+0
        CFI (cfiCond100) CFA_XSP16 add(XSP16, 18)
        CFI Block cfiPicker101 Using cfiCommon1
        CFI (cfiPicker101) NoFunction
        CFI (cfiPicker101) Picker
        MOV     R5,#0x0
        MOV     DPTR,#optData
        MOVX    A,@DPTR
        MOV     R2,A
        INC     DPTR
        MOVX    A,@DPTR
        MOV     R3,A
        LCALL   ??osal_memcpy?relay
        MOV     A,#0x3
        RET
        CFI EndBlock cfiCond89
        CFI EndBlock cfiCond90
        CFI EndBlock cfiCond91
        CFI EndBlock cfiCond92
        CFI EndBlock cfiCond93
        CFI EndBlock cfiCond94
        CFI EndBlock cfiCond95
        CFI EndBlock cfiCond96
        CFI EndBlock cfiCond97
        CFI EndBlock cfiCond98
        CFI EndBlock cfiCond99
        CFI EndBlock cfiCond100
        CFI EndBlock cfiPicker101
//  471 

        RSEG BANKED_CODE:CODE:NOROOT(0)
//  472 void lightctrl_init(void)
lightctrl_init:
        CFI Block cfiBlock102 Using cfiCommon0
        CFI Function lightctrl_init
        CODE
//  473 {
        PUSH    DPL
        CFI DPL0 Frame(CFA_SP, 4)
        CFI CFA_SP SP+-4
        PUSH    DPH
        CFI DPH0 Frame(CFA_SP, 5)
        CFI CFA_SP SP+-5
        ; Saved register size: 2
        ; Auto size: 2
        MOV     A,#-0x2
        LCALL   ?ALLOC_XSTACK8
        CFI CFA_XSP16 add(XSP16, 2)
//  474   	volatile int i;
//  475 	InitTimer1();
        LCALL   ?Subroutine29 & 0xFFFF
//  476 	T1CTL = 0x06;
??CrossCallReturnLabel_46:
        MOV     0xe4,#0x6
//  477   
//  478     for(i = 32;i > 0;i--)
        MOV     DPL,?XSP + 0
        MOV     DPH,?XSP + 1
        MOV     A,#0x20
        MOVX    @DPTR,A
        INC     DPTR
        CLR     A
        SJMP    ??lightctrl_init_0
//  479       asm("NOP");
??lightctrl_init_1:
        NOP
        MOV     DPL,?XSP + 0
        MOV     DPH,?XSP + 1
        MOVX    A,@DPTR
        ADD     A,#-0x1
        MOVX    @DPTR,A
        INC     DPTR
        MOVX    A,@DPTR
        ADDC    A,#-0x1
??lightctrl_init_0:
        MOVX    @DPTR,A
        MOV     DPL,?XSP + 0
        MOV     DPH,?XSP + 1
        CLR     C
        MOVX    A,@DPTR
        SUBB    A,#0x1
        INC     DPTR
        MOVX    A,@DPTR
        SUBB    A,#0x0
        MOV     C,0xD0 /* PSW */.2
        XRL     A,PSW
        RLC     A
        JNC     ??lightctrl_init_1
//  480 	
//  481 	T1CTL = 0x04;
        MOV     0xe4,#0x4
//  482 }
        MOV     A,#0x2
        LCALL   ?DEALLOC_XSTACK8
        CFI CFA_XSP16 XSP16+0
        POP     DPH
        CFI DPH0 SameValue
        CFI CFA_SP SP+-4
        POP     DPL
        CFI DPL0 SameValue
        CFI CFA_SP SP+-3
        LJMP    ?BRET
        CFI EndBlock cfiBlock102
        REQUIRE T1CTL
        REQUIRE P1SEL
        REQUIRE P1DIR
        REQUIRE PERCFG
        REQUIRE CLKCONCMD
        REQUIRE T1CC0H
        REQUIRE T1CC0L
        REQUIRE T1CC1H
        REQUIRE T1CC1L
        REQUIRE T1CCTL1
        REQUIRE _A_IEN1
        REQUIRE _A_IEN0
//  483 
//  484 int8 set_led_data(uint8 *data, uint8 dataLen)
//  485 {
//  486 	uint8 i2cAddr = IRecvByte(DEMOBASE_DEVICE_IIC_ADDR);
//  487 
//  488 	if(i2cAddr != incode_atox(data, 2) || dataLen < 4)
//  489 	{
//  490 		return 0;
//  491 	}
//  492 	
//  493 	HAL_SET_BASELED(incode_atox(data+2, 2));
//  494 	return 0;
//  495 }
//  496 
//  497 int8 set_plc_data(uint8 *data, uint8 dataLen)
//  498 {
//  499 	uint8 i2cAddr = IRecvByte(DEMOBASE_DEVICE_IIC_ADDR);
//  500 
//  501 	if(i2cAddr != incode_atox(data, 2) || dataLen < 4)
//  502 	{
//  503 		return 0;
//  504 	}
//  505 	
//  506 	if(data[2] == '0')
//  507 	{
//  508 		HAL_TURN_OFF_PLCOUT1();
//  509 	}
//  510 	else
//  511 	{
//  512 		HAL_TURN_ON_PLCOUT1();
//  513 	}
//  514 
//  515 	if(data[3] == '0')
//  516 	{
//  517 		HAL_TURN_OFF_PLCOUT2();
//  518 	}
//  519 	else
//  520 	{
//  521 		HAL_TURN_ON_PLCOUT2();
//  522 	}
//  523 	
//  524 	return 0;
//  525 }
//  526 
//  527 int8 set_rfid_data(uint8 *data, uint8 dataLen)
//  528 {
//  529 	uint8 i2cAddr = IRecvByte(DEMOBASE_DEVICE_IIC_ADDR);
//  530 
//  531 	if(i2cAddr != incode_atox(data, 2) || dataLen < 3)
//  532 	{
//  533 		return 0;
//  534 	}
//  535 
//  536 	if(data[2] == 'S')
//  537 	{
//  538 		queryStates = 1;
//  539 	}
//  540 	else if(data[2] == 'P')
//  541 	{
//  542 		queryStates = 0;
//  543 	}
//  544 	
//  545 	return 0;
//  546 }
//  547 
//  548 int8 set_humiture_data(uint8 *data, uint8 dataLen)
//  549 {
//  550 	uint8 i2cAddr = IRecvByte(DEMOBASE_DEVICE_IIC_ADDR);
//  551 
//  552 	if(i2cAddr != incode_atox(data, 2) || dataLen < 3)
//  553 	{
//  554 		return 0;
//  555 	}
//  556 
//  557 	if(data[2] == 'S')
//  558 	{
//  559 		queryStates = 1;
//  560 	}
//  561 	else if(data[2] == 'P')
//  562 	{
//  563 		queryStates = 0;
//  564 	}
//  565 	
//  566 	return 0;
//  567 }
//  568 
//  569 int8 set_lightdetect_data(uint8 *data, uint8 dataLen)
//  570 {
//  571 	uint8 i2cAddr = IRecvByte(DEMOBASE_DEVICE_IIC_ADDR);
//  572 
//  573 	if(i2cAddr != incode_atox(data, 2) || dataLen < 3)
//  574 	{
//  575 		return 0;
//  576 	}
//  577 
//  578 	if(data[2] == 'S')
//  579 	{
//  580 		queryStates = 1;
//  581 	}
//  582 	else if(data[2] == 'P')
//  583 	{
//  584 		queryStates = 0;
//  585 	}
//  586 	
//  587 	return 0;
//  588 }
//  589 
//  590 int8 set_airdetect_data(uint8 *data, uint8 dataLen)
//  591 {
//  592 	uint8 i2cAddr = IRecvByte(DEMOBASE_DEVICE_IIC_ADDR);
//  593 
//  594 	if(i2cAddr != incode_atox(data, 2) || dataLen < 3)
//  595 	{
//  596 		return 0;
//  597 	}
//  598 
//  599 	if(data[2] == 'S')
//  600 	{
//  601 		queryStates = 1;
//  602 	}
//  603 	else if(data[2] == 'P')
//  604 	{
//  605 		queryStates = 0;
//  606 	}
//  607 	
//  608 	return 0;
//  609 }
//  610 

        RSEG BANKED_CODE:CODE:NOROOT(0)
//  611 int8 set_lightctrl_data(uint8 *data, uint8 dataLen)
set_lightctrl_data:
        CFI Block cfiBlock103 Using cfiCommon0
        CFI Function set_lightctrl_data
        CODE
//  612 {
        FUNCALL set_lightctrl_data, IRecvByte
        LOCFRAME ISTACK, 0, STACK
        LOCFRAME PSTACK, 0, STACK
        LOCFRAME XSTACK, 10, STACK
        LOCFRAME IOVERLAY, 0, STATIC
        LOCFRAME DOVERLAY, 0, STATIC
        ARGFRAME ISTACK, 0, STACK
        ARGFRAME PSTACK, 0, STACK
        ARGFRAME XSTACK, 10, STACK
        ARGFRAME IOVERLAY, 0, STATIC
        ARGFRAME DOVERLAY, 0, STATIC
        FUNCALL set_lightctrl_data, incode_atox
        LOCFRAME ISTACK, 0, STACK
        LOCFRAME PSTACK, 0, STACK
        LOCFRAME XSTACK, 10, STACK
        LOCFRAME IOVERLAY, 0, STATIC
        LOCFRAME DOVERLAY, 0, STATIC
        ARGFRAME ISTACK, 0, STACK
        ARGFRAME PSTACK, 0, STACK
        ARGFRAME XSTACK, 10, STACK
        ARGFRAME IOVERLAY, 0, STATIC
        ARGFRAME DOVERLAY, 0, STATIC
        FUNCALL set_lightctrl_data, incode_atox
        LOCFRAME ISTACK, 0, STACK
        LOCFRAME PSTACK, 0, STACK
        LOCFRAME XSTACK, 10, STACK
        LOCFRAME IOVERLAY, 0, STATIC
        LOCFRAME DOVERLAY, 0, STATIC
        ARGFRAME ISTACK, 0, STACK
        ARGFRAME PSTACK, 0, STACK
        ARGFRAME XSTACK, 10, STACK
        ARGFRAME IOVERLAY, 0, STATIC
        ARGFRAME DOVERLAY, 0, STATIC
        MOV     A,#-0xa
        LCALL   ?BANKED_ENTER_XDATA
        CFI DPH0 load(1, XDATA, add(CFA_XSP16, literal(-1)))
        CFI DPL0 load(1, XDATA, add(CFA_XSP16, literal(-2)))
        CFI ?BRET_EXT load(1, XDATA, add(CFA_XSP16, literal(-3)))
        CFI ?RET_HIGH load(1, XDATA, add(CFA_XSP16, literal(-4)))
        CFI ?RET_LOW load(1, XDATA, add(CFA_XSP16, literal(-5)))
        CFI R7 load(1, XDATA, add(CFA_XSP16, literal(-6)))
        CFI V1 load(1, XDATA, add(CFA_XSP16, literal(-7)))
        CFI V0 load(1, XDATA, add(CFA_XSP16, literal(-8)))
        CFI VB load(1, XDATA, add(CFA_XSP16, literal(-9)))
        CFI R6 load(1, XDATA, add(CFA_XSP16, literal(-10)))
        CFI CFA_SP SP+0
        CFI CFA_XSP16 add(XSP16, 10)
        ; Saved register size: 10
        ; Auto size: 0
        MOV     A,R2
        MOV     R6,A
        MOV     A,R3
        MOV     R7,A
        MOV     ?V0 + 0,R1
//  613 	uint8 i2cAddr = IRecvByte(DEMOBASE_DEVICE_IIC_ADDR);
        ; Setup parameters for call to function IRecvByte
        LCALL   ?Subroutine4 & 0xFFFF
//  614 
//  615 	if(i2cAddr != incode_atox(data, 2) || dataLen < 4)
??CrossCallReturnLabel_0:
        JNZ     ??set_lightctrl_data_0
        MOV     A,?V0 + 0
        CLR     C
        SUBB    A,#0x4
        JNC     ??set_lightctrl_data_1
//  616 	{
//  617 		return 0;
??set_lightctrl_data_0:
        MOV     R1,#0x0
        LJMP    ?Subroutine0 & 0xFFFF
//  618 	}
//  619 	
//  620 	lightCtrlStates = incode_atox(data+2, 2);
??set_lightctrl_data_1:
        ; Setup parameters for call to function incode_atox
        LCALL   ?Subroutine28 & 0xFFFF
??CrossCallReturnLabel_44:
        MOV     DPTR,#lightCtrlStates
        MOVX    @DPTR,A
//  621 
//  622 	InitTimer1();
        LCALL   ?Subroutine29 & 0xFFFF
//  623 
//  624 	T1CC1L = lightCtrlStates*12+4;
??CrossCallReturnLabel_47:
        MOV     B,#0xc
        MUL     AB
        ADD     A,#0x4
        MOV     0xdc,A
//  625 	T1CC1H = 0;
        MOV     0xdd,#0x0
//  626 	
//  627 	if(lightCtrlStates != 0)
        MOVX    A,@DPTR
        JZ      ??set_lightctrl_data_2
//  628 	{
//  629 		T1CTL = 0x06;
        MOV     0xe4,#0x6
        SJMP    ??set_lightctrl_data_0
//  630 	}
//  631 	else
//  632 	{
//  633 		T1CTL = 0x04;
??set_lightctrl_data_2:
        MOV     0xe4,#0x4
        SJMP    ??set_lightctrl_data_0
        CFI EndBlock cfiBlock103
        REQUIRE T1CC1L
        REQUIRE T1CC1H
        REQUIRE T1CTL
        REQUIRE P1SEL
        REQUIRE P1DIR
        REQUIRE PERCFG
        REQUIRE CLKCONCMD
        REQUIRE T1CC0H
        REQUIRE T1CC0L
        REQUIRE T1CCTL1
        REQUIRE _A_IEN1
        REQUIRE _A_IEN0
//  634 	}
//  635 	
//  636 	return 0;
//  637 }

        RSEG BANKED_CODE:CODE:NOROOT(0)
?Subroutine29:
        CFI Block cfiCond104 Using cfiCommon0
        CFI NoFunction
        CFI Conditional ??CrossCallReturnLabel_46
        CFI DPL0 Frame(CFA_SP, 4)
        CFI DPH0 Frame(CFA_SP, 5)
        CFI CFA_SP SP+-5
        CFI CFA_XSP16 add(XSP16, 2)
        CFI Block cfiCond105 Using cfiCommon0
        CFI (cfiCond105) NoFunction
        CFI (cfiCond105) Conditional ??CrossCallReturnLabel_47
        CFI (cfiCond105) R6 load(1, XDATA, add(CFA_XSP16, literal(-10)))
        CFI (cfiCond105) VB load(1, XDATA, add(CFA_XSP16, literal(-9)))
        CFI (cfiCond105) V0 load(1, XDATA, add(CFA_XSP16, literal(-8)))
        CFI (cfiCond105) V1 load(1, XDATA, add(CFA_XSP16, literal(-7)))
        CFI (cfiCond105) R7 load(1, XDATA, add(CFA_XSP16, literal(-6)))
        CFI (cfiCond105) ?RET_LOW load(1, XDATA, add(CFA_XSP16, literal(-5)))
        CFI (cfiCond105) ?RET_HIGH load(1, XDATA, add(CFA_XSP16, literal(-4)))
        CFI (cfiCond105) ?BRET_EXT load(1, XDATA, add(CFA_XSP16, literal(-3)))
        CFI (cfiCond105) DPL0 load(1, XDATA, add(CFA_XSP16, literal(-2)))
        CFI (cfiCond105) DPH0 load(1, XDATA, add(CFA_XSP16, literal(-1)))
        CFI (cfiCond105) CFA_SP SP+0
        CFI (cfiCond105) CFA_XSP16 add(XSP16, 10)
        CFI Block cfiPicker106 Using cfiCommon1
        CFI (cfiPicker106) NoFunction
        CFI (cfiPicker106) Picker
        ORL     0xf4,#0x2
        ORL     0xfe,#0x2
        ORL     0xf1,#0x40
        ORL     0xc6,#0x28
        MOV     0xdb,#0x0
        MOV     0xda,#-0x1
        MOV     0xdd,#0x0
        MOV     0xdc,#0x5
        ORL     0xe6,#0x1c
        MOV     0xe4,#0x4
        CLR     0xb8.1
        SETB    0xa8.7
        RET
        CFI EndBlock cfiCond104
        CFI EndBlock cfiCond105
        CFI EndBlock cfiPicker106

        RSEG BANKED_CODE:CODE:NOROOT(0)
?Subroutine28:
        CFI Block cfiCond107 Using cfiCommon0
        CFI NoFunction
        CFI Conditional ??CrossCallReturnLabel_45
        CFI R6 load(1, XDATA, add(CFA_XSP16, literal(-15)))
        CFI VB load(1, XDATA, add(CFA_XSP16, literal(-14)))
        CFI V0 load(1, XDATA, add(CFA_XSP16, literal(-13)))
        CFI V1 load(1, XDATA, add(CFA_XSP16, literal(-12)))
        CFI V2 load(1, XDATA, add(CFA_XSP16, literal(-11)))
        CFI V3 load(1, XDATA, add(CFA_XSP16, literal(-10)))
        CFI V4 load(1, XDATA, add(CFA_XSP16, literal(-9)))
        CFI V5 load(1, XDATA, add(CFA_XSP16, literal(-8)))
        CFI V6 load(1, XDATA, add(CFA_XSP16, literal(-7)))
        CFI R7 load(1, XDATA, add(CFA_XSP16, literal(-6)))
        CFI ?RET_LOW load(1, XDATA, add(CFA_XSP16, literal(-5)))
        CFI ?RET_HIGH load(1, XDATA, add(CFA_XSP16, literal(-4)))
        CFI ?BRET_EXT load(1, XDATA, add(CFA_XSP16, literal(-3)))
        CFI DPL0 load(1, XDATA, add(CFA_XSP16, literal(-2)))
        CFI DPH0 load(1, XDATA, add(CFA_XSP16, literal(-1)))
        CFI CFA_SP SP+0
        CFI CFA_XSP16 add(XSP16, 16)
        CFI Block cfiCond108 Using cfiCommon0
        CFI (cfiCond108) NoFunction
        CFI (cfiCond108) Conditional ??CrossCallReturnLabel_44
        CFI (cfiCond108) R6 load(1, XDATA, add(CFA_XSP16, literal(-10)))
        CFI (cfiCond108) VB load(1, XDATA, add(CFA_XSP16, literal(-9)))
        CFI (cfiCond108) V0 load(1, XDATA, add(CFA_XSP16, literal(-8)))
        CFI (cfiCond108) V1 load(1, XDATA, add(CFA_XSP16, literal(-7)))
        CFI (cfiCond108) R7 load(1, XDATA, add(CFA_XSP16, literal(-6)))
        CFI (cfiCond108) ?RET_LOW load(1, XDATA, add(CFA_XSP16, literal(-5)))
        CFI (cfiCond108) ?RET_HIGH load(1, XDATA, add(CFA_XSP16, literal(-4)))
        CFI (cfiCond108) ?BRET_EXT load(1, XDATA, add(CFA_XSP16, literal(-3)))
        CFI (cfiCond108) DPL0 load(1, XDATA, add(CFA_XSP16, literal(-2)))
        CFI (cfiCond108) DPH0 load(1, XDATA, add(CFA_XSP16, literal(-1)))
        CFI (cfiCond108) CFA_SP SP+0
        CFI (cfiCond108) CFA_XSP16 add(XSP16, 10)
        CFI Block cfiPicker109 Using cfiCommon1
        CFI (cfiPicker109) NoFunction
        CFI (cfiPicker109) Picker
        MOV     R4,#0x2
        MOV     R5,#0x0
        MOV     A,R6
        ADD     A,#0x2
        MOV     R2,A
        MOV     A,R7
        ADDC    A,#0x0
        MOV     R3,A
        LCALL   ??incode_atox?relay
        MOV     A,R1
        RET
        CFI EndBlock cfiCond107
        CFI EndBlock cfiCond108
        CFI EndBlock cfiPicker109

        RSEG BANKED_CODE:CODE:NOROOT(0)
?Subroutine4:
        CFI Block cfiCond110 Using cfiCommon0
        CFI NoFunction
        CFI Conditional ??CrossCallReturnLabel_1
        CFI R6 load(1, XDATA, add(CFA_XSP16, literal(-15)))
        CFI VB load(1, XDATA, add(CFA_XSP16, literal(-14)))
        CFI V0 load(1, XDATA, add(CFA_XSP16, literal(-13)))
        CFI V1 load(1, XDATA, add(CFA_XSP16, literal(-12)))
        CFI V2 load(1, XDATA, add(CFA_XSP16, literal(-11)))
        CFI V3 load(1, XDATA, add(CFA_XSP16, literal(-10)))
        CFI V4 load(1, XDATA, add(CFA_XSP16, literal(-9)))
        CFI V5 load(1, XDATA, add(CFA_XSP16, literal(-8)))
        CFI V6 load(1, XDATA, add(CFA_XSP16, literal(-7)))
        CFI R7 load(1, XDATA, add(CFA_XSP16, literal(-6)))
        CFI ?RET_LOW load(1, XDATA, add(CFA_XSP16, literal(-5)))
        CFI ?RET_HIGH load(1, XDATA, add(CFA_XSP16, literal(-4)))
        CFI ?BRET_EXT load(1, XDATA, add(CFA_XSP16, literal(-3)))
        CFI DPL0 load(1, XDATA, add(CFA_XSP16, literal(-2)))
        CFI DPH0 load(1, XDATA, add(CFA_XSP16, literal(-1)))
        CFI CFA_SP SP+0
        CFI CFA_XSP16 add(XSP16, 16)
        CFI Block cfiCond111 Using cfiCommon0
        CFI (cfiCond111) NoFunction
        CFI (cfiCond111) Conditional ??CrossCallReturnLabel_2
        CFI (cfiCond111) R6 load(1, XDATA, add(CFA_XSP16, literal(-15)))
        CFI (cfiCond111) VB load(1, XDATA, add(CFA_XSP16, literal(-14)))
        CFI (cfiCond111) V0 load(1, XDATA, add(CFA_XSP16, literal(-13)))
        CFI (cfiCond111) V1 load(1, XDATA, add(CFA_XSP16, literal(-12)))
        CFI (cfiCond111) V2 load(1, XDATA, add(CFA_XSP16, literal(-11)))
        CFI (cfiCond111) V3 load(1, XDATA, add(CFA_XSP16, literal(-10)))
        CFI (cfiCond111) V4 load(1, XDATA, add(CFA_XSP16, literal(-9)))
        CFI (cfiCond111) V5 load(1, XDATA, add(CFA_XSP16, literal(-8)))
        CFI (cfiCond111) V6 load(1, XDATA, add(CFA_XSP16, literal(-7)))
        CFI (cfiCond111) R7 load(1, XDATA, add(CFA_XSP16, literal(-6)))
        CFI (cfiCond111) ?RET_LOW load(1, XDATA, add(CFA_XSP16, literal(-5)))
        CFI (cfiCond111) ?RET_HIGH load(1, XDATA, add(CFA_XSP16, literal(-4)))
        CFI (cfiCond111) ?BRET_EXT load(1, XDATA, add(CFA_XSP16, literal(-3)))
        CFI (cfiCond111) DPL0 load(1, XDATA, add(CFA_XSP16, literal(-2)))
        CFI (cfiCond111) DPH0 load(1, XDATA, add(CFA_XSP16, literal(-1)))
        CFI (cfiCond111) CFA_SP SP+0
        CFI (cfiCond111) CFA_XSP16 add(XSP16, 16)
        CFI Block cfiCond112 Using cfiCommon0
        CFI (cfiCond112) NoFunction
        CFI (cfiCond112) Conditional ??CrossCallReturnLabel_3
        CFI (cfiCond112) R6 load(1, XDATA, add(CFA_XSP16, literal(-15)))
        CFI (cfiCond112) VB load(1, XDATA, add(CFA_XSP16, literal(-14)))
        CFI (cfiCond112) V0 load(1, XDATA, add(CFA_XSP16, literal(-13)))
        CFI (cfiCond112) V1 load(1, XDATA, add(CFA_XSP16, literal(-12)))
        CFI (cfiCond112) V2 load(1, XDATA, add(CFA_XSP16, literal(-11)))
        CFI (cfiCond112) V3 load(1, XDATA, add(CFA_XSP16, literal(-10)))
        CFI (cfiCond112) V4 load(1, XDATA, add(CFA_XSP16, literal(-9)))
        CFI (cfiCond112) V5 load(1, XDATA, add(CFA_XSP16, literal(-8)))
        CFI (cfiCond112) V6 load(1, XDATA, add(CFA_XSP16, literal(-7)))
        CFI (cfiCond112) R7 load(1, XDATA, add(CFA_XSP16, literal(-6)))
        CFI (cfiCond112) ?RET_LOW load(1, XDATA, add(CFA_XSP16, literal(-5)))
        CFI (cfiCond112) ?RET_HIGH load(1, XDATA, add(CFA_XSP16, literal(-4)))
        CFI (cfiCond112) ?BRET_EXT load(1, XDATA, add(CFA_XSP16, literal(-3)))
        CFI (cfiCond112) DPL0 load(1, XDATA, add(CFA_XSP16, literal(-2)))
        CFI (cfiCond112) DPH0 load(1, XDATA, add(CFA_XSP16, literal(-1)))
        CFI (cfiCond112) CFA_SP SP+0
        CFI (cfiCond112) CFA_XSP16 add(XSP16, 16)
        CFI Block cfiCond113 Using cfiCommon0
        CFI (cfiCond113) NoFunction
        CFI (cfiCond113) Conditional ??CrossCallReturnLabel_4
        CFI (cfiCond113) R6 load(1, XDATA, add(CFA_XSP16, literal(-15)))
        CFI (cfiCond113) VB load(1, XDATA, add(CFA_XSP16, literal(-14)))
        CFI (cfiCond113) V0 load(1, XDATA, add(CFA_XSP16, literal(-13)))
        CFI (cfiCond113) V1 load(1, XDATA, add(CFA_XSP16, literal(-12)))
        CFI (cfiCond113) V2 load(1, XDATA, add(CFA_XSP16, literal(-11)))
        CFI (cfiCond113) V3 load(1, XDATA, add(CFA_XSP16, literal(-10)))
        CFI (cfiCond113) V4 load(1, XDATA, add(CFA_XSP16, literal(-9)))
        CFI (cfiCond113) V5 load(1, XDATA, add(CFA_XSP16, literal(-8)))
        CFI (cfiCond113) V6 load(1, XDATA, add(CFA_XSP16, literal(-7)))
        CFI (cfiCond113) R7 load(1, XDATA, add(CFA_XSP16, literal(-6)))
        CFI (cfiCond113) ?RET_LOW load(1, XDATA, add(CFA_XSP16, literal(-5)))
        CFI (cfiCond113) ?RET_HIGH load(1, XDATA, add(CFA_XSP16, literal(-4)))
        CFI (cfiCond113) ?BRET_EXT load(1, XDATA, add(CFA_XSP16, literal(-3)))
        CFI (cfiCond113) DPL0 load(1, XDATA, add(CFA_XSP16, literal(-2)))
        CFI (cfiCond113) DPH0 load(1, XDATA, add(CFA_XSP16, literal(-1)))
        CFI (cfiCond113) CFA_SP SP+0
        CFI (cfiCond113) CFA_XSP16 add(XSP16, 16)
        CFI Block cfiCond114 Using cfiCommon0
        CFI (cfiCond114) NoFunction
        CFI (cfiCond114) Conditional ??CrossCallReturnLabel_0
        CFI (cfiCond114) R6 load(1, XDATA, add(CFA_XSP16, literal(-10)))
        CFI (cfiCond114) VB load(1, XDATA, add(CFA_XSP16, literal(-9)))
        CFI (cfiCond114) V0 load(1, XDATA, add(CFA_XSP16, literal(-8)))
        CFI (cfiCond114) V1 load(1, XDATA, add(CFA_XSP16, literal(-7)))
        CFI (cfiCond114) R7 load(1, XDATA, add(CFA_XSP16, literal(-6)))
        CFI (cfiCond114) ?RET_LOW load(1, XDATA, add(CFA_XSP16, literal(-5)))
        CFI (cfiCond114) ?RET_HIGH load(1, XDATA, add(CFA_XSP16, literal(-4)))
        CFI (cfiCond114) ?BRET_EXT load(1, XDATA, add(CFA_XSP16, literal(-3)))
        CFI (cfiCond114) DPL0 load(1, XDATA, add(CFA_XSP16, literal(-2)))
        CFI (cfiCond114) DPH0 load(1, XDATA, add(CFA_XSP16, literal(-1)))
        CFI (cfiCond114) CFA_SP SP+0
        CFI (cfiCond114) CFA_XSP16 add(XSP16, 10)
        CFI Block cfiPicker115 Using cfiCommon1
        CFI (cfiPicker115) NoFunction
        CFI (cfiPicker115) Picker
        MOV     R2,#0x1
        MOV     R3,#0x1
        LCALL   ??IRecvByte?relay
        MOV     A,R1
        MOV     ?V0 + 1,A
        ; Setup parameters for call to function incode_atox
        ; Setup parameters for call to function incode_atox
        ; Setup parameters for call to function incode_atox
        ; Setup parameters for call to function incode_atox
        ; Setup parameters for call to function incode_atox
        MOV     R4,#0x2
        MOV     R5,#0x0
        MOV     A,R6
        MOV     R2,A
        MOV     A,R7
        MOV     R3,A
        LCALL   ??incode_atox?relay
        MOV     A,R1
        XRL     A,?V0 + 1
        RET
        CFI EndBlock cfiCond110
        CFI EndBlock cfiCond111
        CFI EndBlock cfiCond112
        CFI EndBlock cfiCond113
        CFI EndBlock cfiCond114
        CFI EndBlock cfiPicker115
//  638 
//  639 void InitTimer1(void)
//  640 {
//  641   P1SEL |= 0x02;
//  642   P1DIR |= 0x02;
//  643   PERCFG |= 0x40; //alt2
//  644   CLKCONCMD |= 0x28;  //CLKCONCMD.TICKSPD=110, 1MHz
//  645   /* 设置溢出值 */
//  646   T1CC0H=0x00;
//  647   T1CC0L=0xFF;
//  648   T1CC1H = 0x00;
//  649   T1CC1L = 5;//定时器1通道0捕获/比较值低位
//  650   T1CCTL1 |= 0x1C;//在向上比较清除输出,比较模式 PWM
//  651   //T1CCTL1  = 0x14; // 输出切换 50%占空比
//  652 
//  653   T1CTL    = 0x04 ;//32分频 模模式
//  654   
//  655   T1IE = 0;     //timer1 中断屏蔽
//  656   EA = 1;     //IEN0.EA=1,使能全局中断
//  657 }
//  658 int8 get_led_data(uint8 *data, uint8 *dataLen)
//  659 {
//  660 	if(optData != NULL && optDataLen < LED_DATA_SIZE)
//  661 	{
//  662 		osal_mem_free(optData);
//  663 		optData = NULL;
//  664 	}
//  665 
//  666 	if(optData == NULL)
//  667 	{
//  668 		optData = osal_mem_alloc(LED_DATA_SIZE);
//  669 		optDataLen = LED_DATA_SIZE;
//  670 	}
//  671 
//  672 	osal_memcpy(optData, DEMOBASE_DEVICE_LED, 2);
//  673 	uint8 portVal = P1;
//  674 	incode_xtocs(optData+2, &portVal, 1);
//  675 
//  676 	osal_memcpy(data, optData, optDataLen);
//  677 	*dataLen = optDataLen;
//  678 
//  679 	return 0;
//  680 }
//  681 

        RSEG BANKED_CODE:CODE:NOROOT(0)
//  682 int8 get_plc_data(uint8 *data, uint8 *dataLen)
get_plc_data:
        CFI Block cfiBlock116 Using cfiCommon0
        CFI Function get_plc_data
        CODE
//  683 {
        FUNCALL get_plc_data, osal_mem_free
        LOCFRAME ISTACK, 0, STACK
        LOCFRAME PSTACK, 0, STACK
        LOCFRAME XSTACK, 15, STACK
        LOCFRAME IOVERLAY, 0, STATIC
        LOCFRAME DOVERLAY, 0, STATIC
        ARGFRAME ISTACK, 0, STACK
        ARGFRAME PSTACK, 0, STACK
        ARGFRAME XSTACK, 15, STACK
        ARGFRAME IOVERLAY, 0, STATIC
        ARGFRAME DOVERLAY, 0, STATIC
        FUNCALL get_plc_data, osal_mem_alloc
        LOCFRAME ISTACK, 0, STACK
        LOCFRAME PSTACK, 0, STACK
        LOCFRAME XSTACK, 15, STACK
        LOCFRAME IOVERLAY, 0, STATIC
        LOCFRAME DOVERLAY, 0, STATIC
        ARGFRAME ISTACK, 0, STACK
        ARGFRAME PSTACK, 0, STACK
        ARGFRAME XSTACK, 15, STACK
        ARGFRAME IOVERLAY, 0, STATIC
        ARGFRAME DOVERLAY, 0, STATIC
        FUNCALL get_plc_data, osal_memcpy
        LOCFRAME ISTACK, 0, STACK
        LOCFRAME PSTACK, 0, STACK
        LOCFRAME XSTACK, 18, STACK
        LOCFRAME IOVERLAY, 0, STATIC
        LOCFRAME DOVERLAY, 0, STATIC
        ARGFRAME ISTACK, 0, STACK
        ARGFRAME PSTACK, 0, STACK
        ARGFRAME XSTACK, 18, STACK
        ARGFRAME IOVERLAY, 0, STATIC
        ARGFRAME DOVERLAY, 0, STATIC
        FUNCALL get_plc_data, osal_memcpy
        LOCFRAME ISTACK, 0, STACK
        LOCFRAME PSTACK, 0, STACK
        LOCFRAME XSTACK, 18, STACK
        LOCFRAME IOVERLAY, 0, STATIC
        LOCFRAME DOVERLAY, 0, STATIC
        ARGFRAME ISTACK, 0, STACK
        ARGFRAME PSTACK, 0, STACK
        ARGFRAME XSTACK, 18, STACK
        ARGFRAME IOVERLAY, 0, STATIC
        ARGFRAME DOVERLAY, 0, STATIC
        MOV     A,#-0xf
        LCALL   ?BANKED_ENTER_XDATA
        CFI DPH0 load(1, XDATA, add(CFA_XSP16, literal(-1)))
        CFI DPL0 load(1, XDATA, add(CFA_XSP16, literal(-2)))
        CFI ?BRET_EXT load(1, XDATA, add(CFA_XSP16, literal(-3)))
        CFI ?RET_HIGH load(1, XDATA, add(CFA_XSP16, literal(-4)))
        CFI ?RET_LOW load(1, XDATA, add(CFA_XSP16, literal(-5)))
        CFI R7 load(1, XDATA, add(CFA_XSP16, literal(-6)))
        CFI V6 load(1, XDATA, add(CFA_XSP16, literal(-7)))
        CFI V5 load(1, XDATA, add(CFA_XSP16, literal(-8)))
        CFI V4 load(1, XDATA, add(CFA_XSP16, literal(-9)))
        CFI V3 load(1, XDATA, add(CFA_XSP16, literal(-10)))
        CFI V2 load(1, XDATA, add(CFA_XSP16, literal(-11)))
        CFI V1 load(1, XDATA, add(CFA_XSP16, literal(-12)))
        CFI V0 load(1, XDATA, add(CFA_XSP16, literal(-13)))
        CFI VB load(1, XDATA, add(CFA_XSP16, literal(-14)))
        CFI R6 load(1, XDATA, add(CFA_XSP16, literal(-15)))
        CFI CFA_SP SP+0
        CFI CFA_XSP16 add(XSP16, 15)
        ; Saved register size: 15
        ; Auto size: 0
        LCALL   ?Subroutine12 & 0xFFFF
//  684 	if(optData != NULL && optDataLen < PLC_DATA_SIZE)
??CrossCallReturnLabel_102:
        JZ      ??CrossCallReturnLabel_16
        MOV     DPTR,#optDataLen
        MOVX    A,@DPTR
        CLR     C
        SUBB    A,#0x6
        JNC     ??get_plc_data_0
//  685 	{
//  686 		osal_mem_free(optData);
        ; Setup parameters for call to function osal_mem_free
        LCALL   ?Subroutine10 & 0xFFFF
//  687 		optData = NULL;
//  688 	}
//  689 
//  690 	if(optData == NULL)
//  691 	{
//  692 		optData = osal_mem_alloc(PLC_DATA_SIZE);
??CrossCallReturnLabel_16:
        ; Setup parameters for call to function osal_mem_alloc
        MOV     R2,#0x6
        LCALL   ?Subroutine30 & 0xFFFF
//  693 		optDataLen = PLC_DATA_SIZE;
//  694 	}
??CrossCallReturnLabel_49:
        MOV     A,#0x6
        MOVX    @DPTR,A
//  695 
//  696 	osal_memcpy(optData, DEMOBASE_DEVICE_PLC, 2);
??get_plc_data_0:
        ; Setup parameters for call to function osal_memcpy
        MOV     ?V0 + 4,#`?<Constant "02">` & 0xff
        MOV     ?V0 + 5,#(`?<Constant "02">` >> 8) & 0xff
        MOV     ?V0 + 6,#0x0
        MOV     R0,#?V0 + 4
        LCALL   ?PUSH_XSTACK_I_THREE
        CFI CFA_XSP16 add(XSP16, 18)
        LCALL   ?Subroutine7 & 0xFFFF
??CrossCallReturnLabel_83:
        LCALL   ?DEALLOC_XSTACK8
        CFI CFA_XSP16 add(XSP16, 15)
//  697 
//  698 	if(HAL_STATE_PLCIN1())
        MOV     DPTR,#optData
        MOVX    A,@DPTR
        ADD     A,#0x2
        LCALL   ?Subroutine19 & 0xFFFF
??CrossCallReturnLabel_30:
        JNC     ??get_plc_data_1
//  699 	{
//  700 		optData[2] = '1';
        MOV     A,#0x31
        SJMP    ??get_plc_data_2
//  701 	}
//  702 	else
//  703 	{
//  704 		optData[2] = '0';
??get_plc_data_1:
        MOV     A,#0x30
??get_plc_data_2:
        MOVX    @DPTR,A
//  705 	}
//  706 
//  707 	if(HAL_STATE_PLCIN2())
        MOV     DPTR,#optData
        MOVX    A,@DPTR
        ADD     A,#0x3
        LCALL   ?Subroutine19 & 0xFFFF
??CrossCallReturnLabel_31:
        JNC     ??get_plc_data_3
//  708 	{
//  709 		optData[3] = '1';
        MOV     A,#0x31
        SJMP    ??get_plc_data_4
//  710 	}
//  711 	else
//  712 	{
//  713 		optData[3] = '0';
??get_plc_data_3:
        MOV     A,#0x30
??get_plc_data_4:
        MOVX    @DPTR,A
//  714 	}
//  715 
//  716 	if(HAL_STATE_PLCOUT1())
        MOV     DPTR,#optData
        MOVX    A,@DPTR
        ADD     A,#0x4
        LCALL   ?Subroutine20 & 0xFFFF
??CrossCallReturnLabel_32:
        MOV     C,0x90.4
        JC      ??get_plc_data_5
//  717 	{
//  718 		optData[4] = '1';
        MOV     A,#0x31
        SJMP    ??get_plc_data_6
//  719 	}
//  720 	else
//  721 	{
//  722 		optData[4] = '0';
??get_plc_data_5:
        MOV     A,#0x30
??get_plc_data_6:
        MOVX    @DPTR,A
//  723 	}
//  724 
//  725 	if(HAL_STATE_PLCOUT2())
        MOV     DPTR,#optData
        MOVX    A,@DPTR
        ADD     A,#0x5
        LCALL   ?Subroutine20 & 0xFFFF
??CrossCallReturnLabel_33:
        MOV     C,0x90.5
        JC      ??get_plc_data_7
//  726 	{
//  727 		optData[5] = '1';
        MOV     A,#0x31
        SJMP    ??get_plc_data_8
//  728 	}
//  729 	else
//  730 	{
//  731 		optData[5] = '0';
??get_plc_data_7:
        MOV     A,#0x30
//  732 	}
??get_plc_data_8:
        LCALL   ??Subroutine49_0 & 0xFFFF
//  733 
//  734 	osal_memcpy(data, optData, optDataLen);
??CrossCallReturnLabel_121:
        LCALL   ?PUSH_XSTACK_I_THREE
        CFI CFA_XSP16 add(XSP16, 18)
        MOV     DPTR,#optDataLen
        MOVX    A,@DPTR
        MOV     R4,A
        LCALL   ??Subroutine42_0 & 0xFFFF
??CrossCallReturnLabel_93:
        LCALL   ?DEALLOC_XSTACK8
        CFI CFA_XSP16 add(XSP16, 15)
//  735 	*dataLen = optDataLen;
        MOV     DPTR,#optDataLen
        MOVX    A,@DPTR
        MOV     DPL,?V0 + 0
        MOV     DPH,?V0 + 1
        LJMP    ?Subroutine3 & 0xFFFF
        CFI EndBlock cfiBlock116
        REQUIRE _A_P1
//  736 	
//  737 	return 0;
//  738 }
//  739 

        RSEG BANKED_CODE:CODE:NOROOT(0)
?Subroutine27:
        CFI Block cfiCond117 Using cfiCommon0
        CFI NoFunction
        CFI Conditional ??CrossCallReturnLabel_89
        CFI R6 load(1, XDATA, add(CFA_XSP16, literal(-15)))
        CFI VB load(1, XDATA, add(CFA_XSP16, literal(-14)))
        CFI V0 load(1, XDATA, add(CFA_XSP16, literal(-13)))
        CFI V1 load(1, XDATA, add(CFA_XSP16, literal(-12)))
        CFI V2 load(1, XDATA, add(CFA_XSP16, literal(-11)))
        CFI V3 load(1, XDATA, add(CFA_XSP16, literal(-10)))
        CFI V4 load(1, XDATA, add(CFA_XSP16, literal(-9)))
        CFI V5 load(1, XDATA, add(CFA_XSP16, literal(-8)))
        CFI V6 load(1, XDATA, add(CFA_XSP16, literal(-7)))
        CFI R7 load(1, XDATA, add(CFA_XSP16, literal(-6)))
        CFI ?RET_LOW load(1, XDATA, add(CFA_XSP16, literal(-5)))
        CFI ?RET_HIGH load(1, XDATA, add(CFA_XSP16, literal(-4)))
        CFI ?BRET_EXT load(1, XDATA, add(CFA_XSP16, literal(-3)))
        CFI DPL0 load(1, XDATA, add(CFA_XSP16, literal(-2)))
        CFI DPH0 load(1, XDATA, add(CFA_XSP16, literal(-1)))
        CFI CFA_SP SP+0
        CFI CFA_XSP16 add(XSP16, 18)
        CFI Block cfiCond118 Using cfiCommon0
        CFI (cfiCond118) NoFunction
        CFI (cfiCond118) Conditional ??CrossCallReturnLabel_90
        CFI (cfiCond118) R6 load(1, XDATA, add(CFA_XSP16, literal(-15)))
        CFI (cfiCond118) VB load(1, XDATA, add(CFA_XSP16, literal(-14)))
        CFI (cfiCond118) V0 load(1, XDATA, add(CFA_XSP16, literal(-13)))
        CFI (cfiCond118) V1 load(1, XDATA, add(CFA_XSP16, literal(-12)))
        CFI (cfiCond118) V2 load(1, XDATA, add(CFA_XSP16, literal(-11)))
        CFI (cfiCond118) V3 load(1, XDATA, add(CFA_XSP16, literal(-10)))
        CFI (cfiCond118) V4 load(1, XDATA, add(CFA_XSP16, literal(-9)))
        CFI (cfiCond118) V5 load(1, XDATA, add(CFA_XSP16, literal(-8)))
        CFI (cfiCond118) V6 load(1, XDATA, add(CFA_XSP16, literal(-7)))
        CFI (cfiCond118) R7 load(1, XDATA, add(CFA_XSP16, literal(-6)))
        CFI (cfiCond118) ?RET_LOW load(1, XDATA, add(CFA_XSP16, literal(-5)))
        CFI (cfiCond118) ?RET_HIGH load(1, XDATA, add(CFA_XSP16, literal(-4)))
        CFI (cfiCond118) ?BRET_EXT load(1, XDATA, add(CFA_XSP16, literal(-3)))
        CFI (cfiCond118) DPL0 load(1, XDATA, add(CFA_XSP16, literal(-2)))
        CFI (cfiCond118) DPH0 load(1, XDATA, add(CFA_XSP16, literal(-1)))
        CFI (cfiCond118) CFA_SP SP+0
        CFI (cfiCond118) CFA_XSP16 add(XSP16, 18)
        CFI Block cfiCond119 Using cfiCommon0
        CFI (cfiCond119) NoFunction
        CFI (cfiCond119) Conditional ??CrossCallReturnLabel_91
        CFI (cfiCond119) R6 load(1, XDATA, add(CFA_XSP16, literal(-15)))
        CFI (cfiCond119) VB load(1, XDATA, add(CFA_XSP16, literal(-14)))
        CFI (cfiCond119) V0 load(1, XDATA, add(CFA_XSP16, literal(-13)))
        CFI (cfiCond119) V1 load(1, XDATA, add(CFA_XSP16, literal(-12)))
        CFI (cfiCond119) V2 load(1, XDATA, add(CFA_XSP16, literal(-11)))
        CFI (cfiCond119) V3 load(1, XDATA, add(CFA_XSP16, literal(-10)))
        CFI (cfiCond119) V4 load(1, XDATA, add(CFA_XSP16, literal(-9)))
        CFI (cfiCond119) V5 load(1, XDATA, add(CFA_XSP16, literal(-8)))
        CFI (cfiCond119) V6 load(1, XDATA, add(CFA_XSP16, literal(-7)))
        CFI (cfiCond119) R7 load(1, XDATA, add(CFA_XSP16, literal(-6)))
        CFI (cfiCond119) ?RET_LOW load(1, XDATA, add(CFA_XSP16, literal(-5)))
        CFI (cfiCond119) ?RET_HIGH load(1, XDATA, add(CFA_XSP16, literal(-4)))
        CFI (cfiCond119) ?BRET_EXT load(1, XDATA, add(CFA_XSP16, literal(-3)))
        CFI (cfiCond119) DPL0 load(1, XDATA, add(CFA_XSP16, literal(-2)))
        CFI (cfiCond119) DPH0 load(1, XDATA, add(CFA_XSP16, literal(-1)))
        CFI (cfiCond119) CFA_SP SP+0
        CFI (cfiCond119) CFA_XSP16 add(XSP16, 18)
        CFI Block cfiCond120 Using cfiCommon0
        CFI (cfiCond120) NoFunction
        CFI (cfiCond120) Conditional ??CrossCallReturnLabel_92
        CFI (cfiCond120) R6 load(1, XDATA, add(CFA_XSP16, literal(-15)))
        CFI (cfiCond120) VB load(1, XDATA, add(CFA_XSP16, literal(-14)))
        CFI (cfiCond120) V0 load(1, XDATA, add(CFA_XSP16, literal(-13)))
        CFI (cfiCond120) V1 load(1, XDATA, add(CFA_XSP16, literal(-12)))
        CFI (cfiCond120) V2 load(1, XDATA, add(CFA_XSP16, literal(-11)))
        CFI (cfiCond120) V3 load(1, XDATA, add(CFA_XSP16, literal(-10)))
        CFI (cfiCond120) V4 load(1, XDATA, add(CFA_XSP16, literal(-9)))
        CFI (cfiCond120) V5 load(1, XDATA, add(CFA_XSP16, literal(-8)))
        CFI (cfiCond120) V6 load(1, XDATA, add(CFA_XSP16, literal(-7)))
        CFI (cfiCond120) R7 load(1, XDATA, add(CFA_XSP16, literal(-6)))
        CFI (cfiCond120) ?RET_LOW load(1, XDATA, add(CFA_XSP16, literal(-5)))
        CFI (cfiCond120) ?RET_HIGH load(1, XDATA, add(CFA_XSP16, literal(-4)))
        CFI (cfiCond120) ?BRET_EXT load(1, XDATA, add(CFA_XSP16, literal(-3)))
        CFI (cfiCond120) DPL0 load(1, XDATA, add(CFA_XSP16, literal(-2)))
        CFI (cfiCond120) DPH0 load(1, XDATA, add(CFA_XSP16, literal(-1)))
        CFI (cfiCond120) CFA_SP SP+0
        CFI (cfiCond120) CFA_XSP16 add(XSP16, 18)
        CFI Block cfiPicker121 Using cfiCommon1
        CFI (cfiPicker121) NoFunction
        CFI (cfiPicker121) Picker
        MOV     R4,#0x3
        CFI EndBlock cfiCond117
        CFI EndBlock cfiCond118
        CFI EndBlock cfiCond119
        CFI EndBlock cfiCond120
        CFI EndBlock cfiPicker121
        REQUIRE ??Subroutine42_0
        ; // Fall through to label ??Subroutine42_0

        RSEG BANKED_CODE:CODE:NOROOT(0)
??Subroutine42_0:
        CFI Block cfiCond122 Using cfiCommon0
        CFI NoFunction
        CFI Conditional ??CrossCallReturnLabel_93
        CFI R6 load(1, XDATA, add(CFA_XSP16, literal(-15)))
        CFI VB load(1, XDATA, add(CFA_XSP16, literal(-14)))
        CFI V0 load(1, XDATA, add(CFA_XSP16, literal(-13)))
        CFI V1 load(1, XDATA, add(CFA_XSP16, literal(-12)))
        CFI V2 load(1, XDATA, add(CFA_XSP16, literal(-11)))
        CFI V3 load(1, XDATA, add(CFA_XSP16, literal(-10)))
        CFI V4 load(1, XDATA, add(CFA_XSP16, literal(-9)))
        CFI V5 load(1, XDATA, add(CFA_XSP16, literal(-8)))
        CFI V6 load(1, XDATA, add(CFA_XSP16, literal(-7)))
        CFI R7 load(1, XDATA, add(CFA_XSP16, literal(-6)))
        CFI ?RET_LOW load(1, XDATA, add(CFA_XSP16, literal(-5)))
        CFI ?RET_HIGH load(1, XDATA, add(CFA_XSP16, literal(-4)))
        CFI ?BRET_EXT load(1, XDATA, add(CFA_XSP16, literal(-3)))
        CFI DPL0 load(1, XDATA, add(CFA_XSP16, literal(-2)))
        CFI DPH0 load(1, XDATA, add(CFA_XSP16, literal(-1)))
        CFI CFA_SP SP+0
        CFI CFA_XSP16 add(XSP16, 18)
        CFI Block cfiCond123 Using cfiCommon0
        CFI (cfiCond123) NoFunction
        CFI (cfiCond123) Conditional ??CrossCallReturnLabel_94
        CFI (cfiCond123) R6 load(1, XDATA, add(CFA_XSP16, literal(-15)))
        CFI (cfiCond123) VB load(1, XDATA, add(CFA_XSP16, literal(-14)))
        CFI (cfiCond123) V0 load(1, XDATA, add(CFA_XSP16, literal(-13)))
        CFI (cfiCond123) V1 load(1, XDATA, add(CFA_XSP16, literal(-12)))
        CFI (cfiCond123) V2 load(1, XDATA, add(CFA_XSP16, literal(-11)))
        CFI (cfiCond123) V3 load(1, XDATA, add(CFA_XSP16, literal(-10)))
        CFI (cfiCond123) V4 load(1, XDATA, add(CFA_XSP16, literal(-9)))
        CFI (cfiCond123) V5 load(1, XDATA, add(CFA_XSP16, literal(-8)))
        CFI (cfiCond123) V6 load(1, XDATA, add(CFA_XSP16, literal(-7)))
        CFI (cfiCond123) R7 load(1, XDATA, add(CFA_XSP16, literal(-6)))
        CFI (cfiCond123) ?RET_LOW load(1, XDATA, add(CFA_XSP16, literal(-5)))
        CFI (cfiCond123) ?RET_HIGH load(1, XDATA, add(CFA_XSP16, literal(-4)))
        CFI (cfiCond123) ?BRET_EXT load(1, XDATA, add(CFA_XSP16, literal(-3)))
        CFI (cfiCond123) DPL0 load(1, XDATA, add(CFA_XSP16, literal(-2)))
        CFI (cfiCond123) DPH0 load(1, XDATA, add(CFA_XSP16, literal(-1)))
        CFI (cfiCond123) CFA_SP SP+0
        CFI (cfiCond123) CFA_XSP16 add(XSP16, 18)
        CFI Block cfiCond124 Using cfiCommon0
        CFI (cfiCond124) NoFunction
        CFI (cfiCond124) Conditional ??CrossCallReturnLabel_95
        CFI (cfiCond124) R6 load(1, XDATA, add(CFA_XSP16, literal(-15)))
        CFI (cfiCond124) VB load(1, XDATA, add(CFA_XSP16, literal(-14)))
        CFI (cfiCond124) V0 load(1, XDATA, add(CFA_XSP16, literal(-13)))
        CFI (cfiCond124) V1 load(1, XDATA, add(CFA_XSP16, literal(-12)))
        CFI (cfiCond124) V2 load(1, XDATA, add(CFA_XSP16, literal(-11)))
        CFI (cfiCond124) V3 load(1, XDATA, add(CFA_XSP16, literal(-10)))
        CFI (cfiCond124) V4 load(1, XDATA, add(CFA_XSP16, literal(-9)))
        CFI (cfiCond124) V5 load(1, XDATA, add(CFA_XSP16, literal(-8)))
        CFI (cfiCond124) V6 load(1, XDATA, add(CFA_XSP16, literal(-7)))
        CFI (cfiCond124) R7 load(1, XDATA, add(CFA_XSP16, literal(-6)))
        CFI (cfiCond124) ?RET_LOW load(1, XDATA, add(CFA_XSP16, literal(-5)))
        CFI (cfiCond124) ?RET_HIGH load(1, XDATA, add(CFA_XSP16, literal(-4)))
        CFI (cfiCond124) ?BRET_EXT load(1, XDATA, add(CFA_XSP16, literal(-3)))
        CFI (cfiCond124) DPL0 load(1, XDATA, add(CFA_XSP16, literal(-2)))
        CFI (cfiCond124) DPH0 load(1, XDATA, add(CFA_XSP16, literal(-1)))
        CFI (cfiCond124) CFA_SP SP+0
        CFI (cfiCond124) CFA_XSP16 add(XSP16, 18)
        CFI Block cfiCond125 Using cfiCommon0
        CFI (cfiCond125) NoFunction
        CFI (cfiCond125) Conditional ??CrossCallReturnLabel_96
        CFI (cfiCond125) R6 load(1, XDATA, add(CFA_XSP16, literal(-15)))
        CFI (cfiCond125) VB load(1, XDATA, add(CFA_XSP16, literal(-14)))
        CFI (cfiCond125) V0 load(1, XDATA, add(CFA_XSP16, literal(-13)))
        CFI (cfiCond125) V1 load(1, XDATA, add(CFA_XSP16, literal(-12)))
        CFI (cfiCond125) V2 load(1, XDATA, add(CFA_XSP16, literal(-11)))
        CFI (cfiCond125) V3 load(1, XDATA, add(CFA_XSP16, literal(-10)))
        CFI (cfiCond125) V4 load(1, XDATA, add(CFA_XSP16, literal(-9)))
        CFI (cfiCond125) V5 load(1, XDATA, add(CFA_XSP16, literal(-8)))
        CFI (cfiCond125) V6 load(1, XDATA, add(CFA_XSP16, literal(-7)))
        CFI (cfiCond125) R7 load(1, XDATA, add(CFA_XSP16, literal(-6)))
        CFI (cfiCond125) ?RET_LOW load(1, XDATA, add(CFA_XSP16, literal(-5)))
        CFI (cfiCond125) ?RET_HIGH load(1, XDATA, add(CFA_XSP16, literal(-4)))
        CFI (cfiCond125) ?BRET_EXT load(1, XDATA, add(CFA_XSP16, literal(-3)))
        CFI (cfiCond125) DPL0 load(1, XDATA, add(CFA_XSP16, literal(-2)))
        CFI (cfiCond125) DPH0 load(1, XDATA, add(CFA_XSP16, literal(-1)))
        CFI (cfiCond125) CFA_SP SP+0
        CFI (cfiCond125) CFA_XSP16 add(XSP16, 18)
        CFI Block cfiCond126 Using cfiCommon0
        CFI (cfiCond126) NoFunction
        CFI (cfiCond126) Conditional ??CrossCallReturnLabel_89
        CFI (cfiCond126) R6 load(1, XDATA, add(CFA_XSP16, literal(-15)))
        CFI (cfiCond126) VB load(1, XDATA, add(CFA_XSP16, literal(-14)))
        CFI (cfiCond126) V0 load(1, XDATA, add(CFA_XSP16, literal(-13)))
        CFI (cfiCond126) V1 load(1, XDATA, add(CFA_XSP16, literal(-12)))
        CFI (cfiCond126) V2 load(1, XDATA, add(CFA_XSP16, literal(-11)))
        CFI (cfiCond126) V3 load(1, XDATA, add(CFA_XSP16, literal(-10)))
        CFI (cfiCond126) V4 load(1, XDATA, add(CFA_XSP16, literal(-9)))
        CFI (cfiCond126) V5 load(1, XDATA, add(CFA_XSP16, literal(-8)))
        CFI (cfiCond126) V6 load(1, XDATA, add(CFA_XSP16, literal(-7)))
        CFI (cfiCond126) R7 load(1, XDATA, add(CFA_XSP16, literal(-6)))
        CFI (cfiCond126) ?RET_LOW load(1, XDATA, add(CFA_XSP16, literal(-5)))
        CFI (cfiCond126) ?RET_HIGH load(1, XDATA, add(CFA_XSP16, literal(-4)))
        CFI (cfiCond126) ?BRET_EXT load(1, XDATA, add(CFA_XSP16, literal(-3)))
        CFI (cfiCond126) DPL0 load(1, XDATA, add(CFA_XSP16, literal(-2)))
        CFI (cfiCond126) DPH0 load(1, XDATA, add(CFA_XSP16, literal(-1)))
        CFI (cfiCond126) CFA_SP SP+0
        CFI (cfiCond126) CFA_XSP16 add(XSP16, 18)
        CFI Block cfiCond127 Using cfiCommon0
        CFI (cfiCond127) NoFunction
        CFI (cfiCond127) Conditional ??CrossCallReturnLabel_90
        CFI (cfiCond127) R6 load(1, XDATA, add(CFA_XSP16, literal(-15)))
        CFI (cfiCond127) VB load(1, XDATA, add(CFA_XSP16, literal(-14)))
        CFI (cfiCond127) V0 load(1, XDATA, add(CFA_XSP16, literal(-13)))
        CFI (cfiCond127) V1 load(1, XDATA, add(CFA_XSP16, literal(-12)))
        CFI (cfiCond127) V2 load(1, XDATA, add(CFA_XSP16, literal(-11)))
        CFI (cfiCond127) V3 load(1, XDATA, add(CFA_XSP16, literal(-10)))
        CFI (cfiCond127) V4 load(1, XDATA, add(CFA_XSP16, literal(-9)))
        CFI (cfiCond127) V5 load(1, XDATA, add(CFA_XSP16, literal(-8)))
        CFI (cfiCond127) V6 load(1, XDATA, add(CFA_XSP16, literal(-7)))
        CFI (cfiCond127) R7 load(1, XDATA, add(CFA_XSP16, literal(-6)))
        CFI (cfiCond127) ?RET_LOW load(1, XDATA, add(CFA_XSP16, literal(-5)))
        CFI (cfiCond127) ?RET_HIGH load(1, XDATA, add(CFA_XSP16, literal(-4)))
        CFI (cfiCond127) ?BRET_EXT load(1, XDATA, add(CFA_XSP16, literal(-3)))
        CFI (cfiCond127) DPL0 load(1, XDATA, add(CFA_XSP16, literal(-2)))
        CFI (cfiCond127) DPH0 load(1, XDATA, add(CFA_XSP16, literal(-1)))
        CFI (cfiCond127) CFA_SP SP+0
        CFI (cfiCond127) CFA_XSP16 add(XSP16, 18)
        CFI Block cfiCond128 Using cfiCommon0
        CFI (cfiCond128) NoFunction
        CFI (cfiCond128) Conditional ??CrossCallReturnLabel_91
        CFI (cfiCond128) R6 load(1, XDATA, add(CFA_XSP16, literal(-15)))
        CFI (cfiCond128) VB load(1, XDATA, add(CFA_XSP16, literal(-14)))
        CFI (cfiCond128) V0 load(1, XDATA, add(CFA_XSP16, literal(-13)))
        CFI (cfiCond128) V1 load(1, XDATA, add(CFA_XSP16, literal(-12)))
        CFI (cfiCond128) V2 load(1, XDATA, add(CFA_XSP16, literal(-11)))
        CFI (cfiCond128) V3 load(1, XDATA, add(CFA_XSP16, literal(-10)))
        CFI (cfiCond128) V4 load(1, XDATA, add(CFA_XSP16, literal(-9)))
        CFI (cfiCond128) V5 load(1, XDATA, add(CFA_XSP16, literal(-8)))
        CFI (cfiCond128) V6 load(1, XDATA, add(CFA_XSP16, literal(-7)))
        CFI (cfiCond128) R7 load(1, XDATA, add(CFA_XSP16, literal(-6)))
        CFI (cfiCond128) ?RET_LOW load(1, XDATA, add(CFA_XSP16, literal(-5)))
        CFI (cfiCond128) ?RET_HIGH load(1, XDATA, add(CFA_XSP16, literal(-4)))
        CFI (cfiCond128) ?BRET_EXT load(1, XDATA, add(CFA_XSP16, literal(-3)))
        CFI (cfiCond128) DPL0 load(1, XDATA, add(CFA_XSP16, literal(-2)))
        CFI (cfiCond128) DPH0 load(1, XDATA, add(CFA_XSP16, literal(-1)))
        CFI (cfiCond128) CFA_SP SP+0
        CFI (cfiCond128) CFA_XSP16 add(XSP16, 18)
        CFI Block cfiCond129 Using cfiCommon0
        CFI (cfiCond129) NoFunction
        CFI (cfiCond129) Conditional ??CrossCallReturnLabel_92
        CFI (cfiCond129) R6 load(1, XDATA, add(CFA_XSP16, literal(-15)))
        CFI (cfiCond129) VB load(1, XDATA, add(CFA_XSP16, literal(-14)))
        CFI (cfiCond129) V0 load(1, XDATA, add(CFA_XSP16, literal(-13)))
        CFI (cfiCond129) V1 load(1, XDATA, add(CFA_XSP16, literal(-12)))
        CFI (cfiCond129) V2 load(1, XDATA, add(CFA_XSP16, literal(-11)))
        CFI (cfiCond129) V3 load(1, XDATA, add(CFA_XSP16, literal(-10)))
        CFI (cfiCond129) V4 load(1, XDATA, add(CFA_XSP16, literal(-9)))
        CFI (cfiCond129) V5 load(1, XDATA, add(CFA_XSP16, literal(-8)))
        CFI (cfiCond129) V6 load(1, XDATA, add(CFA_XSP16, literal(-7)))
        CFI (cfiCond129) R7 load(1, XDATA, add(CFA_XSP16, literal(-6)))
        CFI (cfiCond129) ?RET_LOW load(1, XDATA, add(CFA_XSP16, literal(-5)))
        CFI (cfiCond129) ?RET_HIGH load(1, XDATA, add(CFA_XSP16, literal(-4)))
        CFI (cfiCond129) ?BRET_EXT load(1, XDATA, add(CFA_XSP16, literal(-3)))
        CFI (cfiCond129) DPL0 load(1, XDATA, add(CFA_XSP16, literal(-2)))
        CFI (cfiCond129) DPH0 load(1, XDATA, add(CFA_XSP16, literal(-1)))
        CFI (cfiCond129) CFA_SP SP+0
        CFI (cfiCond129) CFA_XSP16 add(XSP16, 18)
        CFI Block cfiPicker130 Using cfiCommon1
        CFI (cfiPicker130) NoFunction
        CFI (cfiPicker130) Picker
        MOV     R5,#0x0
        CFI EndBlock cfiCond122
        CFI EndBlock cfiCond123
        CFI EndBlock cfiCond124
        CFI EndBlock cfiCond125
        CFI EndBlock cfiCond126
        CFI EndBlock cfiCond127
        CFI EndBlock cfiCond128
        CFI EndBlock cfiCond129
        CFI EndBlock cfiPicker130
        REQUIRE ??Subroutine43_0
        ; // Fall through to label ??Subroutine43_0

        RSEG BANKED_CODE:CODE:NOROOT(0)
??Subroutine43_0:
        CFI Block cfiCond131 Using cfiCommon0
        CFI NoFunction
        CFI Conditional ??CrossCallReturnLabel_97
        CFI R6 load(1, XDATA, add(CFA_XSP16, literal(-15)))
        CFI VB load(1, XDATA, add(CFA_XSP16, literal(-14)))
        CFI V0 load(1, XDATA, add(CFA_XSP16, literal(-13)))
        CFI V1 load(1, XDATA, add(CFA_XSP16, literal(-12)))
        CFI V2 load(1, XDATA, add(CFA_XSP16, literal(-11)))
        CFI V3 load(1, XDATA, add(CFA_XSP16, literal(-10)))
        CFI V4 load(1, XDATA, add(CFA_XSP16, literal(-9)))
        CFI V5 load(1, XDATA, add(CFA_XSP16, literal(-8)))
        CFI V6 load(1, XDATA, add(CFA_XSP16, literal(-7)))
        CFI R7 load(1, XDATA, add(CFA_XSP16, literal(-6)))
        CFI ?RET_LOW load(1, XDATA, add(CFA_XSP16, literal(-5)))
        CFI ?RET_HIGH load(1, XDATA, add(CFA_XSP16, literal(-4)))
        CFI ?BRET_EXT load(1, XDATA, add(CFA_XSP16, literal(-3)))
        CFI DPL0 load(1, XDATA, add(CFA_XSP16, literal(-2)))
        CFI DPH0 load(1, XDATA, add(CFA_XSP16, literal(-1)))
        CFI CFA_SP SP+0
        CFI CFA_XSP16 add(XSP16, 18)
        CFI Block cfiCond132 Using cfiCommon0
        CFI (cfiCond132) NoFunction
        CFI (cfiCond132) Conditional ??CrossCallReturnLabel_93
        CFI (cfiCond132) R6 load(1, XDATA, add(CFA_XSP16, literal(-15)))
        CFI (cfiCond132) VB load(1, XDATA, add(CFA_XSP16, literal(-14)))
        CFI (cfiCond132) V0 load(1, XDATA, add(CFA_XSP16, literal(-13)))
        CFI (cfiCond132) V1 load(1, XDATA, add(CFA_XSP16, literal(-12)))
        CFI (cfiCond132) V2 load(1, XDATA, add(CFA_XSP16, literal(-11)))
        CFI (cfiCond132) V3 load(1, XDATA, add(CFA_XSP16, literal(-10)))
        CFI (cfiCond132) V4 load(1, XDATA, add(CFA_XSP16, literal(-9)))
        CFI (cfiCond132) V5 load(1, XDATA, add(CFA_XSP16, literal(-8)))
        CFI (cfiCond132) V6 load(1, XDATA, add(CFA_XSP16, literal(-7)))
        CFI (cfiCond132) R7 load(1, XDATA, add(CFA_XSP16, literal(-6)))
        CFI (cfiCond132) ?RET_LOW load(1, XDATA, add(CFA_XSP16, literal(-5)))
        CFI (cfiCond132) ?RET_HIGH load(1, XDATA, add(CFA_XSP16, literal(-4)))
        CFI (cfiCond132) ?BRET_EXT load(1, XDATA, add(CFA_XSP16, literal(-3)))
        CFI (cfiCond132) DPL0 load(1, XDATA, add(CFA_XSP16, literal(-2)))
        CFI (cfiCond132) DPH0 load(1, XDATA, add(CFA_XSP16, literal(-1)))
        CFI (cfiCond132) CFA_SP SP+0
        CFI (cfiCond132) CFA_XSP16 add(XSP16, 18)
        CFI Block cfiCond133 Using cfiCommon0
        CFI (cfiCond133) NoFunction
        CFI (cfiCond133) Conditional ??CrossCallReturnLabel_94
        CFI (cfiCond133) R6 load(1, XDATA, add(CFA_XSP16, literal(-15)))
        CFI (cfiCond133) VB load(1, XDATA, add(CFA_XSP16, literal(-14)))
        CFI (cfiCond133) V0 load(1, XDATA, add(CFA_XSP16, literal(-13)))
        CFI (cfiCond133) V1 load(1, XDATA, add(CFA_XSP16, literal(-12)))
        CFI (cfiCond133) V2 load(1, XDATA, add(CFA_XSP16, literal(-11)))
        CFI (cfiCond133) V3 load(1, XDATA, add(CFA_XSP16, literal(-10)))
        CFI (cfiCond133) V4 load(1, XDATA, add(CFA_XSP16, literal(-9)))
        CFI (cfiCond133) V5 load(1, XDATA, add(CFA_XSP16, literal(-8)))
        CFI (cfiCond133) V6 load(1, XDATA, add(CFA_XSP16, literal(-7)))
        CFI (cfiCond133) R7 load(1, XDATA, add(CFA_XSP16, literal(-6)))
        CFI (cfiCond133) ?RET_LOW load(1, XDATA, add(CFA_XSP16, literal(-5)))
        CFI (cfiCond133) ?RET_HIGH load(1, XDATA, add(CFA_XSP16, literal(-4)))
        CFI (cfiCond133) ?BRET_EXT load(1, XDATA, add(CFA_XSP16, literal(-3)))
        CFI (cfiCond133) DPL0 load(1, XDATA, add(CFA_XSP16, literal(-2)))
        CFI (cfiCond133) DPH0 load(1, XDATA, add(CFA_XSP16, literal(-1)))
        CFI (cfiCond133) CFA_SP SP+0
        CFI (cfiCond133) CFA_XSP16 add(XSP16, 18)
        CFI Block cfiCond134 Using cfiCommon0
        CFI (cfiCond134) NoFunction
        CFI (cfiCond134) Conditional ??CrossCallReturnLabel_95
        CFI (cfiCond134) R6 load(1, XDATA, add(CFA_XSP16, literal(-15)))
        CFI (cfiCond134) VB load(1, XDATA, add(CFA_XSP16, literal(-14)))
        CFI (cfiCond134) V0 load(1, XDATA, add(CFA_XSP16, literal(-13)))
        CFI (cfiCond134) V1 load(1, XDATA, add(CFA_XSP16, literal(-12)))
        CFI (cfiCond134) V2 load(1, XDATA, add(CFA_XSP16, literal(-11)))
        CFI (cfiCond134) V3 load(1, XDATA, add(CFA_XSP16, literal(-10)))
        CFI (cfiCond134) V4 load(1, XDATA, add(CFA_XSP16, literal(-9)))
        CFI (cfiCond134) V5 load(1, XDATA, add(CFA_XSP16, literal(-8)))
        CFI (cfiCond134) V6 load(1, XDATA, add(CFA_XSP16, literal(-7)))
        CFI (cfiCond134) R7 load(1, XDATA, add(CFA_XSP16, literal(-6)))
        CFI (cfiCond134) ?RET_LOW load(1, XDATA, add(CFA_XSP16, literal(-5)))
        CFI (cfiCond134) ?RET_HIGH load(1, XDATA, add(CFA_XSP16, literal(-4)))
        CFI (cfiCond134) ?BRET_EXT load(1, XDATA, add(CFA_XSP16, literal(-3)))
        CFI (cfiCond134) DPL0 load(1, XDATA, add(CFA_XSP16, literal(-2)))
        CFI (cfiCond134) DPH0 load(1, XDATA, add(CFA_XSP16, literal(-1)))
        CFI (cfiCond134) CFA_SP SP+0
        CFI (cfiCond134) CFA_XSP16 add(XSP16, 18)
        CFI Block cfiCond135 Using cfiCommon0
        CFI (cfiCond135) NoFunction
        CFI (cfiCond135) Conditional ??CrossCallReturnLabel_96
        CFI (cfiCond135) R6 load(1, XDATA, add(CFA_XSP16, literal(-15)))
        CFI (cfiCond135) VB load(1, XDATA, add(CFA_XSP16, literal(-14)))
        CFI (cfiCond135) V0 load(1, XDATA, add(CFA_XSP16, literal(-13)))
        CFI (cfiCond135) V1 load(1, XDATA, add(CFA_XSP16, literal(-12)))
        CFI (cfiCond135) V2 load(1, XDATA, add(CFA_XSP16, literal(-11)))
        CFI (cfiCond135) V3 load(1, XDATA, add(CFA_XSP16, literal(-10)))
        CFI (cfiCond135) V4 load(1, XDATA, add(CFA_XSP16, literal(-9)))
        CFI (cfiCond135) V5 load(1, XDATA, add(CFA_XSP16, literal(-8)))
        CFI (cfiCond135) V6 load(1, XDATA, add(CFA_XSP16, literal(-7)))
        CFI (cfiCond135) R7 load(1, XDATA, add(CFA_XSP16, literal(-6)))
        CFI (cfiCond135) ?RET_LOW load(1, XDATA, add(CFA_XSP16, literal(-5)))
        CFI (cfiCond135) ?RET_HIGH load(1, XDATA, add(CFA_XSP16, literal(-4)))
        CFI (cfiCond135) ?BRET_EXT load(1, XDATA, add(CFA_XSP16, literal(-3)))
        CFI (cfiCond135) DPL0 load(1, XDATA, add(CFA_XSP16, literal(-2)))
        CFI (cfiCond135) DPH0 load(1, XDATA, add(CFA_XSP16, literal(-1)))
        CFI (cfiCond135) CFA_SP SP+0
        CFI (cfiCond135) CFA_XSP16 add(XSP16, 18)
        CFI Block cfiCond136 Using cfiCommon0
        CFI (cfiCond136) NoFunction
        CFI (cfiCond136) Conditional ??CrossCallReturnLabel_89
        CFI (cfiCond136) R6 load(1, XDATA, add(CFA_XSP16, literal(-15)))
        CFI (cfiCond136) VB load(1, XDATA, add(CFA_XSP16, literal(-14)))
        CFI (cfiCond136) V0 load(1, XDATA, add(CFA_XSP16, literal(-13)))
        CFI (cfiCond136) V1 load(1, XDATA, add(CFA_XSP16, literal(-12)))
        CFI (cfiCond136) V2 load(1, XDATA, add(CFA_XSP16, literal(-11)))
        CFI (cfiCond136) V3 load(1, XDATA, add(CFA_XSP16, literal(-10)))
        CFI (cfiCond136) V4 load(1, XDATA, add(CFA_XSP16, literal(-9)))
        CFI (cfiCond136) V5 load(1, XDATA, add(CFA_XSP16, literal(-8)))
        CFI (cfiCond136) V6 load(1, XDATA, add(CFA_XSP16, literal(-7)))
        CFI (cfiCond136) R7 load(1, XDATA, add(CFA_XSP16, literal(-6)))
        CFI (cfiCond136) ?RET_LOW load(1, XDATA, add(CFA_XSP16, literal(-5)))
        CFI (cfiCond136) ?RET_HIGH load(1, XDATA, add(CFA_XSP16, literal(-4)))
        CFI (cfiCond136) ?BRET_EXT load(1, XDATA, add(CFA_XSP16, literal(-3)))
        CFI (cfiCond136) DPL0 load(1, XDATA, add(CFA_XSP16, literal(-2)))
        CFI (cfiCond136) DPH0 load(1, XDATA, add(CFA_XSP16, literal(-1)))
        CFI (cfiCond136) CFA_SP SP+0
        CFI (cfiCond136) CFA_XSP16 add(XSP16, 18)
        CFI Block cfiCond137 Using cfiCommon0
        CFI (cfiCond137) NoFunction
        CFI (cfiCond137) Conditional ??CrossCallReturnLabel_90
        CFI (cfiCond137) R6 load(1, XDATA, add(CFA_XSP16, literal(-15)))
        CFI (cfiCond137) VB load(1, XDATA, add(CFA_XSP16, literal(-14)))
        CFI (cfiCond137) V0 load(1, XDATA, add(CFA_XSP16, literal(-13)))
        CFI (cfiCond137) V1 load(1, XDATA, add(CFA_XSP16, literal(-12)))
        CFI (cfiCond137) V2 load(1, XDATA, add(CFA_XSP16, literal(-11)))
        CFI (cfiCond137) V3 load(1, XDATA, add(CFA_XSP16, literal(-10)))
        CFI (cfiCond137) V4 load(1, XDATA, add(CFA_XSP16, literal(-9)))
        CFI (cfiCond137) V5 load(1, XDATA, add(CFA_XSP16, literal(-8)))
        CFI (cfiCond137) V6 load(1, XDATA, add(CFA_XSP16, literal(-7)))
        CFI (cfiCond137) R7 load(1, XDATA, add(CFA_XSP16, literal(-6)))
        CFI (cfiCond137) ?RET_LOW load(1, XDATA, add(CFA_XSP16, literal(-5)))
        CFI (cfiCond137) ?RET_HIGH load(1, XDATA, add(CFA_XSP16, literal(-4)))
        CFI (cfiCond137) ?BRET_EXT load(1, XDATA, add(CFA_XSP16, literal(-3)))
        CFI (cfiCond137) DPL0 load(1, XDATA, add(CFA_XSP16, literal(-2)))
        CFI (cfiCond137) DPH0 load(1, XDATA, add(CFA_XSP16, literal(-1)))
        CFI (cfiCond137) CFA_SP SP+0
        CFI (cfiCond137) CFA_XSP16 add(XSP16, 18)
        CFI Block cfiCond138 Using cfiCommon0
        CFI (cfiCond138) NoFunction
        CFI (cfiCond138) Conditional ??CrossCallReturnLabel_91
        CFI (cfiCond138) R6 load(1, XDATA, add(CFA_XSP16, literal(-15)))
        CFI (cfiCond138) VB load(1, XDATA, add(CFA_XSP16, literal(-14)))
        CFI (cfiCond138) V0 load(1, XDATA, add(CFA_XSP16, literal(-13)))
        CFI (cfiCond138) V1 load(1, XDATA, add(CFA_XSP16, literal(-12)))
        CFI (cfiCond138) V2 load(1, XDATA, add(CFA_XSP16, literal(-11)))
        CFI (cfiCond138) V3 load(1, XDATA, add(CFA_XSP16, literal(-10)))
        CFI (cfiCond138) V4 load(1, XDATA, add(CFA_XSP16, literal(-9)))
        CFI (cfiCond138) V5 load(1, XDATA, add(CFA_XSP16, literal(-8)))
        CFI (cfiCond138) V6 load(1, XDATA, add(CFA_XSP16, literal(-7)))
        CFI (cfiCond138) R7 load(1, XDATA, add(CFA_XSP16, literal(-6)))
        CFI (cfiCond138) ?RET_LOW load(1, XDATA, add(CFA_XSP16, literal(-5)))
        CFI (cfiCond138) ?RET_HIGH load(1, XDATA, add(CFA_XSP16, literal(-4)))
        CFI (cfiCond138) ?BRET_EXT load(1, XDATA, add(CFA_XSP16, literal(-3)))
        CFI (cfiCond138) DPL0 load(1, XDATA, add(CFA_XSP16, literal(-2)))
        CFI (cfiCond138) DPH0 load(1, XDATA, add(CFA_XSP16, literal(-1)))
        CFI (cfiCond138) CFA_SP SP+0
        CFI (cfiCond138) CFA_XSP16 add(XSP16, 18)
        CFI Block cfiCond139 Using cfiCommon0
        CFI (cfiCond139) NoFunction
        CFI (cfiCond139) Conditional ??CrossCallReturnLabel_92
        CFI (cfiCond139) R6 load(1, XDATA, add(CFA_XSP16, literal(-15)))
        CFI (cfiCond139) VB load(1, XDATA, add(CFA_XSP16, literal(-14)))
        CFI (cfiCond139) V0 load(1, XDATA, add(CFA_XSP16, literal(-13)))
        CFI (cfiCond139) V1 load(1, XDATA, add(CFA_XSP16, literal(-12)))
        CFI (cfiCond139) V2 load(1, XDATA, add(CFA_XSP16, literal(-11)))
        CFI (cfiCond139) V3 load(1, XDATA, add(CFA_XSP16, literal(-10)))
        CFI (cfiCond139) V4 load(1, XDATA, add(CFA_XSP16, literal(-9)))
        CFI (cfiCond139) V5 load(1, XDATA, add(CFA_XSP16, literal(-8)))
        CFI (cfiCond139) V6 load(1, XDATA, add(CFA_XSP16, literal(-7)))
        CFI (cfiCond139) R7 load(1, XDATA, add(CFA_XSP16, literal(-6)))
        CFI (cfiCond139) ?RET_LOW load(1, XDATA, add(CFA_XSP16, literal(-5)))
        CFI (cfiCond139) ?RET_HIGH load(1, XDATA, add(CFA_XSP16, literal(-4)))
        CFI (cfiCond139) ?BRET_EXT load(1, XDATA, add(CFA_XSP16, literal(-3)))
        CFI (cfiCond139) DPL0 load(1, XDATA, add(CFA_XSP16, literal(-2)))
        CFI (cfiCond139) DPH0 load(1, XDATA, add(CFA_XSP16, literal(-1)))
        CFI (cfiCond139) CFA_SP SP+0
        CFI (cfiCond139) CFA_XSP16 add(XSP16, 18)
        CFI Block cfiPicker140 Using cfiCommon1
        CFI (cfiPicker140) NoFunction
        CFI (cfiPicker140) Picker
        MOV     A,R6
        MOV     R2,A
        MOV     A,R7
        CFI EndBlock cfiCond131
        CFI EndBlock cfiCond132
        CFI EndBlock cfiCond133
        CFI EndBlock cfiCond134
        CFI EndBlock cfiCond135
        CFI EndBlock cfiCond136
        CFI EndBlock cfiCond137
        CFI EndBlock cfiCond138
        CFI EndBlock cfiCond139
        CFI EndBlock cfiPicker140
        REQUIRE ??Subroutine44_0
        ; // Fall through to label ??Subroutine44_0

        RSEG BANKED_CODE:CODE:NOROOT(0)
??Subroutine44_0:
        CFI Block cfiCond141 Using cfiCommon0
        CFI NoFunction
        CFI Conditional ??CrossCallReturnLabel_98
        CFI R6 load(1, XDATA, add(CFA_XSP16, literal(-15)))
        CFI VB load(1, XDATA, add(CFA_XSP16, literal(-14)))
        CFI V0 load(1, XDATA, add(CFA_XSP16, literal(-13)))
        CFI V1 load(1, XDATA, add(CFA_XSP16, literal(-12)))
        CFI V2 load(1, XDATA, add(CFA_XSP16, literal(-11)))
        CFI V3 load(1, XDATA, add(CFA_XSP16, literal(-10)))
        CFI V4 load(1, XDATA, add(CFA_XSP16, literal(-9)))
        CFI V5 load(1, XDATA, add(CFA_XSP16, literal(-8)))
        CFI V6 load(1, XDATA, add(CFA_XSP16, literal(-7)))
        CFI R7 load(1, XDATA, add(CFA_XSP16, literal(-6)))
        CFI ?RET_LOW load(1, XDATA, add(CFA_XSP16, literal(-5)))
        CFI ?RET_HIGH load(1, XDATA, add(CFA_XSP16, literal(-4)))
        CFI ?BRET_EXT load(1, XDATA, add(CFA_XSP16, literal(-3)))
        CFI DPL0 load(1, XDATA, add(CFA_XSP16, literal(-2)))
        CFI DPH0 load(1, XDATA, add(CFA_XSP16, literal(-1)))
        CFI CFA_SP SP+0
        CFI CFA_XSP16 add(XSP16, 19)
        CFI Block cfiCond142 Using cfiCommon0
        CFI (cfiCond142) NoFunction
        CFI (cfiCond142) Conditional ??CrossCallReturnLabel_97
        CFI (cfiCond142) R6 load(1, XDATA, add(CFA_XSP16, literal(-15)))
        CFI (cfiCond142) VB load(1, XDATA, add(CFA_XSP16, literal(-14)))
        CFI (cfiCond142) V0 load(1, XDATA, add(CFA_XSP16, literal(-13)))
        CFI (cfiCond142) V1 load(1, XDATA, add(CFA_XSP16, literal(-12)))
        CFI (cfiCond142) V2 load(1, XDATA, add(CFA_XSP16, literal(-11)))
        CFI (cfiCond142) V3 load(1, XDATA, add(CFA_XSP16, literal(-10)))
        CFI (cfiCond142) V4 load(1, XDATA, add(CFA_XSP16, literal(-9)))
        CFI (cfiCond142) V5 load(1, XDATA, add(CFA_XSP16, literal(-8)))
        CFI (cfiCond142) V6 load(1, XDATA, add(CFA_XSP16, literal(-7)))
        CFI (cfiCond142) R7 load(1, XDATA, add(CFA_XSP16, literal(-6)))
        CFI (cfiCond142) ?RET_LOW load(1, XDATA, add(CFA_XSP16, literal(-5)))
        CFI (cfiCond142) ?RET_HIGH load(1, XDATA, add(CFA_XSP16, literal(-4)))
        CFI (cfiCond142) ?BRET_EXT load(1, XDATA, add(CFA_XSP16, literal(-3)))
        CFI (cfiCond142) DPL0 load(1, XDATA, add(CFA_XSP16, literal(-2)))
        CFI (cfiCond142) DPH0 load(1, XDATA, add(CFA_XSP16, literal(-1)))
        CFI (cfiCond142) CFA_SP SP+0
        CFI (cfiCond142) CFA_XSP16 add(XSP16, 18)
        CFI Block cfiCond143 Using cfiCommon0
        CFI (cfiCond143) NoFunction
        CFI (cfiCond143) Conditional ??CrossCallReturnLabel_93
        CFI (cfiCond143) R6 load(1, XDATA, add(CFA_XSP16, literal(-15)))
        CFI (cfiCond143) VB load(1, XDATA, add(CFA_XSP16, literal(-14)))
        CFI (cfiCond143) V0 load(1, XDATA, add(CFA_XSP16, literal(-13)))
        CFI (cfiCond143) V1 load(1, XDATA, add(CFA_XSP16, literal(-12)))
        CFI (cfiCond143) V2 load(1, XDATA, add(CFA_XSP16, literal(-11)))
        CFI (cfiCond143) V3 load(1, XDATA, add(CFA_XSP16, literal(-10)))
        CFI (cfiCond143) V4 load(1, XDATA, add(CFA_XSP16, literal(-9)))
        CFI (cfiCond143) V5 load(1, XDATA, add(CFA_XSP16, literal(-8)))
        CFI (cfiCond143) V6 load(1, XDATA, add(CFA_XSP16, literal(-7)))
        CFI (cfiCond143) R7 load(1, XDATA, add(CFA_XSP16, literal(-6)))
        CFI (cfiCond143) ?RET_LOW load(1, XDATA, add(CFA_XSP16, literal(-5)))
        CFI (cfiCond143) ?RET_HIGH load(1, XDATA, add(CFA_XSP16, literal(-4)))
        CFI (cfiCond143) ?BRET_EXT load(1, XDATA, add(CFA_XSP16, literal(-3)))
        CFI (cfiCond143) DPL0 load(1, XDATA, add(CFA_XSP16, literal(-2)))
        CFI (cfiCond143) DPH0 load(1, XDATA, add(CFA_XSP16, literal(-1)))
        CFI (cfiCond143) CFA_SP SP+0
        CFI (cfiCond143) CFA_XSP16 add(XSP16, 18)
        CFI Block cfiCond144 Using cfiCommon0
        CFI (cfiCond144) NoFunction
        CFI (cfiCond144) Conditional ??CrossCallReturnLabel_94
        CFI (cfiCond144) R6 load(1, XDATA, add(CFA_XSP16, literal(-15)))
        CFI (cfiCond144) VB load(1, XDATA, add(CFA_XSP16, literal(-14)))
        CFI (cfiCond144) V0 load(1, XDATA, add(CFA_XSP16, literal(-13)))
        CFI (cfiCond144) V1 load(1, XDATA, add(CFA_XSP16, literal(-12)))
        CFI (cfiCond144) V2 load(1, XDATA, add(CFA_XSP16, literal(-11)))
        CFI (cfiCond144) V3 load(1, XDATA, add(CFA_XSP16, literal(-10)))
        CFI (cfiCond144) V4 load(1, XDATA, add(CFA_XSP16, literal(-9)))
        CFI (cfiCond144) V5 load(1, XDATA, add(CFA_XSP16, literal(-8)))
        CFI (cfiCond144) V6 load(1, XDATA, add(CFA_XSP16, literal(-7)))
        CFI (cfiCond144) R7 load(1, XDATA, add(CFA_XSP16, literal(-6)))
        CFI (cfiCond144) ?RET_LOW load(1, XDATA, add(CFA_XSP16, literal(-5)))
        CFI (cfiCond144) ?RET_HIGH load(1, XDATA, add(CFA_XSP16, literal(-4)))
        CFI (cfiCond144) ?BRET_EXT load(1, XDATA, add(CFA_XSP16, literal(-3)))
        CFI (cfiCond144) DPL0 load(1, XDATA, add(CFA_XSP16, literal(-2)))
        CFI (cfiCond144) DPH0 load(1, XDATA, add(CFA_XSP16, literal(-1)))
        CFI (cfiCond144) CFA_SP SP+0
        CFI (cfiCond144) CFA_XSP16 add(XSP16, 18)
        CFI Block cfiCond145 Using cfiCommon0
        CFI (cfiCond145) NoFunction
        CFI (cfiCond145) Conditional ??CrossCallReturnLabel_95
        CFI (cfiCond145) R6 load(1, XDATA, add(CFA_XSP16, literal(-15)))
        CFI (cfiCond145) VB load(1, XDATA, add(CFA_XSP16, literal(-14)))
        CFI (cfiCond145) V0 load(1, XDATA, add(CFA_XSP16, literal(-13)))
        CFI (cfiCond145) V1 load(1, XDATA, add(CFA_XSP16, literal(-12)))
        CFI (cfiCond145) V2 load(1, XDATA, add(CFA_XSP16, literal(-11)))
        CFI (cfiCond145) V3 load(1, XDATA, add(CFA_XSP16, literal(-10)))
        CFI (cfiCond145) V4 load(1, XDATA, add(CFA_XSP16, literal(-9)))
        CFI (cfiCond145) V5 load(1, XDATA, add(CFA_XSP16, literal(-8)))
        CFI (cfiCond145) V6 load(1, XDATA, add(CFA_XSP16, literal(-7)))
        CFI (cfiCond145) R7 load(1, XDATA, add(CFA_XSP16, literal(-6)))
        CFI (cfiCond145) ?RET_LOW load(1, XDATA, add(CFA_XSP16, literal(-5)))
        CFI (cfiCond145) ?RET_HIGH load(1, XDATA, add(CFA_XSP16, literal(-4)))
        CFI (cfiCond145) ?BRET_EXT load(1, XDATA, add(CFA_XSP16, literal(-3)))
        CFI (cfiCond145) DPL0 load(1, XDATA, add(CFA_XSP16, literal(-2)))
        CFI (cfiCond145) DPH0 load(1, XDATA, add(CFA_XSP16, literal(-1)))
        CFI (cfiCond145) CFA_SP SP+0
        CFI (cfiCond145) CFA_XSP16 add(XSP16, 18)
        CFI Block cfiCond146 Using cfiCommon0
        CFI (cfiCond146) NoFunction
        CFI (cfiCond146) Conditional ??CrossCallReturnLabel_96
        CFI (cfiCond146) R6 load(1, XDATA, add(CFA_XSP16, literal(-15)))
        CFI (cfiCond146) VB load(1, XDATA, add(CFA_XSP16, literal(-14)))
        CFI (cfiCond146) V0 load(1, XDATA, add(CFA_XSP16, literal(-13)))
        CFI (cfiCond146) V1 load(1, XDATA, add(CFA_XSP16, literal(-12)))
        CFI (cfiCond146) V2 load(1, XDATA, add(CFA_XSP16, literal(-11)))
        CFI (cfiCond146) V3 load(1, XDATA, add(CFA_XSP16, literal(-10)))
        CFI (cfiCond146) V4 load(1, XDATA, add(CFA_XSP16, literal(-9)))
        CFI (cfiCond146) V5 load(1, XDATA, add(CFA_XSP16, literal(-8)))
        CFI (cfiCond146) V6 load(1, XDATA, add(CFA_XSP16, literal(-7)))
        CFI (cfiCond146) R7 load(1, XDATA, add(CFA_XSP16, literal(-6)))
        CFI (cfiCond146) ?RET_LOW load(1, XDATA, add(CFA_XSP16, literal(-5)))
        CFI (cfiCond146) ?RET_HIGH load(1, XDATA, add(CFA_XSP16, literal(-4)))
        CFI (cfiCond146) ?BRET_EXT load(1, XDATA, add(CFA_XSP16, literal(-3)))
        CFI (cfiCond146) DPL0 load(1, XDATA, add(CFA_XSP16, literal(-2)))
        CFI (cfiCond146) DPH0 load(1, XDATA, add(CFA_XSP16, literal(-1)))
        CFI (cfiCond146) CFA_SP SP+0
        CFI (cfiCond146) CFA_XSP16 add(XSP16, 18)
        CFI Block cfiCond147 Using cfiCommon0
        CFI (cfiCond147) NoFunction
        CFI (cfiCond147) Conditional ??CrossCallReturnLabel_89
        CFI (cfiCond147) R6 load(1, XDATA, add(CFA_XSP16, literal(-15)))
        CFI (cfiCond147) VB load(1, XDATA, add(CFA_XSP16, literal(-14)))
        CFI (cfiCond147) V0 load(1, XDATA, add(CFA_XSP16, literal(-13)))
        CFI (cfiCond147) V1 load(1, XDATA, add(CFA_XSP16, literal(-12)))
        CFI (cfiCond147) V2 load(1, XDATA, add(CFA_XSP16, literal(-11)))
        CFI (cfiCond147) V3 load(1, XDATA, add(CFA_XSP16, literal(-10)))
        CFI (cfiCond147) V4 load(1, XDATA, add(CFA_XSP16, literal(-9)))
        CFI (cfiCond147) V5 load(1, XDATA, add(CFA_XSP16, literal(-8)))
        CFI (cfiCond147) V6 load(1, XDATA, add(CFA_XSP16, literal(-7)))
        CFI (cfiCond147) R7 load(1, XDATA, add(CFA_XSP16, literal(-6)))
        CFI (cfiCond147) ?RET_LOW load(1, XDATA, add(CFA_XSP16, literal(-5)))
        CFI (cfiCond147) ?RET_HIGH load(1, XDATA, add(CFA_XSP16, literal(-4)))
        CFI (cfiCond147) ?BRET_EXT load(1, XDATA, add(CFA_XSP16, literal(-3)))
        CFI (cfiCond147) DPL0 load(1, XDATA, add(CFA_XSP16, literal(-2)))
        CFI (cfiCond147) DPH0 load(1, XDATA, add(CFA_XSP16, literal(-1)))
        CFI (cfiCond147) CFA_SP SP+0
        CFI (cfiCond147) CFA_XSP16 add(XSP16, 18)
        CFI Block cfiCond148 Using cfiCommon0
        CFI (cfiCond148) NoFunction
        CFI (cfiCond148) Conditional ??CrossCallReturnLabel_90
        CFI (cfiCond148) R6 load(1, XDATA, add(CFA_XSP16, literal(-15)))
        CFI (cfiCond148) VB load(1, XDATA, add(CFA_XSP16, literal(-14)))
        CFI (cfiCond148) V0 load(1, XDATA, add(CFA_XSP16, literal(-13)))
        CFI (cfiCond148) V1 load(1, XDATA, add(CFA_XSP16, literal(-12)))
        CFI (cfiCond148) V2 load(1, XDATA, add(CFA_XSP16, literal(-11)))
        CFI (cfiCond148) V3 load(1, XDATA, add(CFA_XSP16, literal(-10)))
        CFI (cfiCond148) V4 load(1, XDATA, add(CFA_XSP16, literal(-9)))
        CFI (cfiCond148) V5 load(1, XDATA, add(CFA_XSP16, literal(-8)))
        CFI (cfiCond148) V6 load(1, XDATA, add(CFA_XSP16, literal(-7)))
        CFI (cfiCond148) R7 load(1, XDATA, add(CFA_XSP16, literal(-6)))
        CFI (cfiCond148) ?RET_LOW load(1, XDATA, add(CFA_XSP16, literal(-5)))
        CFI (cfiCond148) ?RET_HIGH load(1, XDATA, add(CFA_XSP16, literal(-4)))
        CFI (cfiCond148) ?BRET_EXT load(1, XDATA, add(CFA_XSP16, literal(-3)))
        CFI (cfiCond148) DPL0 load(1, XDATA, add(CFA_XSP16, literal(-2)))
        CFI (cfiCond148) DPH0 load(1, XDATA, add(CFA_XSP16, literal(-1)))
        CFI (cfiCond148) CFA_SP SP+0
        CFI (cfiCond148) CFA_XSP16 add(XSP16, 18)
        CFI Block cfiCond149 Using cfiCommon0
        CFI (cfiCond149) NoFunction
        CFI (cfiCond149) Conditional ??CrossCallReturnLabel_91
        CFI (cfiCond149) R6 load(1, XDATA, add(CFA_XSP16, literal(-15)))
        CFI (cfiCond149) VB load(1, XDATA, add(CFA_XSP16, literal(-14)))
        CFI (cfiCond149) V0 load(1, XDATA, add(CFA_XSP16, literal(-13)))
        CFI (cfiCond149) V1 load(1, XDATA, add(CFA_XSP16, literal(-12)))
        CFI (cfiCond149) V2 load(1, XDATA, add(CFA_XSP16, literal(-11)))
        CFI (cfiCond149) V3 load(1, XDATA, add(CFA_XSP16, literal(-10)))
        CFI (cfiCond149) V4 load(1, XDATA, add(CFA_XSP16, literal(-9)))
        CFI (cfiCond149) V5 load(1, XDATA, add(CFA_XSP16, literal(-8)))
        CFI (cfiCond149) V6 load(1, XDATA, add(CFA_XSP16, literal(-7)))
        CFI (cfiCond149) R7 load(1, XDATA, add(CFA_XSP16, literal(-6)))
        CFI (cfiCond149) ?RET_LOW load(1, XDATA, add(CFA_XSP16, literal(-5)))
        CFI (cfiCond149) ?RET_HIGH load(1, XDATA, add(CFA_XSP16, literal(-4)))
        CFI (cfiCond149) ?BRET_EXT load(1, XDATA, add(CFA_XSP16, literal(-3)))
        CFI (cfiCond149) DPL0 load(1, XDATA, add(CFA_XSP16, literal(-2)))
        CFI (cfiCond149) DPH0 load(1, XDATA, add(CFA_XSP16, literal(-1)))
        CFI (cfiCond149) CFA_SP SP+0
        CFI (cfiCond149) CFA_XSP16 add(XSP16, 18)
        CFI Block cfiCond150 Using cfiCommon0
        CFI (cfiCond150) NoFunction
        CFI (cfiCond150) Conditional ??CrossCallReturnLabel_92
        CFI (cfiCond150) R6 load(1, XDATA, add(CFA_XSP16, literal(-15)))
        CFI (cfiCond150) VB load(1, XDATA, add(CFA_XSP16, literal(-14)))
        CFI (cfiCond150) V0 load(1, XDATA, add(CFA_XSP16, literal(-13)))
        CFI (cfiCond150) V1 load(1, XDATA, add(CFA_XSP16, literal(-12)))
        CFI (cfiCond150) V2 load(1, XDATA, add(CFA_XSP16, literal(-11)))
        CFI (cfiCond150) V3 load(1, XDATA, add(CFA_XSP16, literal(-10)))
        CFI (cfiCond150) V4 load(1, XDATA, add(CFA_XSP16, literal(-9)))
        CFI (cfiCond150) V5 load(1, XDATA, add(CFA_XSP16, literal(-8)))
        CFI (cfiCond150) V6 load(1, XDATA, add(CFA_XSP16, literal(-7)))
        CFI (cfiCond150) R7 load(1, XDATA, add(CFA_XSP16, literal(-6)))
        CFI (cfiCond150) ?RET_LOW load(1, XDATA, add(CFA_XSP16, literal(-5)))
        CFI (cfiCond150) ?RET_HIGH load(1, XDATA, add(CFA_XSP16, literal(-4)))
        CFI (cfiCond150) ?BRET_EXT load(1, XDATA, add(CFA_XSP16, literal(-3)))
        CFI (cfiCond150) DPL0 load(1, XDATA, add(CFA_XSP16, literal(-2)))
        CFI (cfiCond150) DPH0 load(1, XDATA, add(CFA_XSP16, literal(-1)))
        CFI (cfiCond150) CFA_SP SP+0
        CFI (cfiCond150) CFA_XSP16 add(XSP16, 18)
        CFI Block cfiPicker151 Using cfiCommon1
        CFI (cfiPicker151) NoFunction
        CFI (cfiPicker151) Picker
        MOV     R3,A
        CFI EndBlock cfiCond141
        CFI EndBlock cfiCond142
        CFI EndBlock cfiCond143
        CFI EndBlock cfiCond144
        CFI EndBlock cfiCond145
        CFI EndBlock cfiCond146
        CFI EndBlock cfiCond147
        CFI EndBlock cfiCond148
        CFI EndBlock cfiCond149
        CFI EndBlock cfiCond150
        CFI EndBlock cfiPicker151
        REQUIRE ??Subroutine45_0
        ; // Fall through to label ??Subroutine45_0

        RSEG BANKED_CODE:CODE:NOROOT(0)
??Subroutine45_0:
        CFI Block cfiCond152 Using cfiCommon0
        CFI NoFunction
        CFI Conditional ??CrossCallReturnLabel_99
        CFI R6 load(1, XDATA, add(CFA_XSP16, literal(-15)))
        CFI VB load(1, XDATA, add(CFA_XSP16, literal(-14)))
        CFI V0 load(1, XDATA, add(CFA_XSP16, literal(-13)))
        CFI V1 load(1, XDATA, add(CFA_XSP16, literal(-12)))
        CFI V2 load(1, XDATA, add(CFA_XSP16, literal(-11)))
        CFI V3 load(1, XDATA, add(CFA_XSP16, literal(-10)))
        CFI V4 load(1, XDATA, add(CFA_XSP16, literal(-9)))
        CFI V5 load(1, XDATA, add(CFA_XSP16, literal(-8)))
        CFI V6 load(1, XDATA, add(CFA_XSP16, literal(-7)))
        CFI R7 load(1, XDATA, add(CFA_XSP16, literal(-6)))
        CFI ?RET_LOW load(1, XDATA, add(CFA_XSP16, literal(-5)))
        CFI ?RET_HIGH load(1, XDATA, add(CFA_XSP16, literal(-4)))
        CFI ?BRET_EXT load(1, XDATA, add(CFA_XSP16, literal(-3)))
        CFI DPL0 load(1, XDATA, add(CFA_XSP16, literal(-2)))
        CFI DPH0 load(1, XDATA, add(CFA_XSP16, literal(-1)))
        CFI CFA_SP SP+0
        CFI CFA_XSP16 add(XSP16, 19)
        CFI Block cfiCond153 Using cfiCommon0
        CFI (cfiCond153) NoFunction
        CFI (cfiCond153) Conditional ??CrossCallReturnLabel_100
        CFI (cfiCond153) R6 load(1, XDATA, add(CFA_XSP16, literal(-15)))
        CFI (cfiCond153) VB load(1, XDATA, add(CFA_XSP16, literal(-14)))
        CFI (cfiCond153) V0 load(1, XDATA, add(CFA_XSP16, literal(-13)))
        CFI (cfiCond153) V1 load(1, XDATA, add(CFA_XSP16, literal(-12)))
        CFI (cfiCond153) V2 load(1, XDATA, add(CFA_XSP16, literal(-11)))
        CFI (cfiCond153) V3 load(1, XDATA, add(CFA_XSP16, literal(-10)))
        CFI (cfiCond153) V4 load(1, XDATA, add(CFA_XSP16, literal(-9)))
        CFI (cfiCond153) V5 load(1, XDATA, add(CFA_XSP16, literal(-8)))
        CFI (cfiCond153) V6 load(1, XDATA, add(CFA_XSP16, literal(-7)))
        CFI (cfiCond153) R7 load(1, XDATA, add(CFA_XSP16, literal(-6)))
        CFI (cfiCond153) ?RET_LOW load(1, XDATA, add(CFA_XSP16, literal(-5)))
        CFI (cfiCond153) ?RET_HIGH load(1, XDATA, add(CFA_XSP16, literal(-4)))
        CFI (cfiCond153) ?BRET_EXT load(1, XDATA, add(CFA_XSP16, literal(-3)))
        CFI (cfiCond153) DPL0 load(1, XDATA, add(CFA_XSP16, literal(-2)))
        CFI (cfiCond153) DPH0 load(1, XDATA, add(CFA_XSP16, literal(-1)))
        CFI (cfiCond153) CFA_SP SP+0
        CFI (cfiCond153) CFA_XSP16 add(XSP16, 19)
        CFI Block cfiCond154 Using cfiCommon0
        CFI (cfiCond154) NoFunction
        CFI (cfiCond154) Conditional ??CrossCallReturnLabel_101
        CFI (cfiCond154) R6 load(1, XDATA, add(CFA_XSP16, literal(-15)))
        CFI (cfiCond154) VB load(1, XDATA, add(CFA_XSP16, literal(-14)))
        CFI (cfiCond154) V0 load(1, XDATA, add(CFA_XSP16, literal(-13)))
        CFI (cfiCond154) V1 load(1, XDATA, add(CFA_XSP16, literal(-12)))
        CFI (cfiCond154) V2 load(1, XDATA, add(CFA_XSP16, literal(-11)))
        CFI (cfiCond154) V3 load(1, XDATA, add(CFA_XSP16, literal(-10)))
        CFI (cfiCond154) V4 load(1, XDATA, add(CFA_XSP16, literal(-9)))
        CFI (cfiCond154) V5 load(1, XDATA, add(CFA_XSP16, literal(-8)))
        CFI (cfiCond154) V6 load(1, XDATA, add(CFA_XSP16, literal(-7)))
        CFI (cfiCond154) R7 load(1, XDATA, add(CFA_XSP16, literal(-6)))
        CFI (cfiCond154) ?RET_LOW load(1, XDATA, add(CFA_XSP16, literal(-5)))
        CFI (cfiCond154) ?RET_HIGH load(1, XDATA, add(CFA_XSP16, literal(-4)))
        CFI (cfiCond154) ?BRET_EXT load(1, XDATA, add(CFA_XSP16, literal(-3)))
        CFI (cfiCond154) DPL0 load(1, XDATA, add(CFA_XSP16, literal(-2)))
        CFI (cfiCond154) DPH0 load(1, XDATA, add(CFA_XSP16, literal(-1)))
        CFI (cfiCond154) CFA_SP SP+0
        CFI (cfiCond154) CFA_XSP16 add(XSP16, 19)
        CFI Block cfiCond155 Using cfiCommon0
        CFI (cfiCond155) NoFunction
        CFI (cfiCond155) Conditional ??CrossCallReturnLabel_98
        CFI (cfiCond155) R6 load(1, XDATA, add(CFA_XSP16, literal(-15)))
        CFI (cfiCond155) VB load(1, XDATA, add(CFA_XSP16, literal(-14)))
        CFI (cfiCond155) V0 load(1, XDATA, add(CFA_XSP16, literal(-13)))
        CFI (cfiCond155) V1 load(1, XDATA, add(CFA_XSP16, literal(-12)))
        CFI (cfiCond155) V2 load(1, XDATA, add(CFA_XSP16, literal(-11)))
        CFI (cfiCond155) V3 load(1, XDATA, add(CFA_XSP16, literal(-10)))
        CFI (cfiCond155) V4 load(1, XDATA, add(CFA_XSP16, literal(-9)))
        CFI (cfiCond155) V5 load(1, XDATA, add(CFA_XSP16, literal(-8)))
        CFI (cfiCond155) V6 load(1, XDATA, add(CFA_XSP16, literal(-7)))
        CFI (cfiCond155) R7 load(1, XDATA, add(CFA_XSP16, literal(-6)))
        CFI (cfiCond155) ?RET_LOW load(1, XDATA, add(CFA_XSP16, literal(-5)))
        CFI (cfiCond155) ?RET_HIGH load(1, XDATA, add(CFA_XSP16, literal(-4)))
        CFI (cfiCond155) ?BRET_EXT load(1, XDATA, add(CFA_XSP16, literal(-3)))
        CFI (cfiCond155) DPL0 load(1, XDATA, add(CFA_XSP16, literal(-2)))
        CFI (cfiCond155) DPH0 load(1, XDATA, add(CFA_XSP16, literal(-1)))
        CFI (cfiCond155) CFA_SP SP+0
        CFI (cfiCond155) CFA_XSP16 add(XSP16, 19)
        CFI Block cfiCond156 Using cfiCommon0
        CFI (cfiCond156) NoFunction
        CFI (cfiCond156) Conditional ??CrossCallReturnLabel_97
        CFI (cfiCond156) R6 load(1, XDATA, add(CFA_XSP16, literal(-15)))
        CFI (cfiCond156) VB load(1, XDATA, add(CFA_XSP16, literal(-14)))
        CFI (cfiCond156) V0 load(1, XDATA, add(CFA_XSP16, literal(-13)))
        CFI (cfiCond156) V1 load(1, XDATA, add(CFA_XSP16, literal(-12)))
        CFI (cfiCond156) V2 load(1, XDATA, add(CFA_XSP16, literal(-11)))
        CFI (cfiCond156) V3 load(1, XDATA, add(CFA_XSP16, literal(-10)))
        CFI (cfiCond156) V4 load(1, XDATA, add(CFA_XSP16, literal(-9)))
        CFI (cfiCond156) V5 load(1, XDATA, add(CFA_XSP16, literal(-8)))
        CFI (cfiCond156) V6 load(1, XDATA, add(CFA_XSP16, literal(-7)))
        CFI (cfiCond156) R7 load(1, XDATA, add(CFA_XSP16, literal(-6)))
        CFI (cfiCond156) ?RET_LOW load(1, XDATA, add(CFA_XSP16, literal(-5)))
        CFI (cfiCond156) ?RET_HIGH load(1, XDATA, add(CFA_XSP16, literal(-4)))
        CFI (cfiCond156) ?BRET_EXT load(1, XDATA, add(CFA_XSP16, literal(-3)))
        CFI (cfiCond156) DPL0 load(1, XDATA, add(CFA_XSP16, literal(-2)))
        CFI (cfiCond156) DPH0 load(1, XDATA, add(CFA_XSP16, literal(-1)))
        CFI (cfiCond156) CFA_SP SP+0
        CFI (cfiCond156) CFA_XSP16 add(XSP16, 18)
        CFI Block cfiCond157 Using cfiCommon0
        CFI (cfiCond157) NoFunction
        CFI (cfiCond157) Conditional ??CrossCallReturnLabel_93
        CFI (cfiCond157) R6 load(1, XDATA, add(CFA_XSP16, literal(-15)))
        CFI (cfiCond157) VB load(1, XDATA, add(CFA_XSP16, literal(-14)))
        CFI (cfiCond157) V0 load(1, XDATA, add(CFA_XSP16, literal(-13)))
        CFI (cfiCond157) V1 load(1, XDATA, add(CFA_XSP16, literal(-12)))
        CFI (cfiCond157) V2 load(1, XDATA, add(CFA_XSP16, literal(-11)))
        CFI (cfiCond157) V3 load(1, XDATA, add(CFA_XSP16, literal(-10)))
        CFI (cfiCond157) V4 load(1, XDATA, add(CFA_XSP16, literal(-9)))
        CFI (cfiCond157) V5 load(1, XDATA, add(CFA_XSP16, literal(-8)))
        CFI (cfiCond157) V6 load(1, XDATA, add(CFA_XSP16, literal(-7)))
        CFI (cfiCond157) R7 load(1, XDATA, add(CFA_XSP16, literal(-6)))
        CFI (cfiCond157) ?RET_LOW load(1, XDATA, add(CFA_XSP16, literal(-5)))
        CFI (cfiCond157) ?RET_HIGH load(1, XDATA, add(CFA_XSP16, literal(-4)))
        CFI (cfiCond157) ?BRET_EXT load(1, XDATA, add(CFA_XSP16, literal(-3)))
        CFI (cfiCond157) DPL0 load(1, XDATA, add(CFA_XSP16, literal(-2)))
        CFI (cfiCond157) DPH0 load(1, XDATA, add(CFA_XSP16, literal(-1)))
        CFI (cfiCond157) CFA_SP SP+0
        CFI (cfiCond157) CFA_XSP16 add(XSP16, 18)
        CFI Block cfiCond158 Using cfiCommon0
        CFI (cfiCond158) NoFunction
        CFI (cfiCond158) Conditional ??CrossCallReturnLabel_94
        CFI (cfiCond158) R6 load(1, XDATA, add(CFA_XSP16, literal(-15)))
        CFI (cfiCond158) VB load(1, XDATA, add(CFA_XSP16, literal(-14)))
        CFI (cfiCond158) V0 load(1, XDATA, add(CFA_XSP16, literal(-13)))
        CFI (cfiCond158) V1 load(1, XDATA, add(CFA_XSP16, literal(-12)))
        CFI (cfiCond158) V2 load(1, XDATA, add(CFA_XSP16, literal(-11)))
        CFI (cfiCond158) V3 load(1, XDATA, add(CFA_XSP16, literal(-10)))
        CFI (cfiCond158) V4 load(1, XDATA, add(CFA_XSP16, literal(-9)))
        CFI (cfiCond158) V5 load(1, XDATA, add(CFA_XSP16, literal(-8)))
        CFI (cfiCond158) V6 load(1, XDATA, add(CFA_XSP16, literal(-7)))
        CFI (cfiCond158) R7 load(1, XDATA, add(CFA_XSP16, literal(-6)))
        CFI (cfiCond158) ?RET_LOW load(1, XDATA, add(CFA_XSP16, literal(-5)))
        CFI (cfiCond158) ?RET_HIGH load(1, XDATA, add(CFA_XSP16, literal(-4)))
        CFI (cfiCond158) ?BRET_EXT load(1, XDATA, add(CFA_XSP16, literal(-3)))
        CFI (cfiCond158) DPL0 load(1, XDATA, add(CFA_XSP16, literal(-2)))
        CFI (cfiCond158) DPH0 load(1, XDATA, add(CFA_XSP16, literal(-1)))
        CFI (cfiCond158) CFA_SP SP+0
        CFI (cfiCond158) CFA_XSP16 add(XSP16, 18)
        CFI Block cfiCond159 Using cfiCommon0
        CFI (cfiCond159) NoFunction
        CFI (cfiCond159) Conditional ??CrossCallReturnLabel_95
        CFI (cfiCond159) R6 load(1, XDATA, add(CFA_XSP16, literal(-15)))
        CFI (cfiCond159) VB load(1, XDATA, add(CFA_XSP16, literal(-14)))
        CFI (cfiCond159) V0 load(1, XDATA, add(CFA_XSP16, literal(-13)))
        CFI (cfiCond159) V1 load(1, XDATA, add(CFA_XSP16, literal(-12)))
        CFI (cfiCond159) V2 load(1, XDATA, add(CFA_XSP16, literal(-11)))
        CFI (cfiCond159) V3 load(1, XDATA, add(CFA_XSP16, literal(-10)))
        CFI (cfiCond159) V4 load(1, XDATA, add(CFA_XSP16, literal(-9)))
        CFI (cfiCond159) V5 load(1, XDATA, add(CFA_XSP16, literal(-8)))
        CFI (cfiCond159) V6 load(1, XDATA, add(CFA_XSP16, literal(-7)))
        CFI (cfiCond159) R7 load(1, XDATA, add(CFA_XSP16, literal(-6)))
        CFI (cfiCond159) ?RET_LOW load(1, XDATA, add(CFA_XSP16, literal(-5)))
        CFI (cfiCond159) ?RET_HIGH load(1, XDATA, add(CFA_XSP16, literal(-4)))
        CFI (cfiCond159) ?BRET_EXT load(1, XDATA, add(CFA_XSP16, literal(-3)))
        CFI (cfiCond159) DPL0 load(1, XDATA, add(CFA_XSP16, literal(-2)))
        CFI (cfiCond159) DPH0 load(1, XDATA, add(CFA_XSP16, literal(-1)))
        CFI (cfiCond159) CFA_SP SP+0
        CFI (cfiCond159) CFA_XSP16 add(XSP16, 18)
        CFI Block cfiCond160 Using cfiCommon0
        CFI (cfiCond160) NoFunction
        CFI (cfiCond160) Conditional ??CrossCallReturnLabel_96
        CFI (cfiCond160) R6 load(1, XDATA, add(CFA_XSP16, literal(-15)))
        CFI (cfiCond160) VB load(1, XDATA, add(CFA_XSP16, literal(-14)))
        CFI (cfiCond160) V0 load(1, XDATA, add(CFA_XSP16, literal(-13)))
        CFI (cfiCond160) V1 load(1, XDATA, add(CFA_XSP16, literal(-12)))
        CFI (cfiCond160) V2 load(1, XDATA, add(CFA_XSP16, literal(-11)))
        CFI (cfiCond160) V3 load(1, XDATA, add(CFA_XSP16, literal(-10)))
        CFI (cfiCond160) V4 load(1, XDATA, add(CFA_XSP16, literal(-9)))
        CFI (cfiCond160) V5 load(1, XDATA, add(CFA_XSP16, literal(-8)))
        CFI (cfiCond160) V6 load(1, XDATA, add(CFA_XSP16, literal(-7)))
        CFI (cfiCond160) R7 load(1, XDATA, add(CFA_XSP16, literal(-6)))
        CFI (cfiCond160) ?RET_LOW load(1, XDATA, add(CFA_XSP16, literal(-5)))
        CFI (cfiCond160) ?RET_HIGH load(1, XDATA, add(CFA_XSP16, literal(-4)))
        CFI (cfiCond160) ?BRET_EXT load(1, XDATA, add(CFA_XSP16, literal(-3)))
        CFI (cfiCond160) DPL0 load(1, XDATA, add(CFA_XSP16, literal(-2)))
        CFI (cfiCond160) DPH0 load(1, XDATA, add(CFA_XSP16, literal(-1)))
        CFI (cfiCond160) CFA_SP SP+0
        CFI (cfiCond160) CFA_XSP16 add(XSP16, 18)
        CFI Block cfiCond161 Using cfiCommon0
        CFI (cfiCond161) NoFunction
        CFI (cfiCond161) Conditional ??CrossCallReturnLabel_89
        CFI (cfiCond161) R6 load(1, XDATA, add(CFA_XSP16, literal(-15)))
        CFI (cfiCond161) VB load(1, XDATA, add(CFA_XSP16, literal(-14)))
        CFI (cfiCond161) V0 load(1, XDATA, add(CFA_XSP16, literal(-13)))
        CFI (cfiCond161) V1 load(1, XDATA, add(CFA_XSP16, literal(-12)))
        CFI (cfiCond161) V2 load(1, XDATA, add(CFA_XSP16, literal(-11)))
        CFI (cfiCond161) V3 load(1, XDATA, add(CFA_XSP16, literal(-10)))
        CFI (cfiCond161) V4 load(1, XDATA, add(CFA_XSP16, literal(-9)))
        CFI (cfiCond161) V5 load(1, XDATA, add(CFA_XSP16, literal(-8)))
        CFI (cfiCond161) V6 load(1, XDATA, add(CFA_XSP16, literal(-7)))
        CFI (cfiCond161) R7 load(1, XDATA, add(CFA_XSP16, literal(-6)))
        CFI (cfiCond161) ?RET_LOW load(1, XDATA, add(CFA_XSP16, literal(-5)))
        CFI (cfiCond161) ?RET_HIGH load(1, XDATA, add(CFA_XSP16, literal(-4)))
        CFI (cfiCond161) ?BRET_EXT load(1, XDATA, add(CFA_XSP16, literal(-3)))
        CFI (cfiCond161) DPL0 load(1, XDATA, add(CFA_XSP16, literal(-2)))
        CFI (cfiCond161) DPH0 load(1, XDATA, add(CFA_XSP16, literal(-1)))
        CFI (cfiCond161) CFA_SP SP+0
        CFI (cfiCond161) CFA_XSP16 add(XSP16, 18)
        CFI Block cfiCond162 Using cfiCommon0
        CFI (cfiCond162) NoFunction
        CFI (cfiCond162) Conditional ??CrossCallReturnLabel_90
        CFI (cfiCond162) R6 load(1, XDATA, add(CFA_XSP16, literal(-15)))
        CFI (cfiCond162) VB load(1, XDATA, add(CFA_XSP16, literal(-14)))
        CFI (cfiCond162) V0 load(1, XDATA, add(CFA_XSP16, literal(-13)))
        CFI (cfiCond162) V1 load(1, XDATA, add(CFA_XSP16, literal(-12)))
        CFI (cfiCond162) V2 load(1, XDATA, add(CFA_XSP16, literal(-11)))
        CFI (cfiCond162) V3 load(1, XDATA, add(CFA_XSP16, literal(-10)))
        CFI (cfiCond162) V4 load(1, XDATA, add(CFA_XSP16, literal(-9)))
        CFI (cfiCond162) V5 load(1, XDATA, add(CFA_XSP16, literal(-8)))
        CFI (cfiCond162) V6 load(1, XDATA, add(CFA_XSP16, literal(-7)))
        CFI (cfiCond162) R7 load(1, XDATA, add(CFA_XSP16, literal(-6)))
        CFI (cfiCond162) ?RET_LOW load(1, XDATA, add(CFA_XSP16, literal(-5)))
        CFI (cfiCond162) ?RET_HIGH load(1, XDATA, add(CFA_XSP16, literal(-4)))
        CFI (cfiCond162) ?BRET_EXT load(1, XDATA, add(CFA_XSP16, literal(-3)))
        CFI (cfiCond162) DPL0 load(1, XDATA, add(CFA_XSP16, literal(-2)))
        CFI (cfiCond162) DPH0 load(1, XDATA, add(CFA_XSP16, literal(-1)))
        CFI (cfiCond162) CFA_SP SP+0
        CFI (cfiCond162) CFA_XSP16 add(XSP16, 18)
        CFI Block cfiCond163 Using cfiCommon0
        CFI (cfiCond163) NoFunction
        CFI (cfiCond163) Conditional ??CrossCallReturnLabel_91
        CFI (cfiCond163) R6 load(1, XDATA, add(CFA_XSP16, literal(-15)))
        CFI (cfiCond163) VB load(1, XDATA, add(CFA_XSP16, literal(-14)))
        CFI (cfiCond163) V0 load(1, XDATA, add(CFA_XSP16, literal(-13)))
        CFI (cfiCond163) V1 load(1, XDATA, add(CFA_XSP16, literal(-12)))
        CFI (cfiCond163) V2 load(1, XDATA, add(CFA_XSP16, literal(-11)))
        CFI (cfiCond163) V3 load(1, XDATA, add(CFA_XSP16, literal(-10)))
        CFI (cfiCond163) V4 load(1, XDATA, add(CFA_XSP16, literal(-9)))
        CFI (cfiCond163) V5 load(1, XDATA, add(CFA_XSP16, literal(-8)))
        CFI (cfiCond163) V6 load(1, XDATA, add(CFA_XSP16, literal(-7)))
        CFI (cfiCond163) R7 load(1, XDATA, add(CFA_XSP16, literal(-6)))
        CFI (cfiCond163) ?RET_LOW load(1, XDATA, add(CFA_XSP16, literal(-5)))
        CFI (cfiCond163) ?RET_HIGH load(1, XDATA, add(CFA_XSP16, literal(-4)))
        CFI (cfiCond163) ?BRET_EXT load(1, XDATA, add(CFA_XSP16, literal(-3)))
        CFI (cfiCond163) DPL0 load(1, XDATA, add(CFA_XSP16, literal(-2)))
        CFI (cfiCond163) DPH0 load(1, XDATA, add(CFA_XSP16, literal(-1)))
        CFI (cfiCond163) CFA_SP SP+0
        CFI (cfiCond163) CFA_XSP16 add(XSP16, 18)
        CFI Block cfiCond164 Using cfiCommon0
        CFI (cfiCond164) NoFunction
        CFI (cfiCond164) Conditional ??CrossCallReturnLabel_92
        CFI (cfiCond164) R6 load(1, XDATA, add(CFA_XSP16, literal(-15)))
        CFI (cfiCond164) VB load(1, XDATA, add(CFA_XSP16, literal(-14)))
        CFI (cfiCond164) V0 load(1, XDATA, add(CFA_XSP16, literal(-13)))
        CFI (cfiCond164) V1 load(1, XDATA, add(CFA_XSP16, literal(-12)))
        CFI (cfiCond164) V2 load(1, XDATA, add(CFA_XSP16, literal(-11)))
        CFI (cfiCond164) V3 load(1, XDATA, add(CFA_XSP16, literal(-10)))
        CFI (cfiCond164) V4 load(1, XDATA, add(CFA_XSP16, literal(-9)))
        CFI (cfiCond164) V5 load(1, XDATA, add(CFA_XSP16, literal(-8)))
        CFI (cfiCond164) V6 load(1, XDATA, add(CFA_XSP16, literal(-7)))
        CFI (cfiCond164) R7 load(1, XDATA, add(CFA_XSP16, literal(-6)))
        CFI (cfiCond164) ?RET_LOW load(1, XDATA, add(CFA_XSP16, literal(-5)))
        CFI (cfiCond164) ?RET_HIGH load(1, XDATA, add(CFA_XSP16, literal(-4)))
        CFI (cfiCond164) ?BRET_EXT load(1, XDATA, add(CFA_XSP16, literal(-3)))
        CFI (cfiCond164) DPL0 load(1, XDATA, add(CFA_XSP16, literal(-2)))
        CFI (cfiCond164) DPH0 load(1, XDATA, add(CFA_XSP16, literal(-1)))
        CFI (cfiCond164) CFA_SP SP+0
        CFI (cfiCond164) CFA_XSP16 add(XSP16, 18)
        CFI Block cfiPicker165 Using cfiCommon1
        CFI (cfiPicker165) NoFunction
        CFI (cfiPicker165) Picker
        LCALL   ??osal_memcpy?relay
        MOV     A,#0x3
        RET
        CFI EndBlock cfiCond152
        CFI EndBlock cfiCond153
        CFI EndBlock cfiCond154
        CFI EndBlock cfiCond155
        CFI EndBlock cfiCond156
        CFI EndBlock cfiCond157
        CFI EndBlock cfiCond158
        CFI EndBlock cfiCond159
        CFI EndBlock cfiCond160
        CFI EndBlock cfiCond161
        CFI EndBlock cfiCond162
        CFI EndBlock cfiCond163
        CFI EndBlock cfiCond164
        CFI EndBlock cfiPicker165

        RSEG BANKED_CODE:CODE:NOROOT(0)
?Subroutine20:
        CFI Block cfiCond166 Using cfiCommon0
        CFI NoFunction
        CFI Conditional ??CrossCallReturnLabel_32
        CFI R6 load(1, XDATA, add(CFA_XSP16, literal(-15)))
        CFI VB load(1, XDATA, add(CFA_XSP16, literal(-14)))
        CFI V0 load(1, XDATA, add(CFA_XSP16, literal(-13)))
        CFI V1 load(1, XDATA, add(CFA_XSP16, literal(-12)))
        CFI V2 load(1, XDATA, add(CFA_XSP16, literal(-11)))
        CFI V3 load(1, XDATA, add(CFA_XSP16, literal(-10)))
        CFI V4 load(1, XDATA, add(CFA_XSP16, literal(-9)))
        CFI V5 load(1, XDATA, add(CFA_XSP16, literal(-8)))
        CFI V6 load(1, XDATA, add(CFA_XSP16, literal(-7)))
        CFI R7 load(1, XDATA, add(CFA_XSP16, literal(-6)))
        CFI ?RET_LOW load(1, XDATA, add(CFA_XSP16, literal(-5)))
        CFI ?RET_HIGH load(1, XDATA, add(CFA_XSP16, literal(-4)))
        CFI ?BRET_EXT load(1, XDATA, add(CFA_XSP16, literal(-3)))
        CFI DPL0 load(1, XDATA, add(CFA_XSP16, literal(-2)))
        CFI DPH0 load(1, XDATA, add(CFA_XSP16, literal(-1)))
        CFI CFA_SP SP+0
        CFI CFA_XSP16 add(XSP16, 15)
        CFI Block cfiCond167 Using cfiCommon0
        CFI (cfiCond167) NoFunction
        CFI (cfiCond167) Conditional ??CrossCallReturnLabel_33
        CFI (cfiCond167) R6 load(1, XDATA, add(CFA_XSP16, literal(-15)))
        CFI (cfiCond167) VB load(1, XDATA, add(CFA_XSP16, literal(-14)))
        CFI (cfiCond167) V0 load(1, XDATA, add(CFA_XSP16, literal(-13)))
        CFI (cfiCond167) V1 load(1, XDATA, add(CFA_XSP16, literal(-12)))
        CFI (cfiCond167) V2 load(1, XDATA, add(CFA_XSP16, literal(-11)))
        CFI (cfiCond167) V3 load(1, XDATA, add(CFA_XSP16, literal(-10)))
        CFI (cfiCond167) V4 load(1, XDATA, add(CFA_XSP16, literal(-9)))
        CFI (cfiCond167) V5 load(1, XDATA, add(CFA_XSP16, literal(-8)))
        CFI (cfiCond167) V6 load(1, XDATA, add(CFA_XSP16, literal(-7)))
        CFI (cfiCond167) R7 load(1, XDATA, add(CFA_XSP16, literal(-6)))
        CFI (cfiCond167) ?RET_LOW load(1, XDATA, add(CFA_XSP16, literal(-5)))
        CFI (cfiCond167) ?RET_HIGH load(1, XDATA, add(CFA_XSP16, literal(-4)))
        CFI (cfiCond167) ?BRET_EXT load(1, XDATA, add(CFA_XSP16, literal(-3)))
        CFI (cfiCond167) DPL0 load(1, XDATA, add(CFA_XSP16, literal(-2)))
        CFI (cfiCond167) DPH0 load(1, XDATA, add(CFA_XSP16, literal(-1)))
        CFI (cfiCond167) CFA_SP SP+0
        CFI (cfiCond167) CFA_XSP16 add(XSP16, 15)
        CFI Block cfiPicker168 Using cfiCommon1
        CFI (cfiPicker168) NoFunction
        CFI (cfiPicker168) Picker
        LCALL   ?Subroutine34 & 0xFFFF
??CrossCallReturnLabel_58:
        RET
        CFI EndBlock cfiCond166
        CFI EndBlock cfiCond167
        CFI EndBlock cfiPicker168

        RSEG BANKED_CODE:CODE:NOROOT(0)
?Subroutine34:
        CFI Block cfiCond169 Using cfiCommon0
        CFI NoFunction
        CFI Conditional ??CrossCallReturnLabel_58, ??CrossCallReturnLabel_32
        CFI R6 load(1, XDATA, add(CFA_XSP16, literal(-15)))
        CFI VB load(1, XDATA, add(CFA_XSP16, literal(-14)))
        CFI V0 load(1, XDATA, add(CFA_XSP16, literal(-13)))
        CFI V1 load(1, XDATA, add(CFA_XSP16, literal(-12)))
        CFI V2 load(1, XDATA, add(CFA_XSP16, literal(-11)))
        CFI V3 load(1, XDATA, add(CFA_XSP16, literal(-10)))
        CFI V4 load(1, XDATA, add(CFA_XSP16, literal(-9)))
        CFI V5 load(1, XDATA, add(CFA_XSP16, literal(-8)))
        CFI V6 load(1, XDATA, add(CFA_XSP16, literal(-7)))
        CFI R7 load(1, XDATA, add(CFA_XSP16, literal(-6)))
        CFI ?RET_LOW load(1, XDATA, add(CFA_XSP16, literal(-5)))
        CFI ?RET_HIGH load(1, XDATA, add(CFA_XSP16, literal(-4)))
        CFI ?BRET_EXT load(1, XDATA, add(CFA_XSP16, literal(-3)))
        CFI DPL0 load(1, XDATA, add(CFA_XSP16, literal(-2)))
        CFI DPH0 load(1, XDATA, add(CFA_XSP16, literal(-1)))
        CFI CFA_SP SP+0
        CFI CFA_XSP16 add(XSP16, 15)
        CFI Block cfiCond170 Using cfiCommon0
        CFI (cfiCond170) NoFunction
        CFI (cfiCond170) Conditional ??CrossCallReturnLabel_58, ??CrossCallReturnLabel_33
        CFI (cfiCond170) R6 load(1, XDATA, add(CFA_XSP16, literal(-15)))
        CFI (cfiCond170) VB load(1, XDATA, add(CFA_XSP16, literal(-14)))
        CFI (cfiCond170) V0 load(1, XDATA, add(CFA_XSP16, literal(-13)))
        CFI (cfiCond170) V1 load(1, XDATA, add(CFA_XSP16, literal(-12)))
        CFI (cfiCond170) V2 load(1, XDATA, add(CFA_XSP16, literal(-11)))
        CFI (cfiCond170) V3 load(1, XDATA, add(CFA_XSP16, literal(-10)))
        CFI (cfiCond170) V4 load(1, XDATA, add(CFA_XSP16, literal(-9)))
        CFI (cfiCond170) V5 load(1, XDATA, add(CFA_XSP16, literal(-8)))
        CFI (cfiCond170) V6 load(1, XDATA, add(CFA_XSP16, literal(-7)))
        CFI (cfiCond170) R7 load(1, XDATA, add(CFA_XSP16, literal(-6)))
        CFI (cfiCond170) ?RET_LOW load(1, XDATA, add(CFA_XSP16, literal(-5)))
        CFI (cfiCond170) ?RET_HIGH load(1, XDATA, add(CFA_XSP16, literal(-4)))
        CFI (cfiCond170) ?BRET_EXT load(1, XDATA, add(CFA_XSP16, literal(-3)))
        CFI (cfiCond170) DPL0 load(1, XDATA, add(CFA_XSP16, literal(-2)))
        CFI (cfiCond170) DPH0 load(1, XDATA, add(CFA_XSP16, literal(-1)))
        CFI (cfiCond170) CFA_SP SP+0
        CFI (cfiCond170) CFA_XSP16 add(XSP16, 15)
        CFI Block cfiCond171 Using cfiCommon0
        CFI (cfiCond171) NoFunction
        CFI (cfiCond171) Conditional ??CrossCallReturnLabel_57, ??CrossCallReturnLabel_30
        CFI (cfiCond171) R6 load(1, XDATA, add(CFA_XSP16, literal(-15)))
        CFI (cfiCond171) VB load(1, XDATA, add(CFA_XSP16, literal(-14)))
        CFI (cfiCond171) V0 load(1, XDATA, add(CFA_XSP16, literal(-13)))
        CFI (cfiCond171) V1 load(1, XDATA, add(CFA_XSP16, literal(-12)))
        CFI (cfiCond171) V2 load(1, XDATA, add(CFA_XSP16, literal(-11)))
        CFI (cfiCond171) V3 load(1, XDATA, add(CFA_XSP16, literal(-10)))
        CFI (cfiCond171) V4 load(1, XDATA, add(CFA_XSP16, literal(-9)))
        CFI (cfiCond171) V5 load(1, XDATA, add(CFA_XSP16, literal(-8)))
        CFI (cfiCond171) V6 load(1, XDATA, add(CFA_XSP16, literal(-7)))
        CFI (cfiCond171) R7 load(1, XDATA, add(CFA_XSP16, literal(-6)))
        CFI (cfiCond171) ?RET_LOW load(1, XDATA, add(CFA_XSP16, literal(-5)))
        CFI (cfiCond171) ?RET_HIGH load(1, XDATA, add(CFA_XSP16, literal(-4)))
        CFI (cfiCond171) ?BRET_EXT load(1, XDATA, add(CFA_XSP16, literal(-3)))
        CFI (cfiCond171) DPL0 load(1, XDATA, add(CFA_XSP16, literal(-2)))
        CFI (cfiCond171) DPH0 load(1, XDATA, add(CFA_XSP16, literal(-1)))
        CFI (cfiCond171) CFA_SP SP+0
        CFI (cfiCond171) CFA_XSP16 add(XSP16, 15)
        CFI Block cfiCond172 Using cfiCommon0
        CFI (cfiCond172) NoFunction
        CFI (cfiCond172) Conditional ??CrossCallReturnLabel_57, ??CrossCallReturnLabel_31
        CFI (cfiCond172) R6 load(1, XDATA, add(CFA_XSP16, literal(-15)))
        CFI (cfiCond172) VB load(1, XDATA, add(CFA_XSP16, literal(-14)))
        CFI (cfiCond172) V0 load(1, XDATA, add(CFA_XSP16, literal(-13)))
        CFI (cfiCond172) V1 load(1, XDATA, add(CFA_XSP16, literal(-12)))
        CFI (cfiCond172) V2 load(1, XDATA, add(CFA_XSP16, literal(-11)))
        CFI (cfiCond172) V3 load(1, XDATA, add(CFA_XSP16, literal(-10)))
        CFI (cfiCond172) V4 load(1, XDATA, add(CFA_XSP16, literal(-9)))
        CFI (cfiCond172) V5 load(1, XDATA, add(CFA_XSP16, literal(-8)))
        CFI (cfiCond172) V6 load(1, XDATA, add(CFA_XSP16, literal(-7)))
        CFI (cfiCond172) R7 load(1, XDATA, add(CFA_XSP16, literal(-6)))
        CFI (cfiCond172) ?RET_LOW load(1, XDATA, add(CFA_XSP16, literal(-5)))
        CFI (cfiCond172) ?RET_HIGH load(1, XDATA, add(CFA_XSP16, literal(-4)))
        CFI (cfiCond172) ?BRET_EXT load(1, XDATA, add(CFA_XSP16, literal(-3)))
        CFI (cfiCond172) DPL0 load(1, XDATA, add(CFA_XSP16, literal(-2)))
        CFI (cfiCond172) DPH0 load(1, XDATA, add(CFA_XSP16, literal(-1)))
        CFI (cfiCond172) CFA_SP SP+0
        CFI (cfiCond172) CFA_XSP16 add(XSP16, 15)
        CFI Block cfiPicker173 Using cfiCommon1
        CFI (cfiPicker173) NoFunction
        CFI (cfiPicker173) Picker
        MOV     R0,A
        INC     DPTR
        MOVX    A,@DPTR
        ADDC    A,#0x0
        MOV     R1,A
        MOV     DPL,R0
        MOV     DPH,R1
        RET
        CFI EndBlock cfiCond169
        CFI EndBlock cfiCond170
        CFI EndBlock cfiCond171
        CFI EndBlock cfiCond172
        CFI EndBlock cfiPicker173

        RSEG BANKED_CODE:CODE:NOROOT(0)
?Subroutine19:
        CFI Block cfiCond174 Using cfiCommon0
        CFI NoFunction
        CFI Conditional ??CrossCallReturnLabel_30
        CFI R6 load(1, XDATA, add(CFA_XSP16, literal(-15)))
        CFI VB load(1, XDATA, add(CFA_XSP16, literal(-14)))
        CFI V0 load(1, XDATA, add(CFA_XSP16, literal(-13)))
        CFI V1 load(1, XDATA, add(CFA_XSP16, literal(-12)))
        CFI V2 load(1, XDATA, add(CFA_XSP16, literal(-11)))
        CFI V3 load(1, XDATA, add(CFA_XSP16, literal(-10)))
        CFI V4 load(1, XDATA, add(CFA_XSP16, literal(-9)))
        CFI V5 load(1, XDATA, add(CFA_XSP16, literal(-8)))
        CFI V6 load(1, XDATA, add(CFA_XSP16, literal(-7)))
        CFI R7 load(1, XDATA, add(CFA_XSP16, literal(-6)))
        CFI ?RET_LOW load(1, XDATA, add(CFA_XSP16, literal(-5)))
        CFI ?RET_HIGH load(1, XDATA, add(CFA_XSP16, literal(-4)))
        CFI ?BRET_EXT load(1, XDATA, add(CFA_XSP16, literal(-3)))
        CFI DPL0 load(1, XDATA, add(CFA_XSP16, literal(-2)))
        CFI DPH0 load(1, XDATA, add(CFA_XSP16, literal(-1)))
        CFI CFA_SP SP+0
        CFI CFA_XSP16 add(XSP16, 15)
        CFI Block cfiCond175 Using cfiCommon0
        CFI (cfiCond175) NoFunction
        CFI (cfiCond175) Conditional ??CrossCallReturnLabel_31
        CFI (cfiCond175) R6 load(1, XDATA, add(CFA_XSP16, literal(-15)))
        CFI (cfiCond175) VB load(1, XDATA, add(CFA_XSP16, literal(-14)))
        CFI (cfiCond175) V0 load(1, XDATA, add(CFA_XSP16, literal(-13)))
        CFI (cfiCond175) V1 load(1, XDATA, add(CFA_XSP16, literal(-12)))
        CFI (cfiCond175) V2 load(1, XDATA, add(CFA_XSP16, literal(-11)))
        CFI (cfiCond175) V3 load(1, XDATA, add(CFA_XSP16, literal(-10)))
        CFI (cfiCond175) V4 load(1, XDATA, add(CFA_XSP16, literal(-9)))
        CFI (cfiCond175) V5 load(1, XDATA, add(CFA_XSP16, literal(-8)))
        CFI (cfiCond175) V6 load(1, XDATA, add(CFA_XSP16, literal(-7)))
        CFI (cfiCond175) R7 load(1, XDATA, add(CFA_XSP16, literal(-6)))
        CFI (cfiCond175) ?RET_LOW load(1, XDATA, add(CFA_XSP16, literal(-5)))
        CFI (cfiCond175) ?RET_HIGH load(1, XDATA, add(CFA_XSP16, literal(-4)))
        CFI (cfiCond175) ?BRET_EXT load(1, XDATA, add(CFA_XSP16, literal(-3)))
        CFI (cfiCond175) DPL0 load(1, XDATA, add(CFA_XSP16, literal(-2)))
        CFI (cfiCond175) DPH0 load(1, XDATA, add(CFA_XSP16, literal(-1)))
        CFI (cfiCond175) CFA_SP SP+0
        CFI (cfiCond175) CFA_XSP16 add(XSP16, 15)
        CFI Block cfiPicker176 Using cfiCommon1
        CFI (cfiPicker176) NoFunction
        CFI (cfiPicker176) Picker
        LCALL   ?Subroutine34 & 0xFFFF
??CrossCallReturnLabel_57:
        MOV     C,0x90.0
        RET
        CFI EndBlock cfiCond174
        CFI EndBlock cfiCond175
        CFI EndBlock cfiPicker176

        RSEG BANKED_CODE:CODE:NOROOT(0)
?Subroutine12:
        CFI Block cfiCond177 Using cfiCommon0
        CFI NoFunction
        CFI Conditional ??CrossCallReturnLabel_102
        CFI R6 load(1, XDATA, add(CFA_XSP16, literal(-15)))
        CFI VB load(1, XDATA, add(CFA_XSP16, literal(-14)))
        CFI V0 load(1, XDATA, add(CFA_XSP16, literal(-13)))
        CFI V1 load(1, XDATA, add(CFA_XSP16, literal(-12)))
        CFI V2 load(1, XDATA, add(CFA_XSP16, literal(-11)))
        CFI V3 load(1, XDATA, add(CFA_XSP16, literal(-10)))
        CFI V4 load(1, XDATA, add(CFA_XSP16, literal(-9)))
        CFI V5 load(1, XDATA, add(CFA_XSP16, literal(-8)))
        CFI V6 load(1, XDATA, add(CFA_XSP16, literal(-7)))
        CFI R7 load(1, XDATA, add(CFA_XSP16, literal(-6)))
        CFI ?RET_LOW load(1, XDATA, add(CFA_XSP16, literal(-5)))
        CFI ?RET_HIGH load(1, XDATA, add(CFA_XSP16, literal(-4)))
        CFI ?BRET_EXT load(1, XDATA, add(CFA_XSP16, literal(-3)))
        CFI DPL0 load(1, XDATA, add(CFA_XSP16, literal(-2)))
        CFI DPH0 load(1, XDATA, add(CFA_XSP16, literal(-1)))
        CFI CFA_SP SP+0
        CFI CFA_XSP16 add(XSP16, 15)
        CFI Block cfiCond178 Using cfiCommon0
        CFI (cfiCond178) NoFunction
        CFI (cfiCond178) Conditional ??CrossCallReturnLabel_103
        CFI (cfiCond178) R6 load(1, XDATA, add(CFA_XSP16, literal(-15)))
        CFI (cfiCond178) VB load(1, XDATA, add(CFA_XSP16, literal(-14)))
        CFI (cfiCond178) V0 load(1, XDATA, add(CFA_XSP16, literal(-13)))
        CFI (cfiCond178) V1 load(1, XDATA, add(CFA_XSP16, literal(-12)))
        CFI (cfiCond178) V2 load(1, XDATA, add(CFA_XSP16, literal(-11)))
        CFI (cfiCond178) V3 load(1, XDATA, add(CFA_XSP16, literal(-10)))
        CFI (cfiCond178) V4 load(1, XDATA, add(CFA_XSP16, literal(-9)))
        CFI (cfiCond178) V5 load(1, XDATA, add(CFA_XSP16, literal(-8)))
        CFI (cfiCond178) V6 load(1, XDATA, add(CFA_XSP16, literal(-7)))
        CFI (cfiCond178) R7 load(1, XDATA, add(CFA_XSP16, literal(-6)))
        CFI (cfiCond178) ?RET_LOW load(1, XDATA, add(CFA_XSP16, literal(-5)))
        CFI (cfiCond178) ?RET_HIGH load(1, XDATA, add(CFA_XSP16, literal(-4)))
        CFI (cfiCond178) ?BRET_EXT load(1, XDATA, add(CFA_XSP16, literal(-3)))
        CFI (cfiCond178) DPL0 load(1, XDATA, add(CFA_XSP16, literal(-2)))
        CFI (cfiCond178) DPH0 load(1, XDATA, add(CFA_XSP16, literal(-1)))
        CFI (cfiCond178) CFA_SP SP+0
        CFI (cfiCond178) CFA_XSP16 add(XSP16, 15)
        CFI Block cfiCond179 Using cfiCommon0
        CFI (cfiCond179) NoFunction
        CFI (cfiCond179) Conditional ??CrossCallReturnLabel_104
        CFI (cfiCond179) R6 load(1, XDATA, add(CFA_XSP16, literal(-15)))
        CFI (cfiCond179) VB load(1, XDATA, add(CFA_XSP16, literal(-14)))
        CFI (cfiCond179) V0 load(1, XDATA, add(CFA_XSP16, literal(-13)))
        CFI (cfiCond179) V1 load(1, XDATA, add(CFA_XSP16, literal(-12)))
        CFI (cfiCond179) V2 load(1, XDATA, add(CFA_XSP16, literal(-11)))
        CFI (cfiCond179) V3 load(1, XDATA, add(CFA_XSP16, literal(-10)))
        CFI (cfiCond179) V4 load(1, XDATA, add(CFA_XSP16, literal(-9)))
        CFI (cfiCond179) V5 load(1, XDATA, add(CFA_XSP16, literal(-8)))
        CFI (cfiCond179) V6 load(1, XDATA, add(CFA_XSP16, literal(-7)))
        CFI (cfiCond179) R7 load(1, XDATA, add(CFA_XSP16, literal(-6)))
        CFI (cfiCond179) ?RET_LOW load(1, XDATA, add(CFA_XSP16, literal(-5)))
        CFI (cfiCond179) ?RET_HIGH load(1, XDATA, add(CFA_XSP16, literal(-4)))
        CFI (cfiCond179) ?BRET_EXT load(1, XDATA, add(CFA_XSP16, literal(-3)))
        CFI (cfiCond179) DPL0 load(1, XDATA, add(CFA_XSP16, literal(-2)))
        CFI (cfiCond179) DPH0 load(1, XDATA, add(CFA_XSP16, literal(-1)))
        CFI (cfiCond179) CFA_SP SP+0
        CFI (cfiCond179) CFA_XSP16 add(XSP16, 15)
        CFI Block cfiCond180 Using cfiCommon0
        CFI (cfiCond180) NoFunction
        CFI (cfiCond180) Conditional ??CrossCallReturnLabel_105
        CFI (cfiCond180) R6 load(1, XDATA, add(CFA_XSP16, literal(-15)))
        CFI (cfiCond180) VB load(1, XDATA, add(CFA_XSP16, literal(-14)))
        CFI (cfiCond180) V0 load(1, XDATA, add(CFA_XSP16, literal(-13)))
        CFI (cfiCond180) V1 load(1, XDATA, add(CFA_XSP16, literal(-12)))
        CFI (cfiCond180) V2 load(1, XDATA, add(CFA_XSP16, literal(-11)))
        CFI (cfiCond180) V3 load(1, XDATA, add(CFA_XSP16, literal(-10)))
        CFI (cfiCond180) V4 load(1, XDATA, add(CFA_XSP16, literal(-9)))
        CFI (cfiCond180) V5 load(1, XDATA, add(CFA_XSP16, literal(-8)))
        CFI (cfiCond180) V6 load(1, XDATA, add(CFA_XSP16, literal(-7)))
        CFI (cfiCond180) R7 load(1, XDATA, add(CFA_XSP16, literal(-6)))
        CFI (cfiCond180) ?RET_LOW load(1, XDATA, add(CFA_XSP16, literal(-5)))
        CFI (cfiCond180) ?RET_HIGH load(1, XDATA, add(CFA_XSP16, literal(-4)))
        CFI (cfiCond180) ?BRET_EXT load(1, XDATA, add(CFA_XSP16, literal(-3)))
        CFI (cfiCond180) DPL0 load(1, XDATA, add(CFA_XSP16, literal(-2)))
        CFI (cfiCond180) DPH0 load(1, XDATA, add(CFA_XSP16, literal(-1)))
        CFI (cfiCond180) CFA_SP SP+0
        CFI (cfiCond180) CFA_XSP16 add(XSP16, 15)
        CFI Block cfiCond181 Using cfiCommon0
        CFI (cfiCond181) NoFunction
        CFI (cfiCond181) Conditional ??CrossCallReturnLabel_106
        CFI (cfiCond181) R6 load(1, XDATA, add(CFA_XSP16, literal(-15)))
        CFI (cfiCond181) VB load(1, XDATA, add(CFA_XSP16, literal(-14)))
        CFI (cfiCond181) V0 load(1, XDATA, add(CFA_XSP16, literal(-13)))
        CFI (cfiCond181) V1 load(1, XDATA, add(CFA_XSP16, literal(-12)))
        CFI (cfiCond181) V2 load(1, XDATA, add(CFA_XSP16, literal(-11)))
        CFI (cfiCond181) V3 load(1, XDATA, add(CFA_XSP16, literal(-10)))
        CFI (cfiCond181) V4 load(1, XDATA, add(CFA_XSP16, literal(-9)))
        CFI (cfiCond181) V5 load(1, XDATA, add(CFA_XSP16, literal(-8)))
        CFI (cfiCond181) V6 load(1, XDATA, add(CFA_XSP16, literal(-7)))
        CFI (cfiCond181) R7 load(1, XDATA, add(CFA_XSP16, literal(-6)))
        CFI (cfiCond181) ?RET_LOW load(1, XDATA, add(CFA_XSP16, literal(-5)))
        CFI (cfiCond181) ?RET_HIGH load(1, XDATA, add(CFA_XSP16, literal(-4)))
        CFI (cfiCond181) ?BRET_EXT load(1, XDATA, add(CFA_XSP16, literal(-3)))
        CFI (cfiCond181) DPL0 load(1, XDATA, add(CFA_XSP16, literal(-2)))
        CFI (cfiCond181) DPH0 load(1, XDATA, add(CFA_XSP16, literal(-1)))
        CFI (cfiCond181) CFA_SP SP+0
        CFI (cfiCond181) CFA_XSP16 add(XSP16, 15)
        CFI Block cfiPicker182 Using cfiCommon1
        CFI (cfiPicker182) NoFunction
        CFI (cfiPicker182) Picker
        MOV     A,R2
        MOV     R6,A
        MOV     A,R3
        MOV     R7,A
        MOV     ?V0 + 0,R4
        MOV     ?V0 + 1,R5
        CFI EndBlock cfiCond177
        CFI EndBlock cfiCond178
        CFI EndBlock cfiCond179
        CFI EndBlock cfiCond180
        CFI EndBlock cfiCond181
        CFI EndBlock cfiPicker182
        REQUIRE ??Subroutine46_0
        ; // Fall through to label ??Subroutine46_0

        RSEG BANKED_CODE:CODE:NOROOT(0)
??Subroutine46_0:
        CFI Block cfiCond183 Using cfiCommon0
        CFI NoFunction
        CFI Conditional ??CrossCallReturnLabel_107
        CFI R6 load(1, XDATA, add(CFA_XSP16, literal(-15)))
        CFI VB load(1, XDATA, add(CFA_XSP16, literal(-14)))
        CFI V0 load(1, XDATA, add(CFA_XSP16, literal(-13)))
        CFI V1 load(1, XDATA, add(CFA_XSP16, literal(-12)))
        CFI V2 load(1, XDATA, add(CFA_XSP16, literal(-11)))
        CFI V3 load(1, XDATA, add(CFA_XSP16, literal(-10)))
        CFI V4 load(1, XDATA, add(CFA_XSP16, literal(-9)))
        CFI V5 load(1, XDATA, add(CFA_XSP16, literal(-8)))
        CFI V6 load(1, XDATA, add(CFA_XSP16, literal(-7)))
        CFI R7 load(1, XDATA, add(CFA_XSP16, literal(-6)))
        CFI ?RET_LOW load(1, XDATA, add(CFA_XSP16, literal(-5)))
        CFI ?RET_HIGH load(1, XDATA, add(CFA_XSP16, literal(-4)))
        CFI ?BRET_EXT load(1, XDATA, add(CFA_XSP16, literal(-3)))
        CFI DPL0 load(1, XDATA, add(CFA_XSP16, literal(-2)))
        CFI DPH0 load(1, XDATA, add(CFA_XSP16, literal(-1)))
        CFI CFA_SP SP+0
        CFI CFA_XSP16 add(XSP16, 16)
        CFI Block cfiCond184 Using cfiCommon0
        CFI (cfiCond184) NoFunction
        CFI (cfiCond184) Conditional ??CrossCallReturnLabel_108
        CFI (cfiCond184) R6 load(1, XDATA, add(CFA_XSP16, literal(-15)))
        CFI (cfiCond184) VB load(1, XDATA, add(CFA_XSP16, literal(-14)))
        CFI (cfiCond184) V0 load(1, XDATA, add(CFA_XSP16, literal(-13)))
        CFI (cfiCond184) V1 load(1, XDATA, add(CFA_XSP16, literal(-12)))
        CFI (cfiCond184) V2 load(1, XDATA, add(CFA_XSP16, literal(-11)))
        CFI (cfiCond184) V3 load(1, XDATA, add(CFA_XSP16, literal(-10)))
        CFI (cfiCond184) V4 load(1, XDATA, add(CFA_XSP16, literal(-9)))
        CFI (cfiCond184) V5 load(1, XDATA, add(CFA_XSP16, literal(-8)))
        CFI (cfiCond184) V6 load(1, XDATA, add(CFA_XSP16, literal(-7)))
        CFI (cfiCond184) R7 load(1, XDATA, add(CFA_XSP16, literal(-6)))
        CFI (cfiCond184) ?RET_LOW load(1, XDATA, add(CFA_XSP16, literal(-5)))
        CFI (cfiCond184) ?RET_HIGH load(1, XDATA, add(CFA_XSP16, literal(-4)))
        CFI (cfiCond184) ?BRET_EXT load(1, XDATA, add(CFA_XSP16, literal(-3)))
        CFI (cfiCond184) DPL0 load(1, XDATA, add(CFA_XSP16, literal(-2)))
        CFI (cfiCond184) DPH0 load(1, XDATA, add(CFA_XSP16, literal(-1)))
        CFI (cfiCond184) CFA_SP SP+0
        CFI (cfiCond184) CFA_XSP16 add(XSP16, 16)
        CFI Block cfiCond185 Using cfiCommon0
        CFI (cfiCond185) NoFunction
        CFI (cfiCond185) Conditional ??CrossCallReturnLabel_109
        CFI (cfiCond185) R6 load(1, XDATA, add(CFA_XSP16, literal(-11)))
        CFI (cfiCond185) VB load(1, XDATA, add(CFA_XSP16, literal(-10)))
        CFI (cfiCond185) V0 load(1, XDATA, add(CFA_XSP16, literal(-9)))
        CFI (cfiCond185) V1 load(1, XDATA, add(CFA_XSP16, literal(-8)))
        CFI (cfiCond185) V2 load(1, XDATA, add(CFA_XSP16, literal(-7)))
        CFI (cfiCond185) R7 load(1, XDATA, add(CFA_XSP16, literal(-6)))
        CFI (cfiCond185) ?RET_LOW load(1, XDATA, add(CFA_XSP16, literal(-5)))
        CFI (cfiCond185) ?RET_HIGH load(1, XDATA, add(CFA_XSP16, literal(-4)))
        CFI (cfiCond185) ?BRET_EXT load(1, XDATA, add(CFA_XSP16, literal(-3)))
        CFI (cfiCond185) DPL0 load(1, XDATA, add(CFA_XSP16, literal(-2)))
        CFI (cfiCond185) DPH0 load(1, XDATA, add(CFA_XSP16, literal(-1)))
        CFI (cfiCond185) CFA_SP SP+0
        CFI (cfiCond185) CFA_XSP16 add(XSP16, 14)
        CFI Block cfiCond186 Using cfiCommon0
        CFI (cfiCond186) NoFunction
        CFI (cfiCond186) Conditional ??CrossCallReturnLabel_110
        CFI (cfiCond186) R6 load(1, XDATA, add(CFA_XSP16, literal(-12)))
        CFI (cfiCond186) VB load(1, XDATA, add(CFA_XSP16, literal(-11)))
        CFI (cfiCond186) V0 load(1, XDATA, add(CFA_XSP16, literal(-10)))
        CFI (cfiCond186) V1 load(1, XDATA, add(CFA_XSP16, literal(-9)))
        CFI (cfiCond186) V2 load(1, XDATA, add(CFA_XSP16, literal(-8)))
        CFI (cfiCond186) V3 load(1, XDATA, add(CFA_XSP16, literal(-7)))
        CFI (cfiCond186) R7 load(1, XDATA, add(CFA_XSP16, literal(-6)))
        CFI (cfiCond186) ?RET_LOW load(1, XDATA, add(CFA_XSP16, literal(-5)))
        CFI (cfiCond186) ?RET_HIGH load(1, XDATA, add(CFA_XSP16, literal(-4)))
        CFI (cfiCond186) ?BRET_EXT load(1, XDATA, add(CFA_XSP16, literal(-3)))
        CFI (cfiCond186) DPL0 load(1, XDATA, add(CFA_XSP16, literal(-2)))
        CFI (cfiCond186) DPH0 load(1, XDATA, add(CFA_XSP16, literal(-1)))
        CFI (cfiCond186) CFA_SP SP+0
        CFI (cfiCond186) CFA_XSP16 add(XSP16, 21)
        CFI Block cfiCond187 Using cfiCommon0
        CFI (cfiCond187) NoFunction
        CFI (cfiCond187) Conditional ??CrossCallReturnLabel_111
        CFI (cfiCond187) R6 load(1, XDATA, add(CFA_XSP16, literal(-11)))
        CFI (cfiCond187) VB load(1, XDATA, add(CFA_XSP16, literal(-10)))
        CFI (cfiCond187) V0 load(1, XDATA, add(CFA_XSP16, literal(-9)))
        CFI (cfiCond187) V1 load(1, XDATA, add(CFA_XSP16, literal(-8)))
        CFI (cfiCond187) V2 load(1, XDATA, add(CFA_XSP16, literal(-7)))
        CFI (cfiCond187) R7 load(1, XDATA, add(CFA_XSP16, literal(-6)))
        CFI (cfiCond187) ?RET_LOW load(1, XDATA, add(CFA_XSP16, literal(-5)))
        CFI (cfiCond187) ?RET_HIGH load(1, XDATA, add(CFA_XSP16, literal(-4)))
        CFI (cfiCond187) ?BRET_EXT load(1, XDATA, add(CFA_XSP16, literal(-3)))
        CFI (cfiCond187) DPL0 load(1, XDATA, add(CFA_XSP16, literal(-2)))
        CFI (cfiCond187) DPH0 load(1, XDATA, add(CFA_XSP16, literal(-1)))
        CFI (cfiCond187) CFA_SP SP+0
        CFI (cfiCond187) CFA_XSP16 add(XSP16, 11)
        CFI Block cfiCond188 Using cfiCommon0
        CFI (cfiCond188) NoFunction
        CFI (cfiCond188) Conditional ??CrossCallReturnLabel_112
        CFI (cfiCond188) R6 load(1, XDATA, add(CFA_XSP16, literal(-11)))
        CFI (cfiCond188) VB load(1, XDATA, add(CFA_XSP16, literal(-10)))
        CFI (cfiCond188) V0 load(1, XDATA, add(CFA_XSP16, literal(-9)))
        CFI (cfiCond188) V1 load(1, XDATA, add(CFA_XSP16, literal(-8)))
        CFI (cfiCond188) V2 load(1, XDATA, add(CFA_XSP16, literal(-7)))
        CFI (cfiCond188) R7 load(1, XDATA, add(CFA_XSP16, literal(-6)))
        CFI (cfiCond188) ?RET_LOW load(1, XDATA, add(CFA_XSP16, literal(-5)))
        CFI (cfiCond188) ?RET_HIGH load(1, XDATA, add(CFA_XSP16, literal(-4)))
        CFI (cfiCond188) ?BRET_EXT load(1, XDATA, add(CFA_XSP16, literal(-3)))
        CFI (cfiCond188) DPL0 load(1, XDATA, add(CFA_XSP16, literal(-2)))
        CFI (cfiCond188) DPH0 load(1, XDATA, add(CFA_XSP16, literal(-1)))
        CFI (cfiCond188) CFA_SP SP+0
        CFI (cfiCond188) CFA_XSP16 add(XSP16, 11)
        CFI Block cfiCond189 Using cfiCommon0
        CFI (cfiCond189) NoFunction
        CFI (cfiCond189) Conditional ??CrossCallReturnLabel_102
        CFI (cfiCond189) R6 load(1, XDATA, add(CFA_XSP16, literal(-15)))
        CFI (cfiCond189) VB load(1, XDATA, add(CFA_XSP16, literal(-14)))
        CFI (cfiCond189) V0 load(1, XDATA, add(CFA_XSP16, literal(-13)))
        CFI (cfiCond189) V1 load(1, XDATA, add(CFA_XSP16, literal(-12)))
        CFI (cfiCond189) V2 load(1, XDATA, add(CFA_XSP16, literal(-11)))
        CFI (cfiCond189) V3 load(1, XDATA, add(CFA_XSP16, literal(-10)))
        CFI (cfiCond189) V4 load(1, XDATA, add(CFA_XSP16, literal(-9)))
        CFI (cfiCond189) V5 load(1, XDATA, add(CFA_XSP16, literal(-8)))
        CFI (cfiCond189) V6 load(1, XDATA, add(CFA_XSP16, literal(-7)))
        CFI (cfiCond189) R7 load(1, XDATA, add(CFA_XSP16, literal(-6)))
        CFI (cfiCond189) ?RET_LOW load(1, XDATA, add(CFA_XSP16, literal(-5)))
        CFI (cfiCond189) ?RET_HIGH load(1, XDATA, add(CFA_XSP16, literal(-4)))
        CFI (cfiCond189) ?BRET_EXT load(1, XDATA, add(CFA_XSP16, literal(-3)))
        CFI (cfiCond189) DPL0 load(1, XDATA, add(CFA_XSP16, literal(-2)))
        CFI (cfiCond189) DPH0 load(1, XDATA, add(CFA_XSP16, literal(-1)))
        CFI (cfiCond189) CFA_SP SP+0
        CFI (cfiCond189) CFA_XSP16 add(XSP16, 15)
        CFI Block cfiCond190 Using cfiCommon0
        CFI (cfiCond190) NoFunction
        CFI (cfiCond190) Conditional ??CrossCallReturnLabel_103
        CFI (cfiCond190) R6 load(1, XDATA, add(CFA_XSP16, literal(-15)))
        CFI (cfiCond190) VB load(1, XDATA, add(CFA_XSP16, literal(-14)))
        CFI (cfiCond190) V0 load(1, XDATA, add(CFA_XSP16, literal(-13)))
        CFI (cfiCond190) V1 load(1, XDATA, add(CFA_XSP16, literal(-12)))
        CFI (cfiCond190) V2 load(1, XDATA, add(CFA_XSP16, literal(-11)))
        CFI (cfiCond190) V3 load(1, XDATA, add(CFA_XSP16, literal(-10)))
        CFI (cfiCond190) V4 load(1, XDATA, add(CFA_XSP16, literal(-9)))
        CFI (cfiCond190) V5 load(1, XDATA, add(CFA_XSP16, literal(-8)))
        CFI (cfiCond190) V6 load(1, XDATA, add(CFA_XSP16, literal(-7)))
        CFI (cfiCond190) R7 load(1, XDATA, add(CFA_XSP16, literal(-6)))
        CFI (cfiCond190) ?RET_LOW load(1, XDATA, add(CFA_XSP16, literal(-5)))
        CFI (cfiCond190) ?RET_HIGH load(1, XDATA, add(CFA_XSP16, literal(-4)))
        CFI (cfiCond190) ?BRET_EXT load(1, XDATA, add(CFA_XSP16, literal(-3)))
        CFI (cfiCond190) DPL0 load(1, XDATA, add(CFA_XSP16, literal(-2)))
        CFI (cfiCond190) DPH0 load(1, XDATA, add(CFA_XSP16, literal(-1)))
        CFI (cfiCond190) CFA_SP SP+0
        CFI (cfiCond190) CFA_XSP16 add(XSP16, 15)
        CFI Block cfiCond191 Using cfiCommon0
        CFI (cfiCond191) NoFunction
        CFI (cfiCond191) Conditional ??CrossCallReturnLabel_104
        CFI (cfiCond191) R6 load(1, XDATA, add(CFA_XSP16, literal(-15)))
        CFI (cfiCond191) VB load(1, XDATA, add(CFA_XSP16, literal(-14)))
        CFI (cfiCond191) V0 load(1, XDATA, add(CFA_XSP16, literal(-13)))
        CFI (cfiCond191) V1 load(1, XDATA, add(CFA_XSP16, literal(-12)))
        CFI (cfiCond191) V2 load(1, XDATA, add(CFA_XSP16, literal(-11)))
        CFI (cfiCond191) V3 load(1, XDATA, add(CFA_XSP16, literal(-10)))
        CFI (cfiCond191) V4 load(1, XDATA, add(CFA_XSP16, literal(-9)))
        CFI (cfiCond191) V5 load(1, XDATA, add(CFA_XSP16, literal(-8)))
        CFI (cfiCond191) V6 load(1, XDATA, add(CFA_XSP16, literal(-7)))
        CFI (cfiCond191) R7 load(1, XDATA, add(CFA_XSP16, literal(-6)))
        CFI (cfiCond191) ?RET_LOW load(1, XDATA, add(CFA_XSP16, literal(-5)))
        CFI (cfiCond191) ?RET_HIGH load(1, XDATA, add(CFA_XSP16, literal(-4)))
        CFI (cfiCond191) ?BRET_EXT load(1, XDATA, add(CFA_XSP16, literal(-3)))
        CFI (cfiCond191) DPL0 load(1, XDATA, add(CFA_XSP16, literal(-2)))
        CFI (cfiCond191) DPH0 load(1, XDATA, add(CFA_XSP16, literal(-1)))
        CFI (cfiCond191) CFA_SP SP+0
        CFI (cfiCond191) CFA_XSP16 add(XSP16, 15)
        CFI Block cfiCond192 Using cfiCommon0
        CFI (cfiCond192) NoFunction
        CFI (cfiCond192) Conditional ??CrossCallReturnLabel_105
        CFI (cfiCond192) R6 load(1, XDATA, add(CFA_XSP16, literal(-15)))
        CFI (cfiCond192) VB load(1, XDATA, add(CFA_XSP16, literal(-14)))
        CFI (cfiCond192) V0 load(1, XDATA, add(CFA_XSP16, literal(-13)))
        CFI (cfiCond192) V1 load(1, XDATA, add(CFA_XSP16, literal(-12)))
        CFI (cfiCond192) V2 load(1, XDATA, add(CFA_XSP16, literal(-11)))
        CFI (cfiCond192) V3 load(1, XDATA, add(CFA_XSP16, literal(-10)))
        CFI (cfiCond192) V4 load(1, XDATA, add(CFA_XSP16, literal(-9)))
        CFI (cfiCond192) V5 load(1, XDATA, add(CFA_XSP16, literal(-8)))
        CFI (cfiCond192) V6 load(1, XDATA, add(CFA_XSP16, literal(-7)))
        CFI (cfiCond192) R7 load(1, XDATA, add(CFA_XSP16, literal(-6)))
        CFI (cfiCond192) ?RET_LOW load(1, XDATA, add(CFA_XSP16, literal(-5)))
        CFI (cfiCond192) ?RET_HIGH load(1, XDATA, add(CFA_XSP16, literal(-4)))
        CFI (cfiCond192) ?BRET_EXT load(1, XDATA, add(CFA_XSP16, literal(-3)))
        CFI (cfiCond192) DPL0 load(1, XDATA, add(CFA_XSP16, literal(-2)))
        CFI (cfiCond192) DPH0 load(1, XDATA, add(CFA_XSP16, literal(-1)))
        CFI (cfiCond192) CFA_SP SP+0
        CFI (cfiCond192) CFA_XSP16 add(XSP16, 15)
        CFI Block cfiCond193 Using cfiCommon0
        CFI (cfiCond193) NoFunction
        CFI (cfiCond193) Conditional ??CrossCallReturnLabel_106
        CFI (cfiCond193) R6 load(1, XDATA, add(CFA_XSP16, literal(-15)))
        CFI (cfiCond193) VB load(1, XDATA, add(CFA_XSP16, literal(-14)))
        CFI (cfiCond193) V0 load(1, XDATA, add(CFA_XSP16, literal(-13)))
        CFI (cfiCond193) V1 load(1, XDATA, add(CFA_XSP16, literal(-12)))
        CFI (cfiCond193) V2 load(1, XDATA, add(CFA_XSP16, literal(-11)))
        CFI (cfiCond193) V3 load(1, XDATA, add(CFA_XSP16, literal(-10)))
        CFI (cfiCond193) V4 load(1, XDATA, add(CFA_XSP16, literal(-9)))
        CFI (cfiCond193) V5 load(1, XDATA, add(CFA_XSP16, literal(-8)))
        CFI (cfiCond193) V6 load(1, XDATA, add(CFA_XSP16, literal(-7)))
        CFI (cfiCond193) R7 load(1, XDATA, add(CFA_XSP16, literal(-6)))
        CFI (cfiCond193) ?RET_LOW load(1, XDATA, add(CFA_XSP16, literal(-5)))
        CFI (cfiCond193) ?RET_HIGH load(1, XDATA, add(CFA_XSP16, literal(-4)))
        CFI (cfiCond193) ?BRET_EXT load(1, XDATA, add(CFA_XSP16, literal(-3)))
        CFI (cfiCond193) DPL0 load(1, XDATA, add(CFA_XSP16, literal(-2)))
        CFI (cfiCond193) DPH0 load(1, XDATA, add(CFA_XSP16, literal(-1)))
        CFI (cfiCond193) CFA_SP SP+0
        CFI (cfiCond193) CFA_XSP16 add(XSP16, 15)
        CFI Block cfiPicker194 Using cfiCommon1
        CFI (cfiPicker194) NoFunction
        CFI (cfiPicker194) Picker
        MOV     DPTR,#optData
        MOVX    A,@DPTR
        MOV     R0,A
        INC     DPTR
        MOVX    A,@DPTR
        MOV     R1,A
        MOV     A,R0
        ORL     A,R1
        RET
        CFI EndBlock cfiCond183
        CFI EndBlock cfiCond184
        CFI EndBlock cfiCond185
        CFI EndBlock cfiCond186
        CFI EndBlock cfiCond187
        CFI EndBlock cfiCond188
        CFI EndBlock cfiCond189
        CFI EndBlock cfiCond190
        CFI EndBlock cfiCond191
        CFI EndBlock cfiCond192
        CFI EndBlock cfiCond193
        CFI EndBlock cfiPicker194

        RSEG BANKED_CODE:CODE:NOROOT(0)
?Subroutine10:
        CFI Block cfiCond195 Using cfiCommon0
        CFI NoFunction
        CFI Conditional ??CrossCallReturnLabel_13
        CFI R6 load(1, XDATA, add(CFA_XSP16, literal(-15)))
        CFI VB load(1, XDATA, add(CFA_XSP16, literal(-14)))
        CFI V0 load(1, XDATA, add(CFA_XSP16, literal(-13)))
        CFI V1 load(1, XDATA, add(CFA_XSP16, literal(-12)))
        CFI V2 load(1, XDATA, add(CFA_XSP16, literal(-11)))
        CFI V3 load(1, XDATA, add(CFA_XSP16, literal(-10)))
        CFI V4 load(1, XDATA, add(CFA_XSP16, literal(-9)))
        CFI V5 load(1, XDATA, add(CFA_XSP16, literal(-8)))
        CFI V6 load(1, XDATA, add(CFA_XSP16, literal(-7)))
        CFI R7 load(1, XDATA, add(CFA_XSP16, literal(-6)))
        CFI ?RET_LOW load(1, XDATA, add(CFA_XSP16, literal(-5)))
        CFI ?RET_HIGH load(1, XDATA, add(CFA_XSP16, literal(-4)))
        CFI ?BRET_EXT load(1, XDATA, add(CFA_XSP16, literal(-3)))
        CFI DPL0 load(1, XDATA, add(CFA_XSP16, literal(-2)))
        CFI DPH0 load(1, XDATA, add(CFA_XSP16, literal(-1)))
        CFI CFA_SP SP+0
        CFI CFA_XSP16 add(XSP16, 16)
        CFI Block cfiCond196 Using cfiCommon0
        CFI (cfiCond196) NoFunction
        CFI (cfiCond196) Conditional ??CrossCallReturnLabel_14
        CFI (cfiCond196) R6 load(1, XDATA, add(CFA_XSP16, literal(-15)))
        CFI (cfiCond196) VB load(1, XDATA, add(CFA_XSP16, literal(-14)))
        CFI (cfiCond196) V0 load(1, XDATA, add(CFA_XSP16, literal(-13)))
        CFI (cfiCond196) V1 load(1, XDATA, add(CFA_XSP16, literal(-12)))
        CFI (cfiCond196) V2 load(1, XDATA, add(CFA_XSP16, literal(-11)))
        CFI (cfiCond196) V3 load(1, XDATA, add(CFA_XSP16, literal(-10)))
        CFI (cfiCond196) V4 load(1, XDATA, add(CFA_XSP16, literal(-9)))
        CFI (cfiCond196) V5 load(1, XDATA, add(CFA_XSP16, literal(-8)))
        CFI (cfiCond196) V6 load(1, XDATA, add(CFA_XSP16, literal(-7)))
        CFI (cfiCond196) R7 load(1, XDATA, add(CFA_XSP16, literal(-6)))
        CFI (cfiCond196) ?RET_LOW load(1, XDATA, add(CFA_XSP16, literal(-5)))
        CFI (cfiCond196) ?RET_HIGH load(1, XDATA, add(CFA_XSP16, literal(-4)))
        CFI (cfiCond196) ?BRET_EXT load(1, XDATA, add(CFA_XSP16, literal(-3)))
        CFI (cfiCond196) DPL0 load(1, XDATA, add(CFA_XSP16, literal(-2)))
        CFI (cfiCond196) DPH0 load(1, XDATA, add(CFA_XSP16, literal(-1)))
        CFI (cfiCond196) CFA_SP SP+0
        CFI (cfiCond196) CFA_XSP16 add(XSP16, 16)
        CFI Block cfiCond197 Using cfiCommon0
        CFI (cfiCond197) NoFunction
        CFI (cfiCond197) Conditional ??CrossCallReturnLabel_15
        CFI (cfiCond197) R6 load(1, XDATA, add(CFA_XSP16, literal(-11)))
        CFI (cfiCond197) VB load(1, XDATA, add(CFA_XSP16, literal(-10)))
        CFI (cfiCond197) V0 load(1, XDATA, add(CFA_XSP16, literal(-9)))
        CFI (cfiCond197) V1 load(1, XDATA, add(CFA_XSP16, literal(-8)))
        CFI (cfiCond197) V2 load(1, XDATA, add(CFA_XSP16, literal(-7)))
        CFI (cfiCond197) R7 load(1, XDATA, add(CFA_XSP16, literal(-6)))
        CFI (cfiCond197) ?RET_LOW load(1, XDATA, add(CFA_XSP16, literal(-5)))
        CFI (cfiCond197) ?RET_HIGH load(1, XDATA, add(CFA_XSP16, literal(-4)))
        CFI (cfiCond197) ?BRET_EXT load(1, XDATA, add(CFA_XSP16, literal(-3)))
        CFI (cfiCond197) DPL0 load(1, XDATA, add(CFA_XSP16, literal(-2)))
        CFI (cfiCond197) DPH0 load(1, XDATA, add(CFA_XSP16, literal(-1)))
        CFI (cfiCond197) CFA_SP SP+0
        CFI (cfiCond197) CFA_XSP16 add(XSP16, 14)
        CFI Block cfiCond198 Using cfiCommon0
        CFI (cfiCond198) NoFunction
        CFI (cfiCond198) Conditional ??CrossCallReturnLabel_16
        CFI (cfiCond198) R6 load(1, XDATA, add(CFA_XSP16, literal(-15)))
        CFI (cfiCond198) VB load(1, XDATA, add(CFA_XSP16, literal(-14)))
        CFI (cfiCond198) V0 load(1, XDATA, add(CFA_XSP16, literal(-13)))
        CFI (cfiCond198) V1 load(1, XDATA, add(CFA_XSP16, literal(-12)))
        CFI (cfiCond198) V2 load(1, XDATA, add(CFA_XSP16, literal(-11)))
        CFI (cfiCond198) V3 load(1, XDATA, add(CFA_XSP16, literal(-10)))
        CFI (cfiCond198) V4 load(1, XDATA, add(CFA_XSP16, literal(-9)))
        CFI (cfiCond198) V5 load(1, XDATA, add(CFA_XSP16, literal(-8)))
        CFI (cfiCond198) V6 load(1, XDATA, add(CFA_XSP16, literal(-7)))
        CFI (cfiCond198) R7 load(1, XDATA, add(CFA_XSP16, literal(-6)))
        CFI (cfiCond198) ?RET_LOW load(1, XDATA, add(CFA_XSP16, literal(-5)))
        CFI (cfiCond198) ?RET_HIGH load(1, XDATA, add(CFA_XSP16, literal(-4)))
        CFI (cfiCond198) ?BRET_EXT load(1, XDATA, add(CFA_XSP16, literal(-3)))
        CFI (cfiCond198) DPL0 load(1, XDATA, add(CFA_XSP16, literal(-2)))
        CFI (cfiCond198) DPH0 load(1, XDATA, add(CFA_XSP16, literal(-1)))
        CFI (cfiCond198) CFA_SP SP+0
        CFI (cfiCond198) CFA_XSP16 add(XSP16, 15)
        CFI Block cfiCond199 Using cfiCommon0
        CFI (cfiCond199) NoFunction
        CFI (cfiCond199) Conditional ??CrossCallReturnLabel_17
        CFI (cfiCond199) R6 load(1, XDATA, add(CFA_XSP16, literal(-15)))
        CFI (cfiCond199) VB load(1, XDATA, add(CFA_XSP16, literal(-14)))
        CFI (cfiCond199) V0 load(1, XDATA, add(CFA_XSP16, literal(-13)))
        CFI (cfiCond199) V1 load(1, XDATA, add(CFA_XSP16, literal(-12)))
        CFI (cfiCond199) V2 load(1, XDATA, add(CFA_XSP16, literal(-11)))
        CFI (cfiCond199) V3 load(1, XDATA, add(CFA_XSP16, literal(-10)))
        CFI (cfiCond199) V4 load(1, XDATA, add(CFA_XSP16, literal(-9)))
        CFI (cfiCond199) V5 load(1, XDATA, add(CFA_XSP16, literal(-8)))
        CFI (cfiCond199) V6 load(1, XDATA, add(CFA_XSP16, literal(-7)))
        CFI (cfiCond199) R7 load(1, XDATA, add(CFA_XSP16, literal(-6)))
        CFI (cfiCond199) ?RET_LOW load(1, XDATA, add(CFA_XSP16, literal(-5)))
        CFI (cfiCond199) ?RET_HIGH load(1, XDATA, add(CFA_XSP16, literal(-4)))
        CFI (cfiCond199) ?BRET_EXT load(1, XDATA, add(CFA_XSP16, literal(-3)))
        CFI (cfiCond199) DPL0 load(1, XDATA, add(CFA_XSP16, literal(-2)))
        CFI (cfiCond199) DPH0 load(1, XDATA, add(CFA_XSP16, literal(-1)))
        CFI (cfiCond199) CFA_SP SP+0
        CFI (cfiCond199) CFA_XSP16 add(XSP16, 15)
        CFI Block cfiPicker200 Using cfiCommon1
        CFI (cfiPicker200) NoFunction
        CFI (cfiPicker200) Picker
        LCALL   ?Subroutine32 & 0xFFFF
??CrossCallReturnLabel_53:
        RET
        CFI EndBlock cfiCond195
        CFI EndBlock cfiCond196
        CFI EndBlock cfiCond197
        CFI EndBlock cfiCond198
        CFI EndBlock cfiCond199
        CFI EndBlock cfiPicker200

        RSEG BANKED_CODE:CODE:NOROOT(0)
?Subroutine32:
        CFI Block cfiCond201 Using cfiCommon0
        CFI NoFunction
        CFI Conditional ??CrossCallReturnLabel_53, ??CrossCallReturnLabel_13
        CFI R6 load(1, XDATA, add(CFA_XSP16, literal(-15)))
        CFI VB load(1, XDATA, add(CFA_XSP16, literal(-14)))
        CFI V0 load(1, XDATA, add(CFA_XSP16, literal(-13)))
        CFI V1 load(1, XDATA, add(CFA_XSP16, literal(-12)))
        CFI V2 load(1, XDATA, add(CFA_XSP16, literal(-11)))
        CFI V3 load(1, XDATA, add(CFA_XSP16, literal(-10)))
        CFI V4 load(1, XDATA, add(CFA_XSP16, literal(-9)))
        CFI V5 load(1, XDATA, add(CFA_XSP16, literal(-8)))
        CFI V6 load(1, XDATA, add(CFA_XSP16, literal(-7)))
        CFI R7 load(1, XDATA, add(CFA_XSP16, literal(-6)))
        CFI ?RET_LOW load(1, XDATA, add(CFA_XSP16, literal(-5)))
        CFI ?RET_HIGH load(1, XDATA, add(CFA_XSP16, literal(-4)))
        CFI ?BRET_EXT load(1, XDATA, add(CFA_XSP16, literal(-3)))
        CFI DPL0 load(1, XDATA, add(CFA_XSP16, literal(-2)))
        CFI DPH0 load(1, XDATA, add(CFA_XSP16, literal(-1)))
        CFI CFA_SP SP+0
        CFI CFA_XSP16 add(XSP16, 16)
        CFI Block cfiCond202 Using cfiCommon0
        CFI (cfiCond202) NoFunction
        CFI (cfiCond202) Conditional ??CrossCallReturnLabel_53, ??CrossCallReturnLabel_14
        CFI (cfiCond202) R6 load(1, XDATA, add(CFA_XSP16, literal(-15)))
        CFI (cfiCond202) VB load(1, XDATA, add(CFA_XSP16, literal(-14)))
        CFI (cfiCond202) V0 load(1, XDATA, add(CFA_XSP16, literal(-13)))
        CFI (cfiCond202) V1 load(1, XDATA, add(CFA_XSP16, literal(-12)))
        CFI (cfiCond202) V2 load(1, XDATA, add(CFA_XSP16, literal(-11)))
        CFI (cfiCond202) V3 load(1, XDATA, add(CFA_XSP16, literal(-10)))
        CFI (cfiCond202) V4 load(1, XDATA, add(CFA_XSP16, literal(-9)))
        CFI (cfiCond202) V5 load(1, XDATA, add(CFA_XSP16, literal(-8)))
        CFI (cfiCond202) V6 load(1, XDATA, add(CFA_XSP16, literal(-7)))
        CFI (cfiCond202) R7 load(1, XDATA, add(CFA_XSP16, literal(-6)))
        CFI (cfiCond202) ?RET_LOW load(1, XDATA, add(CFA_XSP16, literal(-5)))
        CFI (cfiCond202) ?RET_HIGH load(1, XDATA, add(CFA_XSP16, literal(-4)))
        CFI (cfiCond202) ?BRET_EXT load(1, XDATA, add(CFA_XSP16, literal(-3)))
        CFI (cfiCond202) DPL0 load(1, XDATA, add(CFA_XSP16, literal(-2)))
        CFI (cfiCond202) DPH0 load(1, XDATA, add(CFA_XSP16, literal(-1)))
        CFI (cfiCond202) CFA_SP SP+0
        CFI (cfiCond202) CFA_XSP16 add(XSP16, 16)
        CFI Block cfiCond203 Using cfiCommon0
        CFI (cfiCond203) NoFunction
        CFI (cfiCond203) Conditional ??CrossCallReturnLabel_53, ??CrossCallReturnLabel_15
        CFI (cfiCond203) R6 load(1, XDATA, add(CFA_XSP16, literal(-11)))
        CFI (cfiCond203) VB load(1, XDATA, add(CFA_XSP16, literal(-10)))
        CFI (cfiCond203) V0 load(1, XDATA, add(CFA_XSP16, literal(-9)))
        CFI (cfiCond203) V1 load(1, XDATA, add(CFA_XSP16, literal(-8)))
        CFI (cfiCond203) V2 load(1, XDATA, add(CFA_XSP16, literal(-7)))
        CFI (cfiCond203) R7 load(1, XDATA, add(CFA_XSP16, literal(-6)))
        CFI (cfiCond203) ?RET_LOW load(1, XDATA, add(CFA_XSP16, literal(-5)))
        CFI (cfiCond203) ?RET_HIGH load(1, XDATA, add(CFA_XSP16, literal(-4)))
        CFI (cfiCond203) ?BRET_EXT load(1, XDATA, add(CFA_XSP16, literal(-3)))
        CFI (cfiCond203) DPL0 load(1, XDATA, add(CFA_XSP16, literal(-2)))
        CFI (cfiCond203) DPH0 load(1, XDATA, add(CFA_XSP16, literal(-1)))
        CFI (cfiCond203) CFA_SP SP+0
        CFI (cfiCond203) CFA_XSP16 add(XSP16, 14)
        CFI Block cfiCond204 Using cfiCommon0
        CFI (cfiCond204) NoFunction
        CFI (cfiCond204) Conditional ??CrossCallReturnLabel_53, ??CrossCallReturnLabel_16
        CFI (cfiCond204) R6 load(1, XDATA, add(CFA_XSP16, literal(-15)))
        CFI (cfiCond204) VB load(1, XDATA, add(CFA_XSP16, literal(-14)))
        CFI (cfiCond204) V0 load(1, XDATA, add(CFA_XSP16, literal(-13)))
        CFI (cfiCond204) V1 load(1, XDATA, add(CFA_XSP16, literal(-12)))
        CFI (cfiCond204) V2 load(1, XDATA, add(CFA_XSP16, literal(-11)))
        CFI (cfiCond204) V3 load(1, XDATA, add(CFA_XSP16, literal(-10)))
        CFI (cfiCond204) V4 load(1, XDATA, add(CFA_XSP16, literal(-9)))
        CFI (cfiCond204) V5 load(1, XDATA, add(CFA_XSP16, literal(-8)))
        CFI (cfiCond204) V6 load(1, XDATA, add(CFA_XSP16, literal(-7)))
        CFI (cfiCond204) R7 load(1, XDATA, add(CFA_XSP16, literal(-6)))
        CFI (cfiCond204) ?RET_LOW load(1, XDATA, add(CFA_XSP16, literal(-5)))
        CFI (cfiCond204) ?RET_HIGH load(1, XDATA, add(CFA_XSP16, literal(-4)))
        CFI (cfiCond204) ?BRET_EXT load(1, XDATA, add(CFA_XSP16, literal(-3)))
        CFI (cfiCond204) DPL0 load(1, XDATA, add(CFA_XSP16, literal(-2)))
        CFI (cfiCond204) DPH0 load(1, XDATA, add(CFA_XSP16, literal(-1)))
        CFI (cfiCond204) CFA_SP SP+0
        CFI (cfiCond204) CFA_XSP16 add(XSP16, 15)
        CFI Block cfiCond205 Using cfiCommon0
        CFI (cfiCond205) NoFunction
        CFI (cfiCond205) Conditional ??CrossCallReturnLabel_53, ??CrossCallReturnLabel_17
        CFI (cfiCond205) R6 load(1, XDATA, add(CFA_XSP16, literal(-15)))
        CFI (cfiCond205) VB load(1, XDATA, add(CFA_XSP16, literal(-14)))
        CFI (cfiCond205) V0 load(1, XDATA, add(CFA_XSP16, literal(-13)))
        CFI (cfiCond205) V1 load(1, XDATA, add(CFA_XSP16, literal(-12)))
        CFI (cfiCond205) V2 load(1, XDATA, add(CFA_XSP16, literal(-11)))
        CFI (cfiCond205) V3 load(1, XDATA, add(CFA_XSP16, literal(-10)))
        CFI (cfiCond205) V4 load(1, XDATA, add(CFA_XSP16, literal(-9)))
        CFI (cfiCond205) V5 load(1, XDATA, add(CFA_XSP16, literal(-8)))
        CFI (cfiCond205) V6 load(1, XDATA, add(CFA_XSP16, literal(-7)))
        CFI (cfiCond205) R7 load(1, XDATA, add(CFA_XSP16, literal(-6)))
        CFI (cfiCond205) ?RET_LOW load(1, XDATA, add(CFA_XSP16, literal(-5)))
        CFI (cfiCond205) ?RET_HIGH load(1, XDATA, add(CFA_XSP16, literal(-4)))
        CFI (cfiCond205) ?BRET_EXT load(1, XDATA, add(CFA_XSP16, literal(-3)))
        CFI (cfiCond205) DPL0 load(1, XDATA, add(CFA_XSP16, literal(-2)))
        CFI (cfiCond205) DPH0 load(1, XDATA, add(CFA_XSP16, literal(-1)))
        CFI (cfiCond205) CFA_SP SP+0
        CFI (cfiCond205) CFA_XSP16 add(XSP16, 15)
        CFI Block cfiCond206 Using cfiCommon0
        CFI (cfiCond206) NoFunction
        CFI (cfiCond206) Conditional ??CrossCallReturnLabel_54, ??CrossCallReturnLabel_7
        CFI (cfiCond206) R6 load(1, XDATA, add(CFA_XSP16, literal(-12)))
        CFI (cfiCond206) VB load(1, XDATA, add(CFA_XSP16, literal(-11)))
        CFI (cfiCond206) V0 load(1, XDATA, add(CFA_XSP16, literal(-10)))
        CFI (cfiCond206) V1 load(1, XDATA, add(CFA_XSP16, literal(-9)))
        CFI (cfiCond206) V2 load(1, XDATA, add(CFA_XSP16, literal(-8)))
        CFI (cfiCond206) V3 load(1, XDATA, add(CFA_XSP16, literal(-7)))
        CFI (cfiCond206) R7 load(1, XDATA, add(CFA_XSP16, literal(-6)))
        CFI (cfiCond206) ?RET_LOW load(1, XDATA, add(CFA_XSP16, literal(-5)))
        CFI (cfiCond206) ?RET_HIGH load(1, XDATA, add(CFA_XSP16, literal(-4)))
        CFI (cfiCond206) ?BRET_EXT load(1, XDATA, add(CFA_XSP16, literal(-3)))
        CFI (cfiCond206) DPL0 load(1, XDATA, add(CFA_XSP16, literal(-2)))
        CFI (cfiCond206) DPH0 load(1, XDATA, add(CFA_XSP16, literal(-1)))
        CFI (cfiCond206) CFA_SP SP+0
        CFI (cfiCond206) CFA_XSP16 add(XSP16, 21)
        CFI Block cfiCond207 Using cfiCommon0
        CFI (cfiCond207) NoFunction
        CFI (cfiCond207) Conditional ??CrossCallReturnLabel_54, ??CrossCallReturnLabel_8
        CFI (cfiCond207) R6 load(1, XDATA, add(CFA_XSP16, literal(-11)))
        CFI (cfiCond207) VB load(1, XDATA, add(CFA_XSP16, literal(-10)))
        CFI (cfiCond207) V0 load(1, XDATA, add(CFA_XSP16, literal(-9)))
        CFI (cfiCond207) V1 load(1, XDATA, add(CFA_XSP16, literal(-8)))
        CFI (cfiCond207) V2 load(1, XDATA, add(CFA_XSP16, literal(-7)))
        CFI (cfiCond207) R7 load(1, XDATA, add(CFA_XSP16, literal(-6)))
        CFI (cfiCond207) ?RET_LOW load(1, XDATA, add(CFA_XSP16, literal(-5)))
        CFI (cfiCond207) ?RET_HIGH load(1, XDATA, add(CFA_XSP16, literal(-4)))
        CFI (cfiCond207) ?BRET_EXT load(1, XDATA, add(CFA_XSP16, literal(-3)))
        CFI (cfiCond207) DPL0 load(1, XDATA, add(CFA_XSP16, literal(-2)))
        CFI (cfiCond207) DPH0 load(1, XDATA, add(CFA_XSP16, literal(-1)))
        CFI (cfiCond207) CFA_SP SP+0
        CFI (cfiCond207) CFA_XSP16 add(XSP16, 11)
        CFI Block cfiCond208 Using cfiCommon0
        CFI (cfiCond208) NoFunction
        CFI (cfiCond208) Conditional ??CrossCallReturnLabel_54, ??CrossCallReturnLabel_9
        CFI (cfiCond208) R6 load(1, XDATA, add(CFA_XSP16, literal(-11)))
        CFI (cfiCond208) VB load(1, XDATA, add(CFA_XSP16, literal(-10)))
        CFI (cfiCond208) V0 load(1, XDATA, add(CFA_XSP16, literal(-9)))
        CFI (cfiCond208) V1 load(1, XDATA, add(CFA_XSP16, literal(-8)))
        CFI (cfiCond208) V2 load(1, XDATA, add(CFA_XSP16, literal(-7)))
        CFI (cfiCond208) R7 load(1, XDATA, add(CFA_XSP16, literal(-6)))
        CFI (cfiCond208) ?RET_LOW load(1, XDATA, add(CFA_XSP16, literal(-5)))
        CFI (cfiCond208) ?RET_HIGH load(1, XDATA, add(CFA_XSP16, literal(-4)))
        CFI (cfiCond208) ?BRET_EXT load(1, XDATA, add(CFA_XSP16, literal(-3)))
        CFI (cfiCond208) DPL0 load(1, XDATA, add(CFA_XSP16, literal(-2)))
        CFI (cfiCond208) DPH0 load(1, XDATA, add(CFA_XSP16, literal(-1)))
        CFI (cfiCond208) CFA_SP SP+0
        CFI (cfiCond208) CFA_XSP16 add(XSP16, 11)
        CFI Block cfiCond209 Using cfiCommon0
        CFI (cfiCond209) NoFunction
        CFI (cfiCond209) Conditional ??CrossCallReturnLabel_54, ??CrossCallReturnLabel_10
        CFI (cfiCond209) R6 load(1, XDATA, add(CFA_XSP16, literal(-15)))
        CFI (cfiCond209) VB load(1, XDATA, add(CFA_XSP16, literal(-14)))
        CFI (cfiCond209) V0 load(1, XDATA, add(CFA_XSP16, literal(-13)))
        CFI (cfiCond209) V1 load(1, XDATA, add(CFA_XSP16, literal(-12)))
        CFI (cfiCond209) V2 load(1, XDATA, add(CFA_XSP16, literal(-11)))
        CFI (cfiCond209) V3 load(1, XDATA, add(CFA_XSP16, literal(-10)))
        CFI (cfiCond209) V4 load(1, XDATA, add(CFA_XSP16, literal(-9)))
        CFI (cfiCond209) V5 load(1, XDATA, add(CFA_XSP16, literal(-8)))
        CFI (cfiCond209) V6 load(1, XDATA, add(CFA_XSP16, literal(-7)))
        CFI (cfiCond209) R7 load(1, XDATA, add(CFA_XSP16, literal(-6)))
        CFI (cfiCond209) ?RET_LOW load(1, XDATA, add(CFA_XSP16, literal(-5)))
        CFI (cfiCond209) ?RET_HIGH load(1, XDATA, add(CFA_XSP16, literal(-4)))
        CFI (cfiCond209) ?BRET_EXT load(1, XDATA, add(CFA_XSP16, literal(-3)))
        CFI (cfiCond209) DPL0 load(1, XDATA, add(CFA_XSP16, literal(-2)))
        CFI (cfiCond209) DPH0 load(1, XDATA, add(CFA_XSP16, literal(-1)))
        CFI (cfiCond209) CFA_SP SP+0
        CFI (cfiCond209) CFA_XSP16 add(XSP16, 15)
        CFI Block cfiCond210 Using cfiCommon0
        CFI (cfiCond210) NoFunction
        CFI (cfiCond210) Conditional ??CrossCallReturnLabel_54, ??CrossCallReturnLabel_11
        CFI (cfiCond210) R6 load(1, XDATA, add(CFA_XSP16, literal(-15)))
        CFI (cfiCond210) VB load(1, XDATA, add(CFA_XSP16, literal(-14)))
        CFI (cfiCond210) V0 load(1, XDATA, add(CFA_XSP16, literal(-13)))
        CFI (cfiCond210) V1 load(1, XDATA, add(CFA_XSP16, literal(-12)))
        CFI (cfiCond210) V2 load(1, XDATA, add(CFA_XSP16, literal(-11)))
        CFI (cfiCond210) V3 load(1, XDATA, add(CFA_XSP16, literal(-10)))
        CFI (cfiCond210) V4 load(1, XDATA, add(CFA_XSP16, literal(-9)))
        CFI (cfiCond210) V5 load(1, XDATA, add(CFA_XSP16, literal(-8)))
        CFI (cfiCond210) V6 load(1, XDATA, add(CFA_XSP16, literal(-7)))
        CFI (cfiCond210) R7 load(1, XDATA, add(CFA_XSP16, literal(-6)))
        CFI (cfiCond210) ?RET_LOW load(1, XDATA, add(CFA_XSP16, literal(-5)))
        CFI (cfiCond210) ?RET_HIGH load(1, XDATA, add(CFA_XSP16, literal(-4)))
        CFI (cfiCond210) ?BRET_EXT load(1, XDATA, add(CFA_XSP16, literal(-3)))
        CFI (cfiCond210) DPL0 load(1, XDATA, add(CFA_XSP16, literal(-2)))
        CFI (cfiCond210) DPH0 load(1, XDATA, add(CFA_XSP16, literal(-1)))
        CFI (cfiCond210) CFA_SP SP+0
        CFI (cfiCond210) CFA_XSP16 add(XSP16, 15)
        CFI Block cfiCond211 Using cfiCommon0
        CFI (cfiCond211) NoFunction
        CFI (cfiCond211) Conditional ??CrossCallReturnLabel_54, ??CrossCallReturnLabel_12
        CFI (cfiCond211) R6 load(1, XDATA, add(CFA_XSP16, literal(-15)))
        CFI (cfiCond211) VB load(1, XDATA, add(CFA_XSP16, literal(-14)))
        CFI (cfiCond211) V0 load(1, XDATA, add(CFA_XSP16, literal(-13)))
        CFI (cfiCond211) V1 load(1, XDATA, add(CFA_XSP16, literal(-12)))
        CFI (cfiCond211) V2 load(1, XDATA, add(CFA_XSP16, literal(-11)))
        CFI (cfiCond211) V3 load(1, XDATA, add(CFA_XSP16, literal(-10)))
        CFI (cfiCond211) V4 load(1, XDATA, add(CFA_XSP16, literal(-9)))
        CFI (cfiCond211) V5 load(1, XDATA, add(CFA_XSP16, literal(-8)))
        CFI (cfiCond211) V6 load(1, XDATA, add(CFA_XSP16, literal(-7)))
        CFI (cfiCond211) R7 load(1, XDATA, add(CFA_XSP16, literal(-6)))
        CFI (cfiCond211) ?RET_LOW load(1, XDATA, add(CFA_XSP16, literal(-5)))
        CFI (cfiCond211) ?RET_HIGH load(1, XDATA, add(CFA_XSP16, literal(-4)))
        CFI (cfiCond211) ?BRET_EXT load(1, XDATA, add(CFA_XSP16, literal(-3)))
        CFI (cfiCond211) DPL0 load(1, XDATA, add(CFA_XSP16, literal(-2)))
        CFI (cfiCond211) DPH0 load(1, XDATA, add(CFA_XSP16, literal(-1)))
        CFI (cfiCond211) CFA_SP SP+0
        CFI (cfiCond211) CFA_XSP16 add(XSP16, 15)
        CFI Block cfiPicker212 Using cfiCommon1
        CFI (cfiPicker212) NoFunction
        CFI (cfiPicker212) Picker
        MOV     DPTR,#optData
        MOVX    A,@DPTR
        MOV     R2,A
        INC     DPTR
        MOVX    A,@DPTR
        MOV     R3,A
        LCALL   ??osal_mem_free?relay
        MOV     DPTR,#optData
        CLR     A
        MOVX    @DPTR,A
        INC     DPTR
        MOVX    @DPTR,A
        RET
        CFI EndBlock cfiCond201
        CFI EndBlock cfiCond202
        CFI EndBlock cfiCond203
        CFI EndBlock cfiCond204
        CFI EndBlock cfiCond205
        CFI EndBlock cfiCond206
        CFI EndBlock cfiCond207
        CFI EndBlock cfiCond208
        CFI EndBlock cfiCond209
        CFI EndBlock cfiCond210
        CFI EndBlock cfiCond211
        CFI EndBlock cfiPicker212

        RSEG BANKED_CODE:CODE:NOROOT(0)
//  740 int8 get_rfid_data(uint8 *data, uint8 *dataLen)
get_rfid_data:
        CFI Block cfiBlock213 Using cfiCommon0
        CFI Function get_rfid_data
        CODE
//  741 {
        FUNCALL get_rfid_data, osal_mem_free
        LOCFRAME ISTACK, 0, STACK
        LOCFRAME PSTACK, 0, STACK
        LOCFRAME XSTACK, 15, STACK
        LOCFRAME IOVERLAY, 0, STATIC
        LOCFRAME DOVERLAY, 0, STATIC
        ARGFRAME ISTACK, 0, STACK
        ARGFRAME PSTACK, 0, STACK
        ARGFRAME XSTACK, 15, STACK
        ARGFRAME IOVERLAY, 0, STATIC
        ARGFRAME DOVERLAY, 0, STATIC
        FUNCALL get_rfid_data, osal_mem_alloc
        LOCFRAME ISTACK, 0, STACK
        LOCFRAME PSTACK, 0, STACK
        LOCFRAME XSTACK, 15, STACK
        LOCFRAME IOVERLAY, 0, STATIC
        LOCFRAME DOVERLAY, 0, STATIC
        ARGFRAME ISTACK, 0, STACK
        ARGFRAME PSTACK, 0, STACK
        ARGFRAME XSTACK, 15, STACK
        ARGFRAME IOVERLAY, 0, STATIC
        ARGFRAME DOVERLAY, 0, STATIC
        FUNCALL get_rfid_data, osal_memcpy
        LOCFRAME ISTACK, 0, STACK
        LOCFRAME PSTACK, 0, STACK
        LOCFRAME XSTACK, 18, STACK
        LOCFRAME IOVERLAY, 0, STATIC
        LOCFRAME DOVERLAY, 0, STATIC
        ARGFRAME ISTACK, 0, STACK
        ARGFRAME PSTACK, 0, STACK
        ARGFRAME XSTACK, 18, STACK
        ARGFRAME IOVERLAY, 0, STATIC
        ARGFRAME DOVERLAY, 0, STATIC
        FUNCALL get_rfid_data, incode_xtocs
        LOCFRAME ISTACK, 0, STACK
        LOCFRAME PSTACK, 0, STACK
        LOCFRAME XSTACK, 17, STACK
        LOCFRAME IOVERLAY, 0, STATIC
        LOCFRAME DOVERLAY, 0, STATIC
        ARGFRAME ISTACK, 0, STACK
        ARGFRAME PSTACK, 0, STACK
        ARGFRAME XSTACK, 17, STACK
        ARGFRAME IOVERLAY, 0, STATIC
        ARGFRAME DOVERLAY, 0, STATIC
        FUNCALL get_rfid_data, osal_memcpy
        LOCFRAME ISTACK, 0, STACK
        LOCFRAME PSTACK, 0, STACK
        LOCFRAME XSTACK, 18, STACK
        LOCFRAME IOVERLAY, 0, STATIC
        LOCFRAME DOVERLAY, 0, STATIC
        ARGFRAME ISTACK, 0, STACK
        ARGFRAME PSTACK, 0, STACK
        ARGFRAME XSTACK, 18, STACK
        ARGFRAME IOVERLAY, 0, STATIC
        ARGFRAME DOVERLAY, 0, STATIC
        FUNCALL get_rfid_data, osal_memcpy
        LOCFRAME ISTACK, 0, STACK
        LOCFRAME PSTACK, 0, STACK
        LOCFRAME XSTACK, 18, STACK
        LOCFRAME IOVERLAY, 0, STATIC
        LOCFRAME DOVERLAY, 0, STATIC
        ARGFRAME ISTACK, 0, STACK
        ARGFRAME PSTACK, 0, STACK
        ARGFRAME XSTACK, 18, STACK
        ARGFRAME IOVERLAY, 0, STATIC
        ARGFRAME DOVERLAY, 0, STATIC
        MOV     A,#-0xf
        LCALL   ?BANKED_ENTER_XDATA
        CFI DPH0 load(1, XDATA, add(CFA_XSP16, literal(-1)))
        CFI DPL0 load(1, XDATA, add(CFA_XSP16, literal(-2)))
        CFI ?BRET_EXT load(1, XDATA, add(CFA_XSP16, literal(-3)))
        CFI ?RET_HIGH load(1, XDATA, add(CFA_XSP16, literal(-4)))
        CFI ?RET_LOW load(1, XDATA, add(CFA_XSP16, literal(-5)))
        CFI R7 load(1, XDATA, add(CFA_XSP16, literal(-6)))
        CFI V6 load(1, XDATA, add(CFA_XSP16, literal(-7)))
        CFI V5 load(1, XDATA, add(CFA_XSP16, literal(-8)))
        CFI V4 load(1, XDATA, add(CFA_XSP16, literal(-9)))
        CFI V3 load(1, XDATA, add(CFA_XSP16, literal(-10)))
        CFI V2 load(1, XDATA, add(CFA_XSP16, literal(-11)))
        CFI V1 load(1, XDATA, add(CFA_XSP16, literal(-12)))
        CFI V0 load(1, XDATA, add(CFA_XSP16, literal(-13)))
        CFI VB load(1, XDATA, add(CFA_XSP16, literal(-14)))
        CFI R6 load(1, XDATA, add(CFA_XSP16, literal(-15)))
        CFI CFA_SP SP+0
        CFI CFA_XSP16 add(XSP16, 15)
        ; Saved register size: 15
        ; Auto size: 0
        LCALL   ?Subroutine12 & 0xFFFF
//  742 	if(optData != NULL && optDataLen < RFID_DATA_SIZE)
??CrossCallReturnLabel_103:
        JZ      ??CrossCallReturnLabel_17
        MOV     DPTR,#optDataLen
        MOVX    A,@DPTR
        CLR     C
        SUBB    A,#0x13
        JNC     ??CrossCallReturnLabel_41
//  743 	{
//  744 		osal_mem_free(optData);
        ; Setup parameters for call to function osal_mem_free
        LCALL   ?Subroutine10 & 0xFFFF
//  745 		optData = NULL;
//  746 	}
//  747 
//  748 	if(optData == NULL)
//  749 	{
//  750 		optData = osal_mem_alloc(RFID_DATA_SIZE);
??CrossCallReturnLabel_17:
        ; Setup parameters for call to function osal_mem_alloc
        LCALL   ?Subroutine24 & 0xFFFF
//  751 		optDataLen = RFID_DATA_SIZE;
//  752 	}
//  753 
//  754 	osal_memcpy(optData, DEMOBASE_DEVICE_RFID, 2);
??CrossCallReturnLabel_41:
        ; Setup parameters for call to function osal_memcpy
        MOV     ?V0 + 4,#`?<Constant "03">` & 0xff
        MOV     ?V0 + 5,#(`?<Constant "03">` >> 8) & 0xff
        MOV     ?V0 + 6,#0x0
        MOV     R0,#?V0 + 4
        LCALL   ?PUSH_XSTACK_I_THREE
        CFI CFA_XSP16 add(XSP16, 18)
        LCALL   ?Subroutine7 & 0xFFFF
??CrossCallReturnLabel_84:
        LCALL   ?DEALLOC_XSTACK8
        CFI CFA_XSP16 add(XSP16, 15)
//  755 
//  756 	if(queryStates)
        LCALL   ?Subroutine11 & 0xFFFF
??CrossCallReturnLabel_18:
        JZ      ??get_rfid_data_0
//  757 	{
//  758 		optData[2] = 'S';
        MOV     A,#0x53
        MOVX    @DPTR,A
//  759 		incode_xtocs(optData+3, ids, idlen);
        ; Setup parameters for call to function incode_xtocs
        MOV     DPTR,#idlen
        MOVX    A,@DPTR
        MOV     ?V0 + 2,A
        MOV     ?V0 + 3,#0x0
        MOV     R0,#?V0 + 2
        LCALL   ?PUSH_XSTACK_I_TWO
        CFI CFA_XSP16 add(XSP16, 17)
        LCALL   ?Subroutine8 & 0xFFFF
??CrossCallReturnLabel_130:
        LCALL   ?DEALLOC_XSTACK8
        CFI CFA_XSP16 add(XSP16, 15)
//  760 		
//  761 		osal_memcpy(data, optData, (idlen*2)+3);
        ; Setup parameters for call to function osal_memcpy
        LCALL   ??Subroutine50_0 & 0xFFFF
??CrossCallReturnLabel_125:
        LCALL   ?PUSH_XSTACK_I_THREE
        CFI CFA_XSP16 add(XSP16, 18)
        MOV     DPTR,#idlen
        MOVX    A,@DPTR
        CLR     C
        RLC     A
        MOV     R0,A
        CLR     A
        RLC     A
        MOV     R1,A
        MOV     A,R0
        ADD     A,#0x3
        MOV     R4,A
        MOV     A,R1
        ADDC    A,#0x0
        MOV     R5,A
        LCALL   ??Subroutine43_0 & 0xFFFF
??CrossCallReturnLabel_97:
        LCALL   ?DEALLOC_XSTACK8
        CFI CFA_XSP16 add(XSP16, 15)
//  762 		*dataLen = (idlen*2)+3;
        MOV     DPTR,#idlen
        MOVX    A,@DPTR
        CLR     C
        RLC     A
        ADD     A,#0x3
        MOV     DPL,?V0 + 0
        MOV     DPH,?V0 + 1
        SJMP    ??get_rfid_data_1
//  763 	}
//  764 	else
//  765 	{
//  766 		optData[2] = 'P';
??get_rfid_data_0:
        LCALL   ?Subroutine9 & 0xFFFF
//  767 		osal_memcpy(data, optData, 3);
??CrossCallReturnLabel_117:
        LCALL   ?PUSH_XSTACK_I_THREE
        CFI CFA_XSP16 add(XSP16, 18)
        LCALL   ?Subroutine27 & 0xFFFF
??CrossCallReturnLabel_89:
        LCALL   ?DEALLOC_XSTACK8
        CFI CFA_XSP16 add(XSP16, 15)
//  768 		*dataLen = 3;
        MOV     DPL,?V0 + 0
        MOV     DPH,?V0 + 1
        MOV     A,#0x3
//  769 	}
??get_rfid_data_1:
        LJMP    ?Subroutine3 & 0xFFFF
        CFI EndBlock cfiBlock213
//  770 
//  771 	return 0;
//  772 }

        RSEG BANKED_CODE:CODE:NOROOT(0)
?Subroutine24:
        CFI Block cfiCond214 Using cfiCommon0
        CFI NoFunction
        CFI Conditional ??CrossCallReturnLabel_40
        CFI R6 load(1, XDATA, add(CFA_XSP16, literal(-11)))
        CFI VB load(1, XDATA, add(CFA_XSP16, literal(-10)))
        CFI V0 load(1, XDATA, add(CFA_XSP16, literal(-9)))
        CFI V1 load(1, XDATA, add(CFA_XSP16, literal(-8)))
        CFI V2 load(1, XDATA, add(CFA_XSP16, literal(-7)))
        CFI R7 load(1, XDATA, add(CFA_XSP16, literal(-6)))
        CFI ?RET_LOW load(1, XDATA, add(CFA_XSP16, literal(-5)))
        CFI ?RET_HIGH load(1, XDATA, add(CFA_XSP16, literal(-4)))
        CFI ?BRET_EXT load(1, XDATA, add(CFA_XSP16, literal(-3)))
        CFI DPL0 load(1, XDATA, add(CFA_XSP16, literal(-2)))
        CFI DPH0 load(1, XDATA, add(CFA_XSP16, literal(-1)))
        CFI CFA_SP SP+0
        CFI CFA_XSP16 add(XSP16, 14)
        CFI Block cfiCond215 Using cfiCommon0
        CFI (cfiCond215) NoFunction
        CFI (cfiCond215) Conditional ??CrossCallReturnLabel_41
        CFI (cfiCond215) R6 load(1, XDATA, add(CFA_XSP16, literal(-15)))
        CFI (cfiCond215) VB load(1, XDATA, add(CFA_XSP16, literal(-14)))
        CFI (cfiCond215) V0 load(1, XDATA, add(CFA_XSP16, literal(-13)))
        CFI (cfiCond215) V1 load(1, XDATA, add(CFA_XSP16, literal(-12)))
        CFI (cfiCond215) V2 load(1, XDATA, add(CFA_XSP16, literal(-11)))
        CFI (cfiCond215) V3 load(1, XDATA, add(CFA_XSP16, literal(-10)))
        CFI (cfiCond215) V4 load(1, XDATA, add(CFA_XSP16, literal(-9)))
        CFI (cfiCond215) V5 load(1, XDATA, add(CFA_XSP16, literal(-8)))
        CFI (cfiCond215) V6 load(1, XDATA, add(CFA_XSP16, literal(-7)))
        CFI (cfiCond215) R7 load(1, XDATA, add(CFA_XSP16, literal(-6)))
        CFI (cfiCond215) ?RET_LOW load(1, XDATA, add(CFA_XSP16, literal(-5)))
        CFI (cfiCond215) ?RET_HIGH load(1, XDATA, add(CFA_XSP16, literal(-4)))
        CFI (cfiCond215) ?BRET_EXT load(1, XDATA, add(CFA_XSP16, literal(-3)))
        CFI (cfiCond215) DPL0 load(1, XDATA, add(CFA_XSP16, literal(-2)))
        CFI (cfiCond215) DPH0 load(1, XDATA, add(CFA_XSP16, literal(-1)))
        CFI (cfiCond215) CFA_SP SP+0
        CFI (cfiCond215) CFA_XSP16 add(XSP16, 15)
        CFI Block cfiPicker216 Using cfiCommon1
        CFI (cfiPicker216) NoFunction
        CFI (cfiPicker216) Picker
        MOV     R2,#0x13
        LCALL   ?Subroutine30 & 0xFFFF
??CrossCallReturnLabel_50:
        MOV     A,#0x13
        MOVX    @DPTR,A
        RET
        CFI EndBlock cfiCond214
        CFI EndBlock cfiCond215
        CFI EndBlock cfiPicker216

        RSEG BANKED_CODE:CODE:NOROOT(0)
?Subroutine30:
        CFI Block cfiCond217 Using cfiCommon0
        CFI NoFunction
        CFI Conditional ??CrossCallReturnLabel_48, ??CrossCallReturnLabel_38
        CFI R6 load(1, XDATA, add(CFA_XSP16, literal(-15)))
        CFI VB load(1, XDATA, add(CFA_XSP16, literal(-14)))
        CFI V0 load(1, XDATA, add(CFA_XSP16, literal(-13)))
        CFI V1 load(1, XDATA, add(CFA_XSP16, literal(-12)))
        CFI V2 load(1, XDATA, add(CFA_XSP16, literal(-11)))
        CFI V3 load(1, XDATA, add(CFA_XSP16, literal(-10)))
        CFI V4 load(1, XDATA, add(CFA_XSP16, literal(-9)))
        CFI V5 load(1, XDATA, add(CFA_XSP16, literal(-8)))
        CFI V6 load(1, XDATA, add(CFA_XSP16, literal(-7)))
        CFI R7 load(1, XDATA, add(CFA_XSP16, literal(-6)))
        CFI ?RET_LOW load(1, XDATA, add(CFA_XSP16, literal(-5)))
        CFI ?RET_HIGH load(1, XDATA, add(CFA_XSP16, literal(-4)))
        CFI ?BRET_EXT load(1, XDATA, add(CFA_XSP16, literal(-3)))
        CFI DPL0 load(1, XDATA, add(CFA_XSP16, literal(-2)))
        CFI DPH0 load(1, XDATA, add(CFA_XSP16, literal(-1)))
        CFI CFA_SP SP+0
        CFI CFA_XSP16 add(XSP16, 16)
        CFI Block cfiCond218 Using cfiCommon0
        CFI (cfiCond218) NoFunction
        CFI (cfiCond218) Conditional ??CrossCallReturnLabel_48, ??CrossCallReturnLabel_39
        CFI (cfiCond218) R6 load(1, XDATA, add(CFA_XSP16, literal(-15)))
        CFI (cfiCond218) VB load(1, XDATA, add(CFA_XSP16, literal(-14)))
        CFI (cfiCond218) V0 load(1, XDATA, add(CFA_XSP16, literal(-13)))
        CFI (cfiCond218) V1 load(1, XDATA, add(CFA_XSP16, literal(-12)))
        CFI (cfiCond218) V2 load(1, XDATA, add(CFA_XSP16, literal(-11)))
        CFI (cfiCond218) V3 load(1, XDATA, add(CFA_XSP16, literal(-10)))
        CFI (cfiCond218) V4 load(1, XDATA, add(CFA_XSP16, literal(-9)))
        CFI (cfiCond218) V5 load(1, XDATA, add(CFA_XSP16, literal(-8)))
        CFI (cfiCond218) V6 load(1, XDATA, add(CFA_XSP16, literal(-7)))
        CFI (cfiCond218) R7 load(1, XDATA, add(CFA_XSP16, literal(-6)))
        CFI (cfiCond218) ?RET_LOW load(1, XDATA, add(CFA_XSP16, literal(-5)))
        CFI (cfiCond218) ?RET_HIGH load(1, XDATA, add(CFA_XSP16, literal(-4)))
        CFI (cfiCond218) ?BRET_EXT load(1, XDATA, add(CFA_XSP16, literal(-3)))
        CFI (cfiCond218) DPL0 load(1, XDATA, add(CFA_XSP16, literal(-2)))
        CFI (cfiCond218) DPH0 load(1, XDATA, add(CFA_XSP16, literal(-1)))
        CFI (cfiCond218) CFA_SP SP+0
        CFI (cfiCond218) CFA_XSP16 add(XSP16, 16)
        CFI Block cfiCond219 Using cfiCommon0
        CFI (cfiCond219) NoFunction
        CFI (cfiCond219) Conditional ??CrossCallReturnLabel_49
        CFI (cfiCond219) R6 load(1, XDATA, add(CFA_XSP16, literal(-15)))
        CFI (cfiCond219) VB load(1, XDATA, add(CFA_XSP16, literal(-14)))
        CFI (cfiCond219) V0 load(1, XDATA, add(CFA_XSP16, literal(-13)))
        CFI (cfiCond219) V1 load(1, XDATA, add(CFA_XSP16, literal(-12)))
        CFI (cfiCond219) V2 load(1, XDATA, add(CFA_XSP16, literal(-11)))
        CFI (cfiCond219) V3 load(1, XDATA, add(CFA_XSP16, literal(-10)))
        CFI (cfiCond219) V4 load(1, XDATA, add(CFA_XSP16, literal(-9)))
        CFI (cfiCond219) V5 load(1, XDATA, add(CFA_XSP16, literal(-8)))
        CFI (cfiCond219) V6 load(1, XDATA, add(CFA_XSP16, literal(-7)))
        CFI (cfiCond219) R7 load(1, XDATA, add(CFA_XSP16, literal(-6)))
        CFI (cfiCond219) ?RET_LOW load(1, XDATA, add(CFA_XSP16, literal(-5)))
        CFI (cfiCond219) ?RET_HIGH load(1, XDATA, add(CFA_XSP16, literal(-4)))
        CFI (cfiCond219) ?BRET_EXT load(1, XDATA, add(CFA_XSP16, literal(-3)))
        CFI (cfiCond219) DPL0 load(1, XDATA, add(CFA_XSP16, literal(-2)))
        CFI (cfiCond219) DPH0 load(1, XDATA, add(CFA_XSP16, literal(-1)))
        CFI (cfiCond219) CFA_SP SP+0
        CFI (cfiCond219) CFA_XSP16 add(XSP16, 15)
        CFI Block cfiCond220 Using cfiCommon0
        CFI (cfiCond220) NoFunction
        CFI (cfiCond220) Conditional ??CrossCallReturnLabel_50, ??CrossCallReturnLabel_40
        CFI (cfiCond220) R6 load(1, XDATA, add(CFA_XSP16, literal(-11)))
        CFI (cfiCond220) VB load(1, XDATA, add(CFA_XSP16, literal(-10)))
        CFI (cfiCond220) V0 load(1, XDATA, add(CFA_XSP16, literal(-9)))
        CFI (cfiCond220) V1 load(1, XDATA, add(CFA_XSP16, literal(-8)))
        CFI (cfiCond220) V2 load(1, XDATA, add(CFA_XSP16, literal(-7)))
        CFI (cfiCond220) R7 load(1, XDATA, add(CFA_XSP16, literal(-6)))
        CFI (cfiCond220) ?RET_LOW load(1, XDATA, add(CFA_XSP16, literal(-5)))
        CFI (cfiCond220) ?RET_HIGH load(1, XDATA, add(CFA_XSP16, literal(-4)))
        CFI (cfiCond220) ?BRET_EXT load(1, XDATA, add(CFA_XSP16, literal(-3)))
        CFI (cfiCond220) DPL0 load(1, XDATA, add(CFA_XSP16, literal(-2)))
        CFI (cfiCond220) DPH0 load(1, XDATA, add(CFA_XSP16, literal(-1)))
        CFI (cfiCond220) CFA_SP SP+0
        CFI (cfiCond220) CFA_XSP16 add(XSP16, 14)
        CFI Block cfiCond221 Using cfiCommon0
        CFI (cfiCond221) NoFunction
        CFI (cfiCond221) Conditional ??CrossCallReturnLabel_50, ??CrossCallReturnLabel_41
        CFI (cfiCond221) R6 load(1, XDATA, add(CFA_XSP16, literal(-15)))
        CFI (cfiCond221) VB load(1, XDATA, add(CFA_XSP16, literal(-14)))
        CFI (cfiCond221) V0 load(1, XDATA, add(CFA_XSP16, literal(-13)))
        CFI (cfiCond221) V1 load(1, XDATA, add(CFA_XSP16, literal(-12)))
        CFI (cfiCond221) V2 load(1, XDATA, add(CFA_XSP16, literal(-11)))
        CFI (cfiCond221) V3 load(1, XDATA, add(CFA_XSP16, literal(-10)))
        CFI (cfiCond221) V4 load(1, XDATA, add(CFA_XSP16, literal(-9)))
        CFI (cfiCond221) V5 load(1, XDATA, add(CFA_XSP16, literal(-8)))
        CFI (cfiCond221) V6 load(1, XDATA, add(CFA_XSP16, literal(-7)))
        CFI (cfiCond221) R7 load(1, XDATA, add(CFA_XSP16, literal(-6)))
        CFI (cfiCond221) ?RET_LOW load(1, XDATA, add(CFA_XSP16, literal(-5)))
        CFI (cfiCond221) ?RET_HIGH load(1, XDATA, add(CFA_XSP16, literal(-4)))
        CFI (cfiCond221) ?BRET_EXT load(1, XDATA, add(CFA_XSP16, literal(-3)))
        CFI (cfiCond221) DPL0 load(1, XDATA, add(CFA_XSP16, literal(-2)))
        CFI (cfiCond221) DPH0 load(1, XDATA, add(CFA_XSP16, literal(-1)))
        CFI (cfiCond221) CFA_SP SP+0
        CFI (cfiCond221) CFA_XSP16 add(XSP16, 15)
        CFI Block cfiCond222 Using cfiCommon0
        CFI (cfiCond222) NoFunction
        CFI (cfiCond222) Conditional ??CrossCallReturnLabel_51, ??CrossCallReturnLabel_42
        CFI (cfiCond222) R6 load(1, XDATA, add(CFA_XSP16, literal(-12)))
        CFI (cfiCond222) VB load(1, XDATA, add(CFA_XSP16, literal(-11)))
        CFI (cfiCond222) V0 load(1, XDATA, add(CFA_XSP16, literal(-10)))
        CFI (cfiCond222) V1 load(1, XDATA, add(CFA_XSP16, literal(-9)))
        CFI (cfiCond222) V2 load(1, XDATA, add(CFA_XSP16, literal(-8)))
        CFI (cfiCond222) V3 load(1, XDATA, add(CFA_XSP16, literal(-7)))
        CFI (cfiCond222) R7 load(1, XDATA, add(CFA_XSP16, literal(-6)))
        CFI (cfiCond222) ?RET_LOW load(1, XDATA, add(CFA_XSP16, literal(-5)))
        CFI (cfiCond222) ?RET_HIGH load(1, XDATA, add(CFA_XSP16, literal(-4)))
        CFI (cfiCond222) ?BRET_EXT load(1, XDATA, add(CFA_XSP16, literal(-3)))
        CFI (cfiCond222) DPL0 load(1, XDATA, add(CFA_XSP16, literal(-2)))
        CFI (cfiCond222) DPH0 load(1, XDATA, add(CFA_XSP16, literal(-1)))
        CFI (cfiCond222) CFA_SP SP+0
        CFI (cfiCond222) CFA_XSP16 add(XSP16, 21)
        CFI Block cfiCond223 Using cfiCommon0
        CFI (cfiCond223) NoFunction
        CFI (cfiCond223) Conditional ??CrossCallReturnLabel_51, ??CrossCallReturnLabel_43
        CFI (cfiCond223) R6 load(1, XDATA, add(CFA_XSP16, literal(-15)))
        CFI (cfiCond223) VB load(1, XDATA, add(CFA_XSP16, literal(-14)))
        CFI (cfiCond223) V0 load(1, XDATA, add(CFA_XSP16, literal(-13)))
        CFI (cfiCond223) V1 load(1, XDATA, add(CFA_XSP16, literal(-12)))
        CFI (cfiCond223) V2 load(1, XDATA, add(CFA_XSP16, literal(-11)))
        CFI (cfiCond223) V3 load(1, XDATA, add(CFA_XSP16, literal(-10)))
        CFI (cfiCond223) V4 load(1, XDATA, add(CFA_XSP16, literal(-9)))
        CFI (cfiCond223) V5 load(1, XDATA, add(CFA_XSP16, literal(-8)))
        CFI (cfiCond223) V6 load(1, XDATA, add(CFA_XSP16, literal(-7)))
        CFI (cfiCond223) R7 load(1, XDATA, add(CFA_XSP16, literal(-6)))
        CFI (cfiCond223) ?RET_LOW load(1, XDATA, add(CFA_XSP16, literal(-5)))
        CFI (cfiCond223) ?RET_HIGH load(1, XDATA, add(CFA_XSP16, literal(-4)))
        CFI (cfiCond223) ?BRET_EXT load(1, XDATA, add(CFA_XSP16, literal(-3)))
        CFI (cfiCond223) DPL0 load(1, XDATA, add(CFA_XSP16, literal(-2)))
        CFI (cfiCond223) DPH0 load(1, XDATA, add(CFA_XSP16, literal(-1)))
        CFI (cfiCond223) CFA_SP SP+0
        CFI (cfiCond223) CFA_XSP16 add(XSP16, 15)
        CFI Block cfiCond224 Using cfiCommon0
        CFI (cfiCond224) NoFunction
        CFI (cfiCond224) Conditional ??CrossCallReturnLabel_52, ??CrossCallReturnLabel_34
        CFI (cfiCond224) R6 load(1, XDATA, add(CFA_XSP16, literal(-11)))
        CFI (cfiCond224) VB load(1, XDATA, add(CFA_XSP16, literal(-10)))
        CFI (cfiCond224) V0 load(1, XDATA, add(CFA_XSP16, literal(-9)))
        CFI (cfiCond224) V1 load(1, XDATA, add(CFA_XSP16, literal(-8)))
        CFI (cfiCond224) V2 load(1, XDATA, add(CFA_XSP16, literal(-7)))
        CFI (cfiCond224) R7 load(1, XDATA, add(CFA_XSP16, literal(-6)))
        CFI (cfiCond224) ?RET_LOW load(1, XDATA, add(CFA_XSP16, literal(-5)))
        CFI (cfiCond224) ?RET_HIGH load(1, XDATA, add(CFA_XSP16, literal(-4)))
        CFI (cfiCond224) ?BRET_EXT load(1, XDATA, add(CFA_XSP16, literal(-3)))
        CFI (cfiCond224) DPL0 load(1, XDATA, add(CFA_XSP16, literal(-2)))
        CFI (cfiCond224) DPH0 load(1, XDATA, add(CFA_XSP16, literal(-1)))
        CFI (cfiCond224) CFA_SP SP+0
        CFI (cfiCond224) CFA_XSP16 add(XSP16, 11)
        CFI Block cfiCond225 Using cfiCommon0
        CFI (cfiCond225) NoFunction
        CFI (cfiCond225) Conditional ??CrossCallReturnLabel_52, ??CrossCallReturnLabel_35
        CFI (cfiCond225) R6 load(1, XDATA, add(CFA_XSP16, literal(-11)))
        CFI (cfiCond225) VB load(1, XDATA, add(CFA_XSP16, literal(-10)))
        CFI (cfiCond225) V0 load(1, XDATA, add(CFA_XSP16, literal(-9)))
        CFI (cfiCond225) V1 load(1, XDATA, add(CFA_XSP16, literal(-8)))
        CFI (cfiCond225) V2 load(1, XDATA, add(CFA_XSP16, literal(-7)))
        CFI (cfiCond225) R7 load(1, XDATA, add(CFA_XSP16, literal(-6)))
        CFI (cfiCond225) ?RET_LOW load(1, XDATA, add(CFA_XSP16, literal(-5)))
        CFI (cfiCond225) ?RET_HIGH load(1, XDATA, add(CFA_XSP16, literal(-4)))
        CFI (cfiCond225) ?BRET_EXT load(1, XDATA, add(CFA_XSP16, literal(-3)))
        CFI (cfiCond225) DPL0 load(1, XDATA, add(CFA_XSP16, literal(-2)))
        CFI (cfiCond225) DPH0 load(1, XDATA, add(CFA_XSP16, literal(-1)))
        CFI (cfiCond225) CFA_SP SP+0
        CFI (cfiCond225) CFA_XSP16 add(XSP16, 11)
        CFI Block cfiCond226 Using cfiCommon0
        CFI (cfiCond226) NoFunction
        CFI (cfiCond226) Conditional ??CrossCallReturnLabel_52, ??CrossCallReturnLabel_36
        CFI (cfiCond226) R6 load(1, XDATA, add(CFA_XSP16, literal(-15)))
        CFI (cfiCond226) VB load(1, XDATA, add(CFA_XSP16, literal(-14)))
        CFI (cfiCond226) V0 load(1, XDATA, add(CFA_XSP16, literal(-13)))
        CFI (cfiCond226) V1 load(1, XDATA, add(CFA_XSP16, literal(-12)))
        CFI (cfiCond226) V2 load(1, XDATA, add(CFA_XSP16, literal(-11)))
        CFI (cfiCond226) V3 load(1, XDATA, add(CFA_XSP16, literal(-10)))
        CFI (cfiCond226) V4 load(1, XDATA, add(CFA_XSP16, literal(-9)))
        CFI (cfiCond226) V5 load(1, XDATA, add(CFA_XSP16, literal(-8)))
        CFI (cfiCond226) V6 load(1, XDATA, add(CFA_XSP16, literal(-7)))
        CFI (cfiCond226) R7 load(1, XDATA, add(CFA_XSP16, literal(-6)))
        CFI (cfiCond226) ?RET_LOW load(1, XDATA, add(CFA_XSP16, literal(-5)))
        CFI (cfiCond226) ?RET_HIGH load(1, XDATA, add(CFA_XSP16, literal(-4)))
        CFI (cfiCond226) ?BRET_EXT load(1, XDATA, add(CFA_XSP16, literal(-3)))
        CFI (cfiCond226) DPL0 load(1, XDATA, add(CFA_XSP16, literal(-2)))
        CFI (cfiCond226) DPH0 load(1, XDATA, add(CFA_XSP16, literal(-1)))
        CFI (cfiCond226) CFA_SP SP+0
        CFI (cfiCond226) CFA_XSP16 add(XSP16, 15)
        CFI Block cfiCond227 Using cfiCommon0
        CFI (cfiCond227) NoFunction
        CFI (cfiCond227) Conditional ??CrossCallReturnLabel_52, ??CrossCallReturnLabel_37
        CFI (cfiCond227) R6 load(1, XDATA, add(CFA_XSP16, literal(-15)))
        CFI (cfiCond227) VB load(1, XDATA, add(CFA_XSP16, literal(-14)))
        CFI (cfiCond227) V0 load(1, XDATA, add(CFA_XSP16, literal(-13)))
        CFI (cfiCond227) V1 load(1, XDATA, add(CFA_XSP16, literal(-12)))
        CFI (cfiCond227) V2 load(1, XDATA, add(CFA_XSP16, literal(-11)))
        CFI (cfiCond227) V3 load(1, XDATA, add(CFA_XSP16, literal(-10)))
        CFI (cfiCond227) V4 load(1, XDATA, add(CFA_XSP16, literal(-9)))
        CFI (cfiCond227) V5 load(1, XDATA, add(CFA_XSP16, literal(-8)))
        CFI (cfiCond227) V6 load(1, XDATA, add(CFA_XSP16, literal(-7)))
        CFI (cfiCond227) R7 load(1, XDATA, add(CFA_XSP16, literal(-6)))
        CFI (cfiCond227) ?RET_LOW load(1, XDATA, add(CFA_XSP16, literal(-5)))
        CFI (cfiCond227) ?RET_HIGH load(1, XDATA, add(CFA_XSP16, literal(-4)))
        CFI (cfiCond227) ?BRET_EXT load(1, XDATA, add(CFA_XSP16, literal(-3)))
        CFI (cfiCond227) DPL0 load(1, XDATA, add(CFA_XSP16, literal(-2)))
        CFI (cfiCond227) DPH0 load(1, XDATA, add(CFA_XSP16, literal(-1)))
        CFI (cfiCond227) CFA_SP SP+0
        CFI (cfiCond227) CFA_XSP16 add(XSP16, 15)
        CFI Block cfiPicker228 Using cfiCommon1
        CFI (cfiPicker228) NoFunction
        CFI (cfiPicker228) Picker
        MOV     R3,#0x0
        LCALL   ??osal_mem_alloc?relay
        MOV     DPTR,#optData
        MOV     A,R2
        MOVX    @DPTR,A
        INC     DPTR
        MOV     A,R3
        MOVX    @DPTR,A
        MOV     DPTR,#optDataLen
        RET
        CFI EndBlock cfiCond217
        CFI EndBlock cfiCond218
        CFI EndBlock cfiCond219
        CFI EndBlock cfiCond220
        CFI EndBlock cfiCond221
        CFI EndBlock cfiCond222
        CFI EndBlock cfiCond223
        CFI EndBlock cfiCond224
        CFI EndBlock cfiCond225
        CFI EndBlock cfiCond226
        CFI EndBlock cfiCond227
        CFI EndBlock cfiPicker228

        RSEG BANKED_CODE:CODE:NOROOT(0)
?Subroutine1:
        CFI Block cfiBlock229 Using cfiCommon0
        CFI NoFunction
        CFI CFA_SP SP+0
        CFI CFA_XSP16 add(XSP16, 16)
        CFI VB load(1, XDATA, add(CFA_XSP16, literal(-14)))
        CFI DPL0 load(1, XDATA, add(CFA_XSP16, literal(-2)))
        CFI DPH0 load(1, XDATA, add(CFA_XSP16, literal(-1)))
        CFI R6 load(1, XDATA, add(CFA_XSP16, literal(-15)))
        CFI R7 load(1, XDATA, add(CFA_XSP16, literal(-6)))
        CFI V0 load(1, XDATA, add(CFA_XSP16, literal(-13)))
        CFI V1 load(1, XDATA, add(CFA_XSP16, literal(-12)))
        CFI V2 load(1, XDATA, add(CFA_XSP16, literal(-11)))
        CFI V3 load(1, XDATA, add(CFA_XSP16, literal(-10)))
        CFI V4 load(1, XDATA, add(CFA_XSP16, literal(-9)))
        CFI V5 load(1, XDATA, add(CFA_XSP16, literal(-8)))
        CFI V6 load(1, XDATA, add(CFA_XSP16, literal(-7)))
        CFI ?BRET_EXT load(1, XDATA, add(CFA_XSP16, literal(-3)))
        CFI ?RET_HIGH load(1, XDATA, add(CFA_XSP16, literal(-4)))
        CFI ?RET_LOW load(1, XDATA, add(CFA_XSP16, literal(-5)))
        MOV     A,#0x1
        LCALL   ?DEALLOC_XSTACK8
        CFI EndBlock cfiBlock229
        REQUIRE ??Subroutine47_0
        ; // Fall through to label ??Subroutine47_0

        RSEG BANKED_CODE:CODE:NOROOT(0)
??Subroutine47_0:
        CFI Block cfiBlock230 Using cfiCommon0
        CFI NoFunction
        CFI CFA_SP SP+0
        CFI CFA_XSP16 add(XSP16, 15)
        CFI VB load(1, XDATA, add(CFA_XSP16, literal(-14)))
        CFI DPL0 load(1, XDATA, add(CFA_XSP16, literal(-2)))
        CFI DPH0 load(1, XDATA, add(CFA_XSP16, literal(-1)))
        CFI R6 load(1, XDATA, add(CFA_XSP16, literal(-15)))
        CFI R7 load(1, XDATA, add(CFA_XSP16, literal(-6)))
        CFI V0 load(1, XDATA, add(CFA_XSP16, literal(-13)))
        CFI V1 load(1, XDATA, add(CFA_XSP16, literal(-12)))
        CFI V2 load(1, XDATA, add(CFA_XSP16, literal(-11)))
        CFI V3 load(1, XDATA, add(CFA_XSP16, literal(-10)))
        CFI V4 load(1, XDATA, add(CFA_XSP16, literal(-9)))
        CFI V5 load(1, XDATA, add(CFA_XSP16, literal(-8)))
        CFI V6 load(1, XDATA, add(CFA_XSP16, literal(-7)))
        CFI ?BRET_EXT load(1, XDATA, add(CFA_XSP16, literal(-3)))
        CFI ?RET_HIGH load(1, XDATA, add(CFA_XSP16, literal(-4)))
        CFI ?RET_LOW load(1, XDATA, add(CFA_XSP16, literal(-5)))
        MOV     R7,#0x7
        LJMP    ?BANKED_LEAVE_XDATA
        CFI EndBlock cfiBlock230
//  773 

        RSEG BANKED_CODE:CODE:NOROOT(0)
//  774 int8 get_humiture_data(uint8 *data, uint8 *dataLen)
get_humiture_data:
        CFI Block cfiBlock231 Using cfiCommon0
        CFI Function get_humiture_data
        CODE
//  775 {
        FUNCALL get_humiture_data, osal_mem_free
        LOCFRAME ISTACK, 0, STACK
        LOCFRAME PSTACK, 0, STACK
        LOCFRAME XSTACK, 15, STACK
        LOCFRAME IOVERLAY, 0, STATIC
        LOCFRAME DOVERLAY, 0, STATIC
        ARGFRAME ISTACK, 0, STACK
        ARGFRAME PSTACK, 0, STACK
        ARGFRAME XSTACK, 15, STACK
        ARGFRAME IOVERLAY, 0, STATIC
        ARGFRAME DOVERLAY, 0, STATIC
        FUNCALL get_humiture_data, osal_mem_alloc
        LOCFRAME ISTACK, 0, STACK
        LOCFRAME PSTACK, 0, STACK
        LOCFRAME XSTACK, 15, STACK
        LOCFRAME IOVERLAY, 0, STATIC
        LOCFRAME DOVERLAY, 0, STATIC
        ARGFRAME ISTACK, 0, STACK
        ARGFRAME PSTACK, 0, STACK
        ARGFRAME XSTACK, 15, STACK
        ARGFRAME IOVERLAY, 0, STATIC
        ARGFRAME DOVERLAY, 0, STATIC
        FUNCALL get_humiture_data, osal_memcpy
        LOCFRAME ISTACK, 0, STACK
        LOCFRAME PSTACK, 0, STACK
        LOCFRAME XSTACK, 18, STACK
        LOCFRAME IOVERLAY, 0, STATIC
        LOCFRAME DOVERLAY, 0, STATIC
        ARGFRAME ISTACK, 0, STACK
        ARGFRAME PSTACK, 0, STACK
        ARGFRAME XSTACK, 18, STACK
        ARGFRAME IOVERLAY, 0, STATIC
        ARGFRAME DOVERLAY, 0, STATIC
        FUNCALL get_humiture_data, incode_xtocs
        LOCFRAME ISTACK, 0, STACK
        LOCFRAME PSTACK, 0, STACK
        LOCFRAME XSTACK, 17, STACK
        LOCFRAME IOVERLAY, 0, STATIC
        LOCFRAME DOVERLAY, 0, STATIC
        ARGFRAME ISTACK, 0, STACK
        ARGFRAME PSTACK, 0, STACK
        ARGFRAME XSTACK, 17, STACK
        ARGFRAME IOVERLAY, 0, STATIC
        ARGFRAME DOVERLAY, 0, STATIC
        FUNCALL get_humiture_data, incode_xtocs
        LOCFRAME ISTACK, 0, STACK
        LOCFRAME PSTACK, 0, STACK
        LOCFRAME XSTACK, 17, STACK
        LOCFRAME IOVERLAY, 0, STATIC
        LOCFRAME DOVERLAY, 0, STATIC
        ARGFRAME ISTACK, 0, STACK
        ARGFRAME PSTACK, 0, STACK
        ARGFRAME XSTACK, 17, STACK
        ARGFRAME IOVERLAY, 0, STATIC
        ARGFRAME DOVERLAY, 0, STATIC
        FUNCALL get_humiture_data, osal_memcpy
        LOCFRAME ISTACK, 0, STACK
        LOCFRAME PSTACK, 0, STACK
        LOCFRAME XSTACK, 18, STACK
        LOCFRAME IOVERLAY, 0, STATIC
        LOCFRAME DOVERLAY, 0, STATIC
        ARGFRAME ISTACK, 0, STACK
        ARGFRAME PSTACK, 0, STACK
        ARGFRAME XSTACK, 18, STACK
        ARGFRAME IOVERLAY, 0, STATIC
        ARGFRAME DOVERLAY, 0, STATIC
        FUNCALL get_humiture_data, osal_memcpy
        LOCFRAME ISTACK, 0, STACK
        LOCFRAME PSTACK, 0, STACK
        LOCFRAME XSTACK, 18, STACK
        LOCFRAME IOVERLAY, 0, STATIC
        LOCFRAME DOVERLAY, 0, STATIC
        ARGFRAME ISTACK, 0, STACK
        ARGFRAME PSTACK, 0, STACK
        ARGFRAME XSTACK, 18, STACK
        ARGFRAME IOVERLAY, 0, STATIC
        ARGFRAME DOVERLAY, 0, STATIC
        MOV     A,#-0xf
        LCALL   ?BANKED_ENTER_XDATA
        CFI DPH0 load(1, XDATA, add(CFA_XSP16, literal(-1)))
        CFI DPL0 load(1, XDATA, add(CFA_XSP16, literal(-2)))
        CFI ?BRET_EXT load(1, XDATA, add(CFA_XSP16, literal(-3)))
        CFI ?RET_HIGH load(1, XDATA, add(CFA_XSP16, literal(-4)))
        CFI ?RET_LOW load(1, XDATA, add(CFA_XSP16, literal(-5)))
        CFI R7 load(1, XDATA, add(CFA_XSP16, literal(-6)))
        CFI V6 load(1, XDATA, add(CFA_XSP16, literal(-7)))
        CFI V5 load(1, XDATA, add(CFA_XSP16, literal(-8)))
        CFI V4 load(1, XDATA, add(CFA_XSP16, literal(-9)))
        CFI V3 load(1, XDATA, add(CFA_XSP16, literal(-10)))
        CFI V2 load(1, XDATA, add(CFA_XSP16, literal(-11)))
        CFI V1 load(1, XDATA, add(CFA_XSP16, literal(-12)))
        CFI V0 load(1, XDATA, add(CFA_XSP16, literal(-13)))
        CFI VB load(1, XDATA, add(CFA_XSP16, literal(-14)))
        CFI R6 load(1, XDATA, add(CFA_XSP16, literal(-15)))
        CFI CFA_SP SP+0
        CFI CFA_XSP16 add(XSP16, 15)
        ; Saved register size: 15
        ; Auto size: 0
        LCALL   ?Subroutine12 & 0xFFFF
//  776 	if(optData != NULL && optDataLen < HUMITURE_DATA_SIZE)
??CrossCallReturnLabel_104:
        JZ      ??CrossCallReturnLabel_10
        MOV     DPTR,#optDataLen
        MOVX    A,@DPTR
        CLR     C
        SUBB    A,#0x7
        JNC     ??CrossCallReturnLabel_43
//  777 	{
//  778 		osal_mem_free(optData);
        ; Setup parameters for call to function osal_mem_free
        LCALL   ?Subroutine6 & 0xFFFF
//  779 		optData = NULL;
//  780 		optDataLen = 0;
//  781 	}
//  782 
//  783 	if(optData == NULL)
//  784 	{
//  785 		optData = osal_mem_alloc(HUMITURE_DATA_SIZE);
??CrossCallReturnLabel_10:
        ; Setup parameters for call to function osal_mem_alloc
        LCALL   ?Subroutine25 & 0xFFFF
//  786 		optDataLen = HUMITURE_DATA_SIZE;
//  787 	}
//  788 
//  789 	osal_memcpy(optData, DEMOBASE_DEVICE_HUMITURE, 2);
??CrossCallReturnLabel_43:
        ; Setup parameters for call to function osal_memcpy
        MOV     ?V0 + 4,#`?<Constant "04">` & 0xff
        MOV     ?V0 + 5,#(`?<Constant "04">` >> 8) & 0xff
        MOV     ?V0 + 6,#0x0
        MOV     R0,#?V0 + 4
        LCALL   ?PUSH_XSTACK_I_THREE
        CFI CFA_XSP16 add(XSP16, 18)
        LCALL   ?Subroutine7 & 0xFFFF
??CrossCallReturnLabel_85:
        LCALL   ?DEALLOC_XSTACK8
        CFI CFA_XSP16 add(XSP16, 15)
//  790 
//  791 	if(queryStates)
        LCALL   ?Subroutine11 & 0xFFFF
??CrossCallReturnLabel_19:
        JZ      ??get_humiture_data_0
//  792 	{
//  793 		optData[2] = 'S';
        LCALL   ?Subroutine22 & 0xFFFF
//  794 		incode_xtocs(optData+3, &temp, 1);
??CrossCallReturnLabel_113:
        LCALL   ?PUSH_XSTACK_I_TWO
        CFI CFA_XSP16 add(XSP16, 17)
        MOV     R4,#temp & 0xff
        MOV     R5,#(temp >> 8) & 0xff
        LCALL   ??Subroutine51_0 & 0xFFFF
??CrossCallReturnLabel_134:
        LCALL   ?DEALLOC_XSTACK8
        CFI CFA_XSP16 add(XSP16, 15)
//  795 		incode_xtocs(optData+5, &humi, 1);
        ; Setup parameters for call to function incode_xtocs
        MOV     R0,#?V0 + 2
        LCALL   ?PUSH_XSTACK_I_TWO
        CFI CFA_XSP16 add(XSP16, 17)
        LCALL   ?Subroutine15 & 0xFFFF
??CrossCallReturnLabel_65:
        LCALL   ?DEALLOC_XSTACK8
        CFI CFA_XSP16 add(XSP16, 15)
//  796 
//  797 		osal_memcpy(data, optData, HUMITURE_DATA_SIZE);
        ; Setup parameters for call to function osal_memcpy
        LCALL   ??Subroutine50_0 & 0xFFFF
??CrossCallReturnLabel_126:
        LCALL   ?PUSH_XSTACK_I_THREE
        CFI CFA_XSP16 add(XSP16, 18)
        MOV     R4,#0x7
        LCALL   ??Subroutine42_0 & 0xFFFF
??CrossCallReturnLabel_94:
        LCALL   ?DEALLOC_XSTACK8
        CFI CFA_XSP16 add(XSP16, 15)
//  798 		*dataLen = HUMITURE_DATA_SIZE;
        MOV     DPL,?V0 + 0
        MOV     DPH,?V0 + 1
        MOV     A,#0x7
        SJMP    ??get_humiture_data_1
//  799 	}
//  800 	else
//  801 	{
//  802 		optData[2] = 'P';
??get_humiture_data_0:
        LCALL   ?Subroutine9 & 0xFFFF
//  803 		
//  804 		osal_memcpy(data, optData, 3);
??CrossCallReturnLabel_118:
        LCALL   ?PUSH_XSTACK_I_THREE
        CFI CFA_XSP16 add(XSP16, 18)
        LCALL   ?Subroutine27 & 0xFFFF
??CrossCallReturnLabel_90:
        LCALL   ?DEALLOC_XSTACK8
        CFI CFA_XSP16 add(XSP16, 15)
//  805 		*dataLen = 3;
        MOV     DPL,?V0 + 0
        MOV     DPH,?V0 + 1
        MOV     A,#0x3
        CFI EndBlock cfiBlock231
//  806 	}
??get_humiture_data_1:
        REQUIRE ?Subroutine3
        ; // Fall through to label ?Subroutine3
//  807 	
//  808 	return 0;
//  809 }

        RSEG BANKED_CODE:CODE:NOROOT(0)
?Subroutine3:
        CFI Block cfiBlock232 Using cfiCommon0
        CFI NoFunction
        CFI CFA_SP SP+0
        CFI CFA_XSP16 add(XSP16, 15)
        CFI VB load(1, XDATA, add(CFA_XSP16, literal(-14)))
        CFI DPL0 load(1, XDATA, add(CFA_XSP16, literal(-2)))
        CFI DPH0 load(1, XDATA, add(CFA_XSP16, literal(-1)))
        CFI R6 load(1, XDATA, add(CFA_XSP16, literal(-15)))
        CFI R7 load(1, XDATA, add(CFA_XSP16, literal(-6)))
        CFI V0 load(1, XDATA, add(CFA_XSP16, literal(-13)))
        CFI V1 load(1, XDATA, add(CFA_XSP16, literal(-12)))
        CFI V2 load(1, XDATA, add(CFA_XSP16, literal(-11)))
        CFI V3 load(1, XDATA, add(CFA_XSP16, literal(-10)))
        CFI V4 load(1, XDATA, add(CFA_XSP16, literal(-9)))
        CFI V5 load(1, XDATA, add(CFA_XSP16, literal(-8)))
        CFI V6 load(1, XDATA, add(CFA_XSP16, literal(-7)))
        CFI ?BRET_EXT load(1, XDATA, add(CFA_XSP16, literal(-3)))
        CFI ?RET_HIGH load(1, XDATA, add(CFA_XSP16, literal(-4)))
        CFI ?RET_LOW load(1, XDATA, add(CFA_XSP16, literal(-5)))
        MOVX    @DPTR,A
        MOV     R1,#0x0
        LJMP    ??Subroutine47_0 & 0xFFFF
        CFI EndBlock cfiBlock232

        RSEG BANKED_CODE:CODE:NOROOT(0)
?Subroutine25:
        CFI Block cfiCond233 Using cfiCommon0
        CFI NoFunction
        CFI Conditional ??CrossCallReturnLabel_42
        CFI R6 load(1, XDATA, add(CFA_XSP16, literal(-12)))
        CFI VB load(1, XDATA, add(CFA_XSP16, literal(-11)))
        CFI V0 load(1, XDATA, add(CFA_XSP16, literal(-10)))
        CFI V1 load(1, XDATA, add(CFA_XSP16, literal(-9)))
        CFI V2 load(1, XDATA, add(CFA_XSP16, literal(-8)))
        CFI V3 load(1, XDATA, add(CFA_XSP16, literal(-7)))
        CFI R7 load(1, XDATA, add(CFA_XSP16, literal(-6)))
        CFI ?RET_LOW load(1, XDATA, add(CFA_XSP16, literal(-5)))
        CFI ?RET_HIGH load(1, XDATA, add(CFA_XSP16, literal(-4)))
        CFI ?BRET_EXT load(1, XDATA, add(CFA_XSP16, literal(-3)))
        CFI DPL0 load(1, XDATA, add(CFA_XSP16, literal(-2)))
        CFI DPH0 load(1, XDATA, add(CFA_XSP16, literal(-1)))
        CFI CFA_SP SP+0
        CFI CFA_XSP16 add(XSP16, 21)
        CFI Block cfiCond234 Using cfiCommon0
        CFI (cfiCond234) NoFunction
        CFI (cfiCond234) Conditional ??CrossCallReturnLabel_43
        CFI (cfiCond234) R6 load(1, XDATA, add(CFA_XSP16, literal(-15)))
        CFI (cfiCond234) VB load(1, XDATA, add(CFA_XSP16, literal(-14)))
        CFI (cfiCond234) V0 load(1, XDATA, add(CFA_XSP16, literal(-13)))
        CFI (cfiCond234) V1 load(1, XDATA, add(CFA_XSP16, literal(-12)))
        CFI (cfiCond234) V2 load(1, XDATA, add(CFA_XSP16, literal(-11)))
        CFI (cfiCond234) V3 load(1, XDATA, add(CFA_XSP16, literal(-10)))
        CFI (cfiCond234) V4 load(1, XDATA, add(CFA_XSP16, literal(-9)))
        CFI (cfiCond234) V5 load(1, XDATA, add(CFA_XSP16, literal(-8)))
        CFI (cfiCond234) V6 load(1, XDATA, add(CFA_XSP16, literal(-7)))
        CFI (cfiCond234) R7 load(1, XDATA, add(CFA_XSP16, literal(-6)))
        CFI (cfiCond234) ?RET_LOW load(1, XDATA, add(CFA_XSP16, literal(-5)))
        CFI (cfiCond234) ?RET_HIGH load(1, XDATA, add(CFA_XSP16, literal(-4)))
        CFI (cfiCond234) ?BRET_EXT load(1, XDATA, add(CFA_XSP16, literal(-3)))
        CFI (cfiCond234) DPL0 load(1, XDATA, add(CFA_XSP16, literal(-2)))
        CFI (cfiCond234) DPH0 load(1, XDATA, add(CFA_XSP16, literal(-1)))
        CFI (cfiCond234) CFA_SP SP+0
        CFI (cfiCond234) CFA_XSP16 add(XSP16, 15)
        CFI Block cfiPicker235 Using cfiCommon1
        CFI (cfiPicker235) NoFunction
        CFI (cfiPicker235) Picker
        MOV     R2,#0x7
        LCALL   ?Subroutine30 & 0xFFFF
??CrossCallReturnLabel_51:
        MOV     A,#0x7
        MOVX    @DPTR,A
        RET
        CFI EndBlock cfiCond233
        CFI EndBlock cfiCond234
        CFI EndBlock cfiPicker235

        RSEG BANKED_CODE:CODE:NOROOT(0)
?Subroutine6:
        CFI Block cfiCond236 Using cfiCommon0
        CFI NoFunction
        CFI Conditional ??CrossCallReturnLabel_7
        CFI R6 load(1, XDATA, add(CFA_XSP16, literal(-12)))
        CFI VB load(1, XDATA, add(CFA_XSP16, literal(-11)))
        CFI V0 load(1, XDATA, add(CFA_XSP16, literal(-10)))
        CFI V1 load(1, XDATA, add(CFA_XSP16, literal(-9)))
        CFI V2 load(1, XDATA, add(CFA_XSP16, literal(-8)))
        CFI V3 load(1, XDATA, add(CFA_XSP16, literal(-7)))
        CFI R7 load(1, XDATA, add(CFA_XSP16, literal(-6)))
        CFI ?RET_LOW load(1, XDATA, add(CFA_XSP16, literal(-5)))
        CFI ?RET_HIGH load(1, XDATA, add(CFA_XSP16, literal(-4)))
        CFI ?BRET_EXT load(1, XDATA, add(CFA_XSP16, literal(-3)))
        CFI DPL0 load(1, XDATA, add(CFA_XSP16, literal(-2)))
        CFI DPH0 load(1, XDATA, add(CFA_XSP16, literal(-1)))
        CFI CFA_SP SP+0
        CFI CFA_XSP16 add(XSP16, 21)
        CFI Block cfiCond237 Using cfiCommon0
        CFI (cfiCond237) NoFunction
        CFI (cfiCond237) Conditional ??CrossCallReturnLabel_8
        CFI (cfiCond237) R6 load(1, XDATA, add(CFA_XSP16, literal(-11)))
        CFI (cfiCond237) VB load(1, XDATA, add(CFA_XSP16, literal(-10)))
        CFI (cfiCond237) V0 load(1, XDATA, add(CFA_XSP16, literal(-9)))
        CFI (cfiCond237) V1 load(1, XDATA, add(CFA_XSP16, literal(-8)))
        CFI (cfiCond237) V2 load(1, XDATA, add(CFA_XSP16, literal(-7)))
        CFI (cfiCond237) R7 load(1, XDATA, add(CFA_XSP16, literal(-6)))
        CFI (cfiCond237) ?RET_LOW load(1, XDATA, add(CFA_XSP16, literal(-5)))
        CFI (cfiCond237) ?RET_HIGH load(1, XDATA, add(CFA_XSP16, literal(-4)))
        CFI (cfiCond237) ?BRET_EXT load(1, XDATA, add(CFA_XSP16, literal(-3)))
        CFI (cfiCond237) DPL0 load(1, XDATA, add(CFA_XSP16, literal(-2)))
        CFI (cfiCond237) DPH0 load(1, XDATA, add(CFA_XSP16, literal(-1)))
        CFI (cfiCond237) CFA_SP SP+0
        CFI (cfiCond237) CFA_XSP16 add(XSP16, 11)
        CFI Block cfiCond238 Using cfiCommon0
        CFI (cfiCond238) NoFunction
        CFI (cfiCond238) Conditional ??CrossCallReturnLabel_9
        CFI (cfiCond238) R6 load(1, XDATA, add(CFA_XSP16, literal(-11)))
        CFI (cfiCond238) VB load(1, XDATA, add(CFA_XSP16, literal(-10)))
        CFI (cfiCond238) V0 load(1, XDATA, add(CFA_XSP16, literal(-9)))
        CFI (cfiCond238) V1 load(1, XDATA, add(CFA_XSP16, literal(-8)))
        CFI (cfiCond238) V2 load(1, XDATA, add(CFA_XSP16, literal(-7)))
        CFI (cfiCond238) R7 load(1, XDATA, add(CFA_XSP16, literal(-6)))
        CFI (cfiCond238) ?RET_LOW load(1, XDATA, add(CFA_XSP16, literal(-5)))
        CFI (cfiCond238) ?RET_HIGH load(1, XDATA, add(CFA_XSP16, literal(-4)))
        CFI (cfiCond238) ?BRET_EXT load(1, XDATA, add(CFA_XSP16, literal(-3)))
        CFI (cfiCond238) DPL0 load(1, XDATA, add(CFA_XSP16, literal(-2)))
        CFI (cfiCond238) DPH0 load(1, XDATA, add(CFA_XSP16, literal(-1)))
        CFI (cfiCond238) CFA_SP SP+0
        CFI (cfiCond238) CFA_XSP16 add(XSP16, 11)
        CFI Block cfiCond239 Using cfiCommon0
        CFI (cfiCond239) NoFunction
        CFI (cfiCond239) Conditional ??CrossCallReturnLabel_10
        CFI (cfiCond239) R6 load(1, XDATA, add(CFA_XSP16, literal(-15)))
        CFI (cfiCond239) VB load(1, XDATA, add(CFA_XSP16, literal(-14)))
        CFI (cfiCond239) V0 load(1, XDATA, add(CFA_XSP16, literal(-13)))
        CFI (cfiCond239) V1 load(1, XDATA, add(CFA_XSP16, literal(-12)))
        CFI (cfiCond239) V2 load(1, XDATA, add(CFA_XSP16, literal(-11)))
        CFI (cfiCond239) V3 load(1, XDATA, add(CFA_XSP16, literal(-10)))
        CFI (cfiCond239) V4 load(1, XDATA, add(CFA_XSP16, literal(-9)))
        CFI (cfiCond239) V5 load(1, XDATA, add(CFA_XSP16, literal(-8)))
        CFI (cfiCond239) V6 load(1, XDATA, add(CFA_XSP16, literal(-7)))
        CFI (cfiCond239) R7 load(1, XDATA, add(CFA_XSP16, literal(-6)))
        CFI (cfiCond239) ?RET_LOW load(1, XDATA, add(CFA_XSP16, literal(-5)))
        CFI (cfiCond239) ?RET_HIGH load(1, XDATA, add(CFA_XSP16, literal(-4)))
        CFI (cfiCond239) ?BRET_EXT load(1, XDATA, add(CFA_XSP16, literal(-3)))
        CFI (cfiCond239) DPL0 load(1, XDATA, add(CFA_XSP16, literal(-2)))
        CFI (cfiCond239) DPH0 load(1, XDATA, add(CFA_XSP16, literal(-1)))
        CFI (cfiCond239) CFA_SP SP+0
        CFI (cfiCond239) CFA_XSP16 add(XSP16, 15)
        CFI Block cfiCond240 Using cfiCommon0
        CFI (cfiCond240) NoFunction
        CFI (cfiCond240) Conditional ??CrossCallReturnLabel_11
        CFI (cfiCond240) R6 load(1, XDATA, add(CFA_XSP16, literal(-15)))
        CFI (cfiCond240) VB load(1, XDATA, add(CFA_XSP16, literal(-14)))
        CFI (cfiCond240) V0 load(1, XDATA, add(CFA_XSP16, literal(-13)))
        CFI (cfiCond240) V1 load(1, XDATA, add(CFA_XSP16, literal(-12)))
        CFI (cfiCond240) V2 load(1, XDATA, add(CFA_XSP16, literal(-11)))
        CFI (cfiCond240) V3 load(1, XDATA, add(CFA_XSP16, literal(-10)))
        CFI (cfiCond240) V4 load(1, XDATA, add(CFA_XSP16, literal(-9)))
        CFI (cfiCond240) V5 load(1, XDATA, add(CFA_XSP16, literal(-8)))
        CFI (cfiCond240) V6 load(1, XDATA, add(CFA_XSP16, literal(-7)))
        CFI (cfiCond240) R7 load(1, XDATA, add(CFA_XSP16, literal(-6)))
        CFI (cfiCond240) ?RET_LOW load(1, XDATA, add(CFA_XSP16, literal(-5)))
        CFI (cfiCond240) ?RET_HIGH load(1, XDATA, add(CFA_XSP16, literal(-4)))
        CFI (cfiCond240) ?BRET_EXT load(1, XDATA, add(CFA_XSP16, literal(-3)))
        CFI (cfiCond240) DPL0 load(1, XDATA, add(CFA_XSP16, literal(-2)))
        CFI (cfiCond240) DPH0 load(1, XDATA, add(CFA_XSP16, literal(-1)))
        CFI (cfiCond240) CFA_SP SP+0
        CFI (cfiCond240) CFA_XSP16 add(XSP16, 15)
        CFI Block cfiCond241 Using cfiCommon0
        CFI (cfiCond241) NoFunction
        CFI (cfiCond241) Conditional ??CrossCallReturnLabel_12
        CFI (cfiCond241) R6 load(1, XDATA, add(CFA_XSP16, literal(-15)))
        CFI (cfiCond241) VB load(1, XDATA, add(CFA_XSP16, literal(-14)))
        CFI (cfiCond241) V0 load(1, XDATA, add(CFA_XSP16, literal(-13)))
        CFI (cfiCond241) V1 load(1, XDATA, add(CFA_XSP16, literal(-12)))
        CFI (cfiCond241) V2 load(1, XDATA, add(CFA_XSP16, literal(-11)))
        CFI (cfiCond241) V3 load(1, XDATA, add(CFA_XSP16, literal(-10)))
        CFI (cfiCond241) V4 load(1, XDATA, add(CFA_XSP16, literal(-9)))
        CFI (cfiCond241) V5 load(1, XDATA, add(CFA_XSP16, literal(-8)))
        CFI (cfiCond241) V6 load(1, XDATA, add(CFA_XSP16, literal(-7)))
        CFI (cfiCond241) R7 load(1, XDATA, add(CFA_XSP16, literal(-6)))
        CFI (cfiCond241) ?RET_LOW load(1, XDATA, add(CFA_XSP16, literal(-5)))
        CFI (cfiCond241) ?RET_HIGH load(1, XDATA, add(CFA_XSP16, literal(-4)))
        CFI (cfiCond241) ?BRET_EXT load(1, XDATA, add(CFA_XSP16, literal(-3)))
        CFI (cfiCond241) DPL0 load(1, XDATA, add(CFA_XSP16, literal(-2)))
        CFI (cfiCond241) DPH0 load(1, XDATA, add(CFA_XSP16, literal(-1)))
        CFI (cfiCond241) CFA_SP SP+0
        CFI (cfiCond241) CFA_XSP16 add(XSP16, 15)
        CFI Block cfiPicker242 Using cfiCommon1
        CFI (cfiPicker242) NoFunction
        CFI (cfiPicker242) Picker
        LCALL   ?Subroutine32 & 0xFFFF
??CrossCallReturnLabel_54:
        MOV     DPTR,#optDataLen
        MOVX    @DPTR,A
        RET
        CFI EndBlock cfiCond236
        CFI EndBlock cfiCond237
        CFI EndBlock cfiCond238
        CFI EndBlock cfiCond239
        CFI EndBlock cfiCond240
        CFI EndBlock cfiCond241
        CFI EndBlock cfiPicker242
//  810 

        RSEG BANKED_CODE:CODE:NOROOT(0)
//  811 int8 get_lightdetect_data(uint8 *data, uint8 *dataLen)
get_lightdetect_data:
        CFI Block cfiBlock243 Using cfiCommon0
        CFI Function get_lightdetect_data
        CODE
//  812 {
        FUNCALL get_lightdetect_data, osal_mem_free
        LOCFRAME ISTACK, 0, STACK
        LOCFRAME PSTACK, 0, STACK
        LOCFRAME XSTACK, 15, STACK
        LOCFRAME IOVERLAY, 0, STATIC
        LOCFRAME DOVERLAY, 0, STATIC
        ARGFRAME ISTACK, 0, STACK
        ARGFRAME PSTACK, 0, STACK
        ARGFRAME XSTACK, 15, STACK
        ARGFRAME IOVERLAY, 0, STATIC
        ARGFRAME DOVERLAY, 0, STATIC
        FUNCALL get_lightdetect_data, osal_mem_alloc
        LOCFRAME ISTACK, 0, STACK
        LOCFRAME PSTACK, 0, STACK
        LOCFRAME XSTACK, 15, STACK
        LOCFRAME IOVERLAY, 0, STATIC
        LOCFRAME DOVERLAY, 0, STATIC
        ARGFRAME ISTACK, 0, STACK
        ARGFRAME PSTACK, 0, STACK
        ARGFRAME XSTACK, 15, STACK
        ARGFRAME IOVERLAY, 0, STATIC
        ARGFRAME DOVERLAY, 0, STATIC
        FUNCALL get_lightdetect_data, osal_memcpy
        LOCFRAME ISTACK, 0, STACK
        LOCFRAME PSTACK, 0, STACK
        LOCFRAME XSTACK, 18, STACK
        LOCFRAME IOVERLAY, 0, STATIC
        LOCFRAME DOVERLAY, 0, STATIC
        ARGFRAME ISTACK, 0, STACK
        ARGFRAME PSTACK, 0, STACK
        ARGFRAME XSTACK, 18, STACK
        ARGFRAME IOVERLAY, 0, STATIC
        ARGFRAME DOVERLAY, 0, STATIC
        FUNCALL get_lightdetect_data, incode_xtocs
        LOCFRAME ISTACK, 0, STACK
        LOCFRAME PSTACK, 0, STACK
        LOCFRAME XSTACK, 17, STACK
        LOCFRAME IOVERLAY, 0, STATIC
        LOCFRAME DOVERLAY, 0, STATIC
        ARGFRAME ISTACK, 0, STACK
        ARGFRAME PSTACK, 0, STACK
        ARGFRAME XSTACK, 17, STACK
        ARGFRAME IOVERLAY, 0, STATIC
        ARGFRAME DOVERLAY, 0, STATIC
        FUNCALL get_lightdetect_data, osal_memcpy
        LOCFRAME ISTACK, 0, STACK
        LOCFRAME PSTACK, 0, STACK
        LOCFRAME XSTACK, 18, STACK
        LOCFRAME IOVERLAY, 0, STATIC
        LOCFRAME DOVERLAY, 0, STATIC
        ARGFRAME ISTACK, 0, STACK
        ARGFRAME PSTACK, 0, STACK
        ARGFRAME XSTACK, 18, STACK
        ARGFRAME IOVERLAY, 0, STATIC
        ARGFRAME DOVERLAY, 0, STATIC
        FUNCALL get_lightdetect_data, osal_memcpy
        LOCFRAME ISTACK, 0, STACK
        LOCFRAME PSTACK, 0, STACK
        LOCFRAME XSTACK, 18, STACK
        LOCFRAME IOVERLAY, 0, STATIC
        LOCFRAME DOVERLAY, 0, STATIC
        ARGFRAME ISTACK, 0, STACK
        ARGFRAME PSTACK, 0, STACK
        ARGFRAME XSTACK, 18, STACK
        ARGFRAME IOVERLAY, 0, STATIC
        ARGFRAME DOVERLAY, 0, STATIC
        MOV     A,#-0xf
        LCALL   ?BANKED_ENTER_XDATA
        CFI DPH0 load(1, XDATA, add(CFA_XSP16, literal(-1)))
        CFI DPL0 load(1, XDATA, add(CFA_XSP16, literal(-2)))
        CFI ?BRET_EXT load(1, XDATA, add(CFA_XSP16, literal(-3)))
        CFI ?RET_HIGH load(1, XDATA, add(CFA_XSP16, literal(-4)))
        CFI ?RET_LOW load(1, XDATA, add(CFA_XSP16, literal(-5)))
        CFI R7 load(1, XDATA, add(CFA_XSP16, literal(-6)))
        CFI V6 load(1, XDATA, add(CFA_XSP16, literal(-7)))
        CFI V5 load(1, XDATA, add(CFA_XSP16, literal(-8)))
        CFI V4 load(1, XDATA, add(CFA_XSP16, literal(-9)))
        CFI V3 load(1, XDATA, add(CFA_XSP16, literal(-10)))
        CFI V2 load(1, XDATA, add(CFA_XSP16, literal(-11)))
        CFI V1 load(1, XDATA, add(CFA_XSP16, literal(-12)))
        CFI V0 load(1, XDATA, add(CFA_XSP16, literal(-13)))
        CFI VB load(1, XDATA, add(CFA_XSP16, literal(-14)))
        CFI R6 load(1, XDATA, add(CFA_XSP16, literal(-15)))
        CFI CFA_SP SP+0
        CFI CFA_XSP16 add(XSP16, 15)
        ; Saved register size: 15
        ; Auto size: 0
        LCALL   ?Subroutine12 & 0xFFFF
//  813 	if(optData != NULL && optDataLen < LIGHTDETECT_DATA_SIZE)
??CrossCallReturnLabel_105:
        JZ      ??CrossCallReturnLabel_11
        MOV     DPTR,#optDataLen
        MOVX    A,@DPTR
        CLR     C
        SUBB    A,#0x5
        JNC     ??CrossCallReturnLabel_36
//  814 	{
//  815 		osal_mem_free(optData);
        ; Setup parameters for call to function osal_mem_free
        LCALL   ?Subroutine6 & 0xFFFF
//  816 		optData = NULL;
//  817 		optDataLen = 0;
//  818 	}
//  819 
//  820 	if(optData == NULL)
//  821 	{
//  822 		optData = osal_mem_alloc(LIGHTDETECT_DATA_SIZE);
??CrossCallReturnLabel_11:
        ; Setup parameters for call to function osal_mem_alloc
        LCALL   ?Subroutine21 & 0xFFFF
//  823 		optDataLen = LIGHTDETECT_DATA_SIZE;
//  824 	}
//  825 
//  826 	osal_memcpy(optData, DEMOBASE_DEVICE_LIGHTDETECT, 2);
??CrossCallReturnLabel_36:
        ; Setup parameters for call to function osal_memcpy
        MOV     ?V0 + 4,#`?<Constant "05">` & 0xff
        MOV     ?V0 + 5,#(`?<Constant "05">` >> 8) & 0xff
        MOV     ?V0 + 6,#0x0
        MOV     R0,#?V0 + 4
        LCALL   ?PUSH_XSTACK_I_THREE
        CFI CFA_XSP16 add(XSP16, 18)
        LCALL   ?Subroutine7 & 0xFFFF
??CrossCallReturnLabel_86:
        LCALL   ?DEALLOC_XSTACK8
        CFI CFA_XSP16 add(XSP16, 15)
//  827 
//  828 	if(queryStates)
        LCALL   ?Subroutine11 & 0xFFFF
??CrossCallReturnLabel_20:
        JZ      ??get_lightdetect_data_0
//  829 	{
//  830 		optData[2] = 'S';
        LCALL   ?Subroutine22 & 0xFFFF
//  831 		incode_xtocs(optData+3, &lightGrade, 1);
??CrossCallReturnLabel_114:
        LCALL   ?PUSH_XSTACK_I_TWO
        CFI CFA_XSP16 add(XSP16, 17)
        MOV     R4,#lightGrade & 0xff
        MOV     R5,#(lightGrade >> 8) & 0xff
        LCALL   ??Subroutine51_0 & 0xFFFF
??CrossCallReturnLabel_135:
        LCALL   ?DEALLOC_XSTACK8
        CFI CFA_XSP16 add(XSP16, 15)
//  832 
//  833 		osal_memcpy(data, optData, LIGHTDETECT_DATA_SIZE);
        ; Setup parameters for call to function osal_memcpy
        LCALL   ??Subroutine50_0 & 0xFFFF
??CrossCallReturnLabel_127:
        LCALL   ?PUSH_XSTACK_I_THREE
        CFI CFA_XSP16 add(XSP16, 18)
        MOV     R4,#0x5
        LCALL   ??Subroutine42_0 & 0xFFFF
??CrossCallReturnLabel_95:
        LCALL   ?DEALLOC_XSTACK8
        CFI CFA_XSP16 add(XSP16, 15)
//  834 		*dataLen = LIGHTDETECT_DATA_SIZE;
        MOV     DPL,?V0 + 0
        MOV     DPH,?V0 + 1
        MOV     A,#0x5
        SJMP    ??get_lightdetect_data_1
//  835 	}
//  836 	else
//  837 	{
//  838 		optData[2] = 'P';
??get_lightdetect_data_0:
        LCALL   ?Subroutine9 & 0xFFFF
//  839 		
//  840 		osal_memcpy(data, optData, 3);
??CrossCallReturnLabel_119:
        LCALL   ?PUSH_XSTACK_I_THREE
        CFI CFA_XSP16 add(XSP16, 18)
        LCALL   ?Subroutine27 & 0xFFFF
??CrossCallReturnLabel_91:
        LCALL   ?DEALLOC_XSTACK8
        CFI CFA_XSP16 add(XSP16, 15)
//  841 		*dataLen = 3;
        MOV     DPL,?V0 + 0
        MOV     DPH,?V0 + 1
        MOV     A,#0x3
//  842 	}
??get_lightdetect_data_1:
        LJMP    ?Subroutine3 & 0xFFFF
        CFI EndBlock cfiBlock243
//  843 	
//  844 	return 0;
//  845 }

        RSEG BANKED_CODE:CODE:NOROOT(0)
?Subroutine22:
        CFI Block cfiCond244 Using cfiCommon0
        CFI NoFunction
        CFI Conditional ??CrossCallReturnLabel_113
        CFI R6 load(1, XDATA, add(CFA_XSP16, literal(-15)))
        CFI VB load(1, XDATA, add(CFA_XSP16, literal(-14)))
        CFI V0 load(1, XDATA, add(CFA_XSP16, literal(-13)))
        CFI V1 load(1, XDATA, add(CFA_XSP16, literal(-12)))
        CFI V2 load(1, XDATA, add(CFA_XSP16, literal(-11)))
        CFI V3 load(1, XDATA, add(CFA_XSP16, literal(-10)))
        CFI V4 load(1, XDATA, add(CFA_XSP16, literal(-9)))
        CFI V5 load(1, XDATA, add(CFA_XSP16, literal(-8)))
        CFI V6 load(1, XDATA, add(CFA_XSP16, literal(-7)))
        CFI R7 load(1, XDATA, add(CFA_XSP16, literal(-6)))
        CFI ?RET_LOW load(1, XDATA, add(CFA_XSP16, literal(-5)))
        CFI ?RET_HIGH load(1, XDATA, add(CFA_XSP16, literal(-4)))
        CFI ?BRET_EXT load(1, XDATA, add(CFA_XSP16, literal(-3)))
        CFI DPL0 load(1, XDATA, add(CFA_XSP16, literal(-2)))
        CFI DPH0 load(1, XDATA, add(CFA_XSP16, literal(-1)))
        CFI CFA_SP SP+0
        CFI CFA_XSP16 add(XSP16, 15)
        CFI Block cfiCond245 Using cfiCommon0
        CFI (cfiCond245) NoFunction
        CFI (cfiCond245) Conditional ??CrossCallReturnLabel_114
        CFI (cfiCond245) R6 load(1, XDATA, add(CFA_XSP16, literal(-15)))
        CFI (cfiCond245) VB load(1, XDATA, add(CFA_XSP16, literal(-14)))
        CFI (cfiCond245) V0 load(1, XDATA, add(CFA_XSP16, literal(-13)))
        CFI (cfiCond245) V1 load(1, XDATA, add(CFA_XSP16, literal(-12)))
        CFI (cfiCond245) V2 load(1, XDATA, add(CFA_XSP16, literal(-11)))
        CFI (cfiCond245) V3 load(1, XDATA, add(CFA_XSP16, literal(-10)))
        CFI (cfiCond245) V4 load(1, XDATA, add(CFA_XSP16, literal(-9)))
        CFI (cfiCond245) V5 load(1, XDATA, add(CFA_XSP16, literal(-8)))
        CFI (cfiCond245) V6 load(1, XDATA, add(CFA_XSP16, literal(-7)))
        CFI (cfiCond245) R7 load(1, XDATA, add(CFA_XSP16, literal(-6)))
        CFI (cfiCond245) ?RET_LOW load(1, XDATA, add(CFA_XSP16, literal(-5)))
        CFI (cfiCond245) ?RET_HIGH load(1, XDATA, add(CFA_XSP16, literal(-4)))
        CFI (cfiCond245) ?BRET_EXT load(1, XDATA, add(CFA_XSP16, literal(-3)))
        CFI (cfiCond245) DPL0 load(1, XDATA, add(CFA_XSP16, literal(-2)))
        CFI (cfiCond245) DPH0 load(1, XDATA, add(CFA_XSP16, literal(-1)))
        CFI (cfiCond245) CFA_SP SP+0
        CFI (cfiCond245) CFA_XSP16 add(XSP16, 15)
        CFI Block cfiCond246 Using cfiCommon0
        CFI (cfiCond246) NoFunction
        CFI (cfiCond246) Conditional ??CrossCallReturnLabel_115
        CFI (cfiCond246) R6 load(1, XDATA, add(CFA_XSP16, literal(-15)))
        CFI (cfiCond246) VB load(1, XDATA, add(CFA_XSP16, literal(-14)))
        CFI (cfiCond246) V0 load(1, XDATA, add(CFA_XSP16, literal(-13)))
        CFI (cfiCond246) V1 load(1, XDATA, add(CFA_XSP16, literal(-12)))
        CFI (cfiCond246) V2 load(1, XDATA, add(CFA_XSP16, literal(-11)))
        CFI (cfiCond246) V3 load(1, XDATA, add(CFA_XSP16, literal(-10)))
        CFI (cfiCond246) V4 load(1, XDATA, add(CFA_XSP16, literal(-9)))
        CFI (cfiCond246) V5 load(1, XDATA, add(CFA_XSP16, literal(-8)))
        CFI (cfiCond246) V6 load(1, XDATA, add(CFA_XSP16, literal(-7)))
        CFI (cfiCond246) R7 load(1, XDATA, add(CFA_XSP16, literal(-6)))
        CFI (cfiCond246) ?RET_LOW load(1, XDATA, add(CFA_XSP16, literal(-5)))
        CFI (cfiCond246) ?RET_HIGH load(1, XDATA, add(CFA_XSP16, literal(-4)))
        CFI (cfiCond246) ?BRET_EXT load(1, XDATA, add(CFA_XSP16, literal(-3)))
        CFI (cfiCond246) DPL0 load(1, XDATA, add(CFA_XSP16, literal(-2)))
        CFI (cfiCond246) DPH0 load(1, XDATA, add(CFA_XSP16, literal(-1)))
        CFI (cfiCond246) CFA_SP SP+0
        CFI (cfiCond246) CFA_XSP16 add(XSP16, 15)
        CFI Block cfiPicker247 Using cfiCommon1
        CFI (cfiPicker247) NoFunction
        CFI (cfiPicker247) Picker
        MOV     A,#0x53
        CFI EndBlock cfiCond244
        CFI EndBlock cfiCond245
        CFI EndBlock cfiCond246
        CFI EndBlock cfiPicker247
        REQUIRE ??Subroutine48_0
        ; // Fall through to label ??Subroutine48_0

        RSEG BANKED_CODE:CODE:NOROOT(0)
??Subroutine48_0:
        CFI Block cfiCond248 Using cfiCommon0
        CFI NoFunction
        CFI Conditional ??CrossCallReturnLabel_116
        CFI R6 load(1, XDATA, add(CFA_XSP16, literal(-15)))
        CFI VB load(1, XDATA, add(CFA_XSP16, literal(-14)))
        CFI V0 load(1, XDATA, add(CFA_XSP16, literal(-13)))
        CFI V1 load(1, XDATA, add(CFA_XSP16, literal(-12)))
        CFI V2 load(1, XDATA, add(CFA_XSP16, literal(-11)))
        CFI V3 load(1, XDATA, add(CFA_XSP16, literal(-10)))
        CFI V4 load(1, XDATA, add(CFA_XSP16, literal(-9)))
        CFI V5 load(1, XDATA, add(CFA_XSP16, literal(-8)))
        CFI V6 load(1, XDATA, add(CFA_XSP16, literal(-7)))
        CFI R7 load(1, XDATA, add(CFA_XSP16, literal(-6)))
        CFI ?RET_LOW load(1, XDATA, add(CFA_XSP16, literal(-5)))
        CFI ?RET_HIGH load(1, XDATA, add(CFA_XSP16, literal(-4)))
        CFI ?BRET_EXT load(1, XDATA, add(CFA_XSP16, literal(-3)))
        CFI DPL0 load(1, XDATA, add(CFA_XSP16, literal(-2)))
        CFI DPH0 load(1, XDATA, add(CFA_XSP16, literal(-1)))
        CFI CFA_SP SP+0
        CFI CFA_XSP16 add(XSP16, 16)
        CFI Block cfiCond249 Using cfiCommon0
        CFI (cfiCond249) NoFunction
        CFI (cfiCond249) Conditional ??CrossCallReturnLabel_113
        CFI (cfiCond249) R6 load(1, XDATA, add(CFA_XSP16, literal(-15)))
        CFI (cfiCond249) VB load(1, XDATA, add(CFA_XSP16, literal(-14)))
        CFI (cfiCond249) V0 load(1, XDATA, add(CFA_XSP16, literal(-13)))
        CFI (cfiCond249) V1 load(1, XDATA, add(CFA_XSP16, literal(-12)))
        CFI (cfiCond249) V2 load(1, XDATA, add(CFA_XSP16, literal(-11)))
        CFI (cfiCond249) V3 load(1, XDATA, add(CFA_XSP16, literal(-10)))
        CFI (cfiCond249) V4 load(1, XDATA, add(CFA_XSP16, literal(-9)))
        CFI (cfiCond249) V5 load(1, XDATA, add(CFA_XSP16, literal(-8)))
        CFI (cfiCond249) V6 load(1, XDATA, add(CFA_XSP16, literal(-7)))
        CFI (cfiCond249) R7 load(1, XDATA, add(CFA_XSP16, literal(-6)))
        CFI (cfiCond249) ?RET_LOW load(1, XDATA, add(CFA_XSP16, literal(-5)))
        CFI (cfiCond249) ?RET_HIGH load(1, XDATA, add(CFA_XSP16, literal(-4)))
        CFI (cfiCond249) ?BRET_EXT load(1, XDATA, add(CFA_XSP16, literal(-3)))
        CFI (cfiCond249) DPL0 load(1, XDATA, add(CFA_XSP16, literal(-2)))
        CFI (cfiCond249) DPH0 load(1, XDATA, add(CFA_XSP16, literal(-1)))
        CFI (cfiCond249) CFA_SP SP+0
        CFI (cfiCond249) CFA_XSP16 add(XSP16, 15)
        CFI Block cfiCond250 Using cfiCommon0
        CFI (cfiCond250) NoFunction
        CFI (cfiCond250) Conditional ??CrossCallReturnLabel_114
        CFI (cfiCond250) R6 load(1, XDATA, add(CFA_XSP16, literal(-15)))
        CFI (cfiCond250) VB load(1, XDATA, add(CFA_XSP16, literal(-14)))
        CFI (cfiCond250) V0 load(1, XDATA, add(CFA_XSP16, literal(-13)))
        CFI (cfiCond250) V1 load(1, XDATA, add(CFA_XSP16, literal(-12)))
        CFI (cfiCond250) V2 load(1, XDATA, add(CFA_XSP16, literal(-11)))
        CFI (cfiCond250) V3 load(1, XDATA, add(CFA_XSP16, literal(-10)))
        CFI (cfiCond250) V4 load(1, XDATA, add(CFA_XSP16, literal(-9)))
        CFI (cfiCond250) V5 load(1, XDATA, add(CFA_XSP16, literal(-8)))
        CFI (cfiCond250) V6 load(1, XDATA, add(CFA_XSP16, literal(-7)))
        CFI (cfiCond250) R7 load(1, XDATA, add(CFA_XSP16, literal(-6)))
        CFI (cfiCond250) ?RET_LOW load(1, XDATA, add(CFA_XSP16, literal(-5)))
        CFI (cfiCond250) ?RET_HIGH load(1, XDATA, add(CFA_XSP16, literal(-4)))
        CFI (cfiCond250) ?BRET_EXT load(1, XDATA, add(CFA_XSP16, literal(-3)))
        CFI (cfiCond250) DPL0 load(1, XDATA, add(CFA_XSP16, literal(-2)))
        CFI (cfiCond250) DPH0 load(1, XDATA, add(CFA_XSP16, literal(-1)))
        CFI (cfiCond250) CFA_SP SP+0
        CFI (cfiCond250) CFA_XSP16 add(XSP16, 15)
        CFI Block cfiCond251 Using cfiCommon0
        CFI (cfiCond251) NoFunction
        CFI (cfiCond251) Conditional ??CrossCallReturnLabel_115
        CFI (cfiCond251) R6 load(1, XDATA, add(CFA_XSP16, literal(-15)))
        CFI (cfiCond251) VB load(1, XDATA, add(CFA_XSP16, literal(-14)))
        CFI (cfiCond251) V0 load(1, XDATA, add(CFA_XSP16, literal(-13)))
        CFI (cfiCond251) V1 load(1, XDATA, add(CFA_XSP16, literal(-12)))
        CFI (cfiCond251) V2 load(1, XDATA, add(CFA_XSP16, literal(-11)))
        CFI (cfiCond251) V3 load(1, XDATA, add(CFA_XSP16, literal(-10)))
        CFI (cfiCond251) V4 load(1, XDATA, add(CFA_XSP16, literal(-9)))
        CFI (cfiCond251) V5 load(1, XDATA, add(CFA_XSP16, literal(-8)))
        CFI (cfiCond251) V6 load(1, XDATA, add(CFA_XSP16, literal(-7)))
        CFI (cfiCond251) R7 load(1, XDATA, add(CFA_XSP16, literal(-6)))
        CFI (cfiCond251) ?RET_LOW load(1, XDATA, add(CFA_XSP16, literal(-5)))
        CFI (cfiCond251) ?RET_HIGH load(1, XDATA, add(CFA_XSP16, literal(-4)))
        CFI (cfiCond251) ?BRET_EXT load(1, XDATA, add(CFA_XSP16, literal(-3)))
        CFI (cfiCond251) DPL0 load(1, XDATA, add(CFA_XSP16, literal(-2)))
        CFI (cfiCond251) DPH0 load(1, XDATA, add(CFA_XSP16, literal(-1)))
        CFI (cfiCond251) CFA_SP SP+0
        CFI (cfiCond251) CFA_XSP16 add(XSP16, 15)
        CFI Block cfiPicker252 Using cfiCommon1
        CFI (cfiPicker252) NoFunction
        CFI (cfiPicker252) Picker
        MOVX    @DPTR,A
        ; Setup parameters for call to function incode_xtocs
        ; Setup parameters for call to function incode_xtocs
        ; Setup parameters for call to function incode_xtocs
        ; Setup parameters for call to function incode_xtocs
        MOV     ?V0 + 2,#0x1
        MOV     ?V0 + 3,#0x0
        MOV     R0,#?V0 + 2
        RET
        CFI EndBlock cfiCond248
        CFI EndBlock cfiCond249
        CFI EndBlock cfiCond250
        CFI EndBlock cfiCond251
        CFI EndBlock cfiPicker252

        RSEG BANKED_CODE:CODE:NOROOT(0)
?Subroutine21:
        CFI Block cfiCond253 Using cfiCommon0
        CFI NoFunction
        CFI Conditional ??CrossCallReturnLabel_34
        CFI R6 load(1, XDATA, add(CFA_XSP16, literal(-11)))
        CFI VB load(1, XDATA, add(CFA_XSP16, literal(-10)))
        CFI V0 load(1, XDATA, add(CFA_XSP16, literal(-9)))
        CFI V1 load(1, XDATA, add(CFA_XSP16, literal(-8)))
        CFI V2 load(1, XDATA, add(CFA_XSP16, literal(-7)))
        CFI R7 load(1, XDATA, add(CFA_XSP16, literal(-6)))
        CFI ?RET_LOW load(1, XDATA, add(CFA_XSP16, literal(-5)))
        CFI ?RET_HIGH load(1, XDATA, add(CFA_XSP16, literal(-4)))
        CFI ?BRET_EXT load(1, XDATA, add(CFA_XSP16, literal(-3)))
        CFI DPL0 load(1, XDATA, add(CFA_XSP16, literal(-2)))
        CFI DPH0 load(1, XDATA, add(CFA_XSP16, literal(-1)))
        CFI CFA_SP SP+0
        CFI CFA_XSP16 add(XSP16, 11)
        CFI Block cfiCond254 Using cfiCommon0
        CFI (cfiCond254) NoFunction
        CFI (cfiCond254) Conditional ??CrossCallReturnLabel_35
        CFI (cfiCond254) R6 load(1, XDATA, add(CFA_XSP16, literal(-11)))
        CFI (cfiCond254) VB load(1, XDATA, add(CFA_XSP16, literal(-10)))
        CFI (cfiCond254) V0 load(1, XDATA, add(CFA_XSP16, literal(-9)))
        CFI (cfiCond254) V1 load(1, XDATA, add(CFA_XSP16, literal(-8)))
        CFI (cfiCond254) V2 load(1, XDATA, add(CFA_XSP16, literal(-7)))
        CFI (cfiCond254) R7 load(1, XDATA, add(CFA_XSP16, literal(-6)))
        CFI (cfiCond254) ?RET_LOW load(1, XDATA, add(CFA_XSP16, literal(-5)))
        CFI (cfiCond254) ?RET_HIGH load(1, XDATA, add(CFA_XSP16, literal(-4)))
        CFI (cfiCond254) ?BRET_EXT load(1, XDATA, add(CFA_XSP16, literal(-3)))
        CFI (cfiCond254) DPL0 load(1, XDATA, add(CFA_XSP16, literal(-2)))
        CFI (cfiCond254) DPH0 load(1, XDATA, add(CFA_XSP16, literal(-1)))
        CFI (cfiCond254) CFA_SP SP+0
        CFI (cfiCond254) CFA_XSP16 add(XSP16, 11)
        CFI Block cfiCond255 Using cfiCommon0
        CFI (cfiCond255) NoFunction
        CFI (cfiCond255) Conditional ??CrossCallReturnLabel_36
        CFI (cfiCond255) R6 load(1, XDATA, add(CFA_XSP16, literal(-15)))
        CFI (cfiCond255) VB load(1, XDATA, add(CFA_XSP16, literal(-14)))
        CFI (cfiCond255) V0 load(1, XDATA, add(CFA_XSP16, literal(-13)))
        CFI (cfiCond255) V1 load(1, XDATA, add(CFA_XSP16, literal(-12)))
        CFI (cfiCond255) V2 load(1, XDATA, add(CFA_XSP16, literal(-11)))
        CFI (cfiCond255) V3 load(1, XDATA, add(CFA_XSP16, literal(-10)))
        CFI (cfiCond255) V4 load(1, XDATA, add(CFA_XSP16, literal(-9)))
        CFI (cfiCond255) V5 load(1, XDATA, add(CFA_XSP16, literal(-8)))
        CFI (cfiCond255) V6 load(1, XDATA, add(CFA_XSP16, literal(-7)))
        CFI (cfiCond255) R7 load(1, XDATA, add(CFA_XSP16, literal(-6)))
        CFI (cfiCond255) ?RET_LOW load(1, XDATA, add(CFA_XSP16, literal(-5)))
        CFI (cfiCond255) ?RET_HIGH load(1, XDATA, add(CFA_XSP16, literal(-4)))
        CFI (cfiCond255) ?BRET_EXT load(1, XDATA, add(CFA_XSP16, literal(-3)))
        CFI (cfiCond255) DPL0 load(1, XDATA, add(CFA_XSP16, literal(-2)))
        CFI (cfiCond255) DPH0 load(1, XDATA, add(CFA_XSP16, literal(-1)))
        CFI (cfiCond255) CFA_SP SP+0
        CFI (cfiCond255) CFA_XSP16 add(XSP16, 15)
        CFI Block cfiCond256 Using cfiCommon0
        CFI (cfiCond256) NoFunction
        CFI (cfiCond256) Conditional ??CrossCallReturnLabel_37
        CFI (cfiCond256) R6 load(1, XDATA, add(CFA_XSP16, literal(-15)))
        CFI (cfiCond256) VB load(1, XDATA, add(CFA_XSP16, literal(-14)))
        CFI (cfiCond256) V0 load(1, XDATA, add(CFA_XSP16, literal(-13)))
        CFI (cfiCond256) V1 load(1, XDATA, add(CFA_XSP16, literal(-12)))
        CFI (cfiCond256) V2 load(1, XDATA, add(CFA_XSP16, literal(-11)))
        CFI (cfiCond256) V3 load(1, XDATA, add(CFA_XSP16, literal(-10)))
        CFI (cfiCond256) V4 load(1, XDATA, add(CFA_XSP16, literal(-9)))
        CFI (cfiCond256) V5 load(1, XDATA, add(CFA_XSP16, literal(-8)))
        CFI (cfiCond256) V6 load(1, XDATA, add(CFA_XSP16, literal(-7)))
        CFI (cfiCond256) R7 load(1, XDATA, add(CFA_XSP16, literal(-6)))
        CFI (cfiCond256) ?RET_LOW load(1, XDATA, add(CFA_XSP16, literal(-5)))
        CFI (cfiCond256) ?RET_HIGH load(1, XDATA, add(CFA_XSP16, literal(-4)))
        CFI (cfiCond256) ?BRET_EXT load(1, XDATA, add(CFA_XSP16, literal(-3)))
        CFI (cfiCond256) DPL0 load(1, XDATA, add(CFA_XSP16, literal(-2)))
        CFI (cfiCond256) DPH0 load(1, XDATA, add(CFA_XSP16, literal(-1)))
        CFI (cfiCond256) CFA_SP SP+0
        CFI (cfiCond256) CFA_XSP16 add(XSP16, 15)
        CFI Block cfiPicker257 Using cfiCommon1
        CFI (cfiPicker257) NoFunction
        CFI (cfiPicker257) Picker
        MOV     R2,#0x5
        LCALL   ?Subroutine30 & 0xFFFF
??CrossCallReturnLabel_52:
        MOV     A,#0x5
        MOVX    @DPTR,A
        RET
        CFI EndBlock cfiCond253
        CFI EndBlock cfiCond254
        CFI EndBlock cfiCond255
        CFI EndBlock cfiCond256
        CFI EndBlock cfiPicker257

        RSEG BANKED_CODE:CODE:NOROOT(0)
?Subroutine11:
        CFI Block cfiCond258 Using cfiCommon0
        CFI NoFunction
        CFI Conditional ??CrossCallReturnLabel_18
        CFI R6 load(1, XDATA, add(CFA_XSP16, literal(-15)))
        CFI VB load(1, XDATA, add(CFA_XSP16, literal(-14)))
        CFI V0 load(1, XDATA, add(CFA_XSP16, literal(-13)))
        CFI V1 load(1, XDATA, add(CFA_XSP16, literal(-12)))
        CFI V2 load(1, XDATA, add(CFA_XSP16, literal(-11)))
        CFI V3 load(1, XDATA, add(CFA_XSP16, literal(-10)))
        CFI V4 load(1, XDATA, add(CFA_XSP16, literal(-9)))
        CFI V5 load(1, XDATA, add(CFA_XSP16, literal(-8)))
        CFI V6 load(1, XDATA, add(CFA_XSP16, literal(-7)))
        CFI R7 load(1, XDATA, add(CFA_XSP16, literal(-6)))
        CFI ?RET_LOW load(1, XDATA, add(CFA_XSP16, literal(-5)))
        CFI ?RET_HIGH load(1, XDATA, add(CFA_XSP16, literal(-4)))
        CFI ?BRET_EXT load(1, XDATA, add(CFA_XSP16, literal(-3)))
        CFI DPL0 load(1, XDATA, add(CFA_XSP16, literal(-2)))
        CFI DPH0 load(1, XDATA, add(CFA_XSP16, literal(-1)))
        CFI CFA_SP SP+0
        CFI CFA_XSP16 add(XSP16, 15)
        CFI Block cfiCond259 Using cfiCommon0
        CFI (cfiCond259) NoFunction
        CFI (cfiCond259) Conditional ??CrossCallReturnLabel_19
        CFI (cfiCond259) R6 load(1, XDATA, add(CFA_XSP16, literal(-15)))
        CFI (cfiCond259) VB load(1, XDATA, add(CFA_XSP16, literal(-14)))
        CFI (cfiCond259) V0 load(1, XDATA, add(CFA_XSP16, literal(-13)))
        CFI (cfiCond259) V1 load(1, XDATA, add(CFA_XSP16, literal(-12)))
        CFI (cfiCond259) V2 load(1, XDATA, add(CFA_XSP16, literal(-11)))
        CFI (cfiCond259) V3 load(1, XDATA, add(CFA_XSP16, literal(-10)))
        CFI (cfiCond259) V4 load(1, XDATA, add(CFA_XSP16, literal(-9)))
        CFI (cfiCond259) V5 load(1, XDATA, add(CFA_XSP16, literal(-8)))
        CFI (cfiCond259) V6 load(1, XDATA, add(CFA_XSP16, literal(-7)))
        CFI (cfiCond259) R7 load(1, XDATA, add(CFA_XSP16, literal(-6)))
        CFI (cfiCond259) ?RET_LOW load(1, XDATA, add(CFA_XSP16, literal(-5)))
        CFI (cfiCond259) ?RET_HIGH load(1, XDATA, add(CFA_XSP16, literal(-4)))
        CFI (cfiCond259) ?BRET_EXT load(1, XDATA, add(CFA_XSP16, literal(-3)))
        CFI (cfiCond259) DPL0 load(1, XDATA, add(CFA_XSP16, literal(-2)))
        CFI (cfiCond259) DPH0 load(1, XDATA, add(CFA_XSP16, literal(-1)))
        CFI (cfiCond259) CFA_SP SP+0
        CFI (cfiCond259) CFA_XSP16 add(XSP16, 15)
        CFI Block cfiCond260 Using cfiCommon0
        CFI (cfiCond260) NoFunction
        CFI (cfiCond260) Conditional ??CrossCallReturnLabel_20
        CFI (cfiCond260) R6 load(1, XDATA, add(CFA_XSP16, literal(-15)))
        CFI (cfiCond260) VB load(1, XDATA, add(CFA_XSP16, literal(-14)))
        CFI (cfiCond260) V0 load(1, XDATA, add(CFA_XSP16, literal(-13)))
        CFI (cfiCond260) V1 load(1, XDATA, add(CFA_XSP16, literal(-12)))
        CFI (cfiCond260) V2 load(1, XDATA, add(CFA_XSP16, literal(-11)))
        CFI (cfiCond260) V3 load(1, XDATA, add(CFA_XSP16, literal(-10)))
        CFI (cfiCond260) V4 load(1, XDATA, add(CFA_XSP16, literal(-9)))
        CFI (cfiCond260) V5 load(1, XDATA, add(CFA_XSP16, literal(-8)))
        CFI (cfiCond260) V6 load(1, XDATA, add(CFA_XSP16, literal(-7)))
        CFI (cfiCond260) R7 load(1, XDATA, add(CFA_XSP16, literal(-6)))
        CFI (cfiCond260) ?RET_LOW load(1, XDATA, add(CFA_XSP16, literal(-5)))
        CFI (cfiCond260) ?RET_HIGH load(1, XDATA, add(CFA_XSP16, literal(-4)))
        CFI (cfiCond260) ?BRET_EXT load(1, XDATA, add(CFA_XSP16, literal(-3)))
        CFI (cfiCond260) DPL0 load(1, XDATA, add(CFA_XSP16, literal(-2)))
        CFI (cfiCond260) DPH0 load(1, XDATA, add(CFA_XSP16, literal(-1)))
        CFI (cfiCond260) CFA_SP SP+0
        CFI (cfiCond260) CFA_XSP16 add(XSP16, 15)
        CFI Block cfiCond261 Using cfiCommon0
        CFI (cfiCond261) NoFunction
        CFI (cfiCond261) Conditional ??CrossCallReturnLabel_21
        CFI (cfiCond261) R6 load(1, XDATA, add(CFA_XSP16, literal(-15)))
        CFI (cfiCond261) VB load(1, XDATA, add(CFA_XSP16, literal(-14)))
        CFI (cfiCond261) V0 load(1, XDATA, add(CFA_XSP16, literal(-13)))
        CFI (cfiCond261) V1 load(1, XDATA, add(CFA_XSP16, literal(-12)))
        CFI (cfiCond261) V2 load(1, XDATA, add(CFA_XSP16, literal(-11)))
        CFI (cfiCond261) V3 load(1, XDATA, add(CFA_XSP16, literal(-10)))
        CFI (cfiCond261) V4 load(1, XDATA, add(CFA_XSP16, literal(-9)))
        CFI (cfiCond261) V5 load(1, XDATA, add(CFA_XSP16, literal(-8)))
        CFI (cfiCond261) V6 load(1, XDATA, add(CFA_XSP16, literal(-7)))
        CFI (cfiCond261) R7 load(1, XDATA, add(CFA_XSP16, literal(-6)))
        CFI (cfiCond261) ?RET_LOW load(1, XDATA, add(CFA_XSP16, literal(-5)))
        CFI (cfiCond261) ?RET_HIGH load(1, XDATA, add(CFA_XSP16, literal(-4)))
        CFI (cfiCond261) ?BRET_EXT load(1, XDATA, add(CFA_XSP16, literal(-3)))
        CFI (cfiCond261) DPL0 load(1, XDATA, add(CFA_XSP16, literal(-2)))
        CFI (cfiCond261) DPH0 load(1, XDATA, add(CFA_XSP16, literal(-1)))
        CFI (cfiCond261) CFA_SP SP+0
        CFI (cfiCond261) CFA_XSP16 add(XSP16, 15)
        CFI Block cfiPicker262 Using cfiCommon1
        CFI (cfiPicker262) NoFunction
        CFI (cfiPicker262) Picker
        MOV     DPTR,#optData
        MOVX    A,@DPTR
        ADD     A,#0x2
        MOV     R0,A
        INC     DPTR
        MOVX    A,@DPTR
        ADDC    A,#0x0
        MOV     R1,A
        MOV     DPTR,#queryStates
        MOVX    A,@DPTR
        MOV     DPL,R0
        MOV     DPH,R1
        RET
        CFI EndBlock cfiCond258
        CFI EndBlock cfiCond259
        CFI EndBlock cfiCond260
        CFI EndBlock cfiCond261
        CFI EndBlock cfiPicker262

        RSEG BANKED_CODE:CODE:NOROOT(0)
?Subroutine9:
        CFI Block cfiCond263 Using cfiCommon0
        CFI NoFunction
        CFI Conditional ??CrossCallReturnLabel_117
        CFI R6 load(1, XDATA, add(CFA_XSP16, literal(-15)))
        CFI VB load(1, XDATA, add(CFA_XSP16, literal(-14)))
        CFI V0 load(1, XDATA, add(CFA_XSP16, literal(-13)))
        CFI V1 load(1, XDATA, add(CFA_XSP16, literal(-12)))
        CFI V2 load(1, XDATA, add(CFA_XSP16, literal(-11)))
        CFI V3 load(1, XDATA, add(CFA_XSP16, literal(-10)))
        CFI V4 load(1, XDATA, add(CFA_XSP16, literal(-9)))
        CFI V5 load(1, XDATA, add(CFA_XSP16, literal(-8)))
        CFI V6 load(1, XDATA, add(CFA_XSP16, literal(-7)))
        CFI R7 load(1, XDATA, add(CFA_XSP16, literal(-6)))
        CFI ?RET_LOW load(1, XDATA, add(CFA_XSP16, literal(-5)))
        CFI ?RET_HIGH load(1, XDATA, add(CFA_XSP16, literal(-4)))
        CFI ?BRET_EXT load(1, XDATA, add(CFA_XSP16, literal(-3)))
        CFI DPL0 load(1, XDATA, add(CFA_XSP16, literal(-2)))
        CFI DPH0 load(1, XDATA, add(CFA_XSP16, literal(-1)))
        CFI CFA_SP SP+0
        CFI CFA_XSP16 add(XSP16, 15)
        CFI Block cfiCond264 Using cfiCommon0
        CFI (cfiCond264) NoFunction
        CFI (cfiCond264) Conditional ??CrossCallReturnLabel_118
        CFI (cfiCond264) R6 load(1, XDATA, add(CFA_XSP16, literal(-15)))
        CFI (cfiCond264) VB load(1, XDATA, add(CFA_XSP16, literal(-14)))
        CFI (cfiCond264) V0 load(1, XDATA, add(CFA_XSP16, literal(-13)))
        CFI (cfiCond264) V1 load(1, XDATA, add(CFA_XSP16, literal(-12)))
        CFI (cfiCond264) V2 load(1, XDATA, add(CFA_XSP16, literal(-11)))
        CFI (cfiCond264) V3 load(1, XDATA, add(CFA_XSP16, literal(-10)))
        CFI (cfiCond264) V4 load(1, XDATA, add(CFA_XSP16, literal(-9)))
        CFI (cfiCond264) V5 load(1, XDATA, add(CFA_XSP16, literal(-8)))
        CFI (cfiCond264) V6 load(1, XDATA, add(CFA_XSP16, literal(-7)))
        CFI (cfiCond264) R7 load(1, XDATA, add(CFA_XSP16, literal(-6)))
        CFI (cfiCond264) ?RET_LOW load(1, XDATA, add(CFA_XSP16, literal(-5)))
        CFI (cfiCond264) ?RET_HIGH load(1, XDATA, add(CFA_XSP16, literal(-4)))
        CFI (cfiCond264) ?BRET_EXT load(1, XDATA, add(CFA_XSP16, literal(-3)))
        CFI (cfiCond264) DPL0 load(1, XDATA, add(CFA_XSP16, literal(-2)))
        CFI (cfiCond264) DPH0 load(1, XDATA, add(CFA_XSP16, literal(-1)))
        CFI (cfiCond264) CFA_SP SP+0
        CFI (cfiCond264) CFA_XSP16 add(XSP16, 15)
        CFI Block cfiCond265 Using cfiCommon0
        CFI (cfiCond265) NoFunction
        CFI (cfiCond265) Conditional ??CrossCallReturnLabel_119
        CFI (cfiCond265) R6 load(1, XDATA, add(CFA_XSP16, literal(-15)))
        CFI (cfiCond265) VB load(1, XDATA, add(CFA_XSP16, literal(-14)))
        CFI (cfiCond265) V0 load(1, XDATA, add(CFA_XSP16, literal(-13)))
        CFI (cfiCond265) V1 load(1, XDATA, add(CFA_XSP16, literal(-12)))
        CFI (cfiCond265) V2 load(1, XDATA, add(CFA_XSP16, literal(-11)))
        CFI (cfiCond265) V3 load(1, XDATA, add(CFA_XSP16, literal(-10)))
        CFI (cfiCond265) V4 load(1, XDATA, add(CFA_XSP16, literal(-9)))
        CFI (cfiCond265) V5 load(1, XDATA, add(CFA_XSP16, literal(-8)))
        CFI (cfiCond265) V6 load(1, XDATA, add(CFA_XSP16, literal(-7)))
        CFI (cfiCond265) R7 load(1, XDATA, add(CFA_XSP16, literal(-6)))
        CFI (cfiCond265) ?RET_LOW load(1, XDATA, add(CFA_XSP16, literal(-5)))
        CFI (cfiCond265) ?RET_HIGH load(1, XDATA, add(CFA_XSP16, literal(-4)))
        CFI (cfiCond265) ?BRET_EXT load(1, XDATA, add(CFA_XSP16, literal(-3)))
        CFI (cfiCond265) DPL0 load(1, XDATA, add(CFA_XSP16, literal(-2)))
        CFI (cfiCond265) DPH0 load(1, XDATA, add(CFA_XSP16, literal(-1)))
        CFI (cfiCond265) CFA_SP SP+0
        CFI (cfiCond265) CFA_XSP16 add(XSP16, 15)
        CFI Block cfiCond266 Using cfiCommon0
        CFI (cfiCond266) NoFunction
        CFI (cfiCond266) Conditional ??CrossCallReturnLabel_120
        CFI (cfiCond266) R6 load(1, XDATA, add(CFA_XSP16, literal(-15)))
        CFI (cfiCond266) VB load(1, XDATA, add(CFA_XSP16, literal(-14)))
        CFI (cfiCond266) V0 load(1, XDATA, add(CFA_XSP16, literal(-13)))
        CFI (cfiCond266) V1 load(1, XDATA, add(CFA_XSP16, literal(-12)))
        CFI (cfiCond266) V2 load(1, XDATA, add(CFA_XSP16, literal(-11)))
        CFI (cfiCond266) V3 load(1, XDATA, add(CFA_XSP16, literal(-10)))
        CFI (cfiCond266) V4 load(1, XDATA, add(CFA_XSP16, literal(-9)))
        CFI (cfiCond266) V5 load(1, XDATA, add(CFA_XSP16, literal(-8)))
        CFI (cfiCond266) V6 load(1, XDATA, add(CFA_XSP16, literal(-7)))
        CFI (cfiCond266) R7 load(1, XDATA, add(CFA_XSP16, literal(-6)))
        CFI (cfiCond266) ?RET_LOW load(1, XDATA, add(CFA_XSP16, literal(-5)))
        CFI (cfiCond266) ?RET_HIGH load(1, XDATA, add(CFA_XSP16, literal(-4)))
        CFI (cfiCond266) ?BRET_EXT load(1, XDATA, add(CFA_XSP16, literal(-3)))
        CFI (cfiCond266) DPL0 load(1, XDATA, add(CFA_XSP16, literal(-2)))
        CFI (cfiCond266) DPH0 load(1, XDATA, add(CFA_XSP16, literal(-1)))
        CFI (cfiCond266) CFA_SP SP+0
        CFI (cfiCond266) CFA_XSP16 add(XSP16, 15)
        CFI Block cfiPicker267 Using cfiCommon1
        CFI (cfiPicker267) NoFunction
        CFI (cfiPicker267) Picker
        MOV     A,#0x50
        CFI EndBlock cfiCond263
        CFI EndBlock cfiCond264
        CFI EndBlock cfiCond265
        CFI EndBlock cfiCond266
        CFI EndBlock cfiPicker267
        REQUIRE ??Subroutine49_0
        ; // Fall through to label ??Subroutine49_0

        RSEG BANKED_CODE:CODE:NOROOT(0)
??Subroutine49_0:
        CFI Block cfiCond268 Using cfiCommon0
        CFI NoFunction
        CFI Conditional ??CrossCallReturnLabel_121
        CFI R6 load(1, XDATA, add(CFA_XSP16, literal(-15)))
        CFI VB load(1, XDATA, add(CFA_XSP16, literal(-14)))
        CFI V0 load(1, XDATA, add(CFA_XSP16, literal(-13)))
        CFI V1 load(1, XDATA, add(CFA_XSP16, literal(-12)))
        CFI V2 load(1, XDATA, add(CFA_XSP16, literal(-11)))
        CFI V3 load(1, XDATA, add(CFA_XSP16, literal(-10)))
        CFI V4 load(1, XDATA, add(CFA_XSP16, literal(-9)))
        CFI V5 load(1, XDATA, add(CFA_XSP16, literal(-8)))
        CFI V6 load(1, XDATA, add(CFA_XSP16, literal(-7)))
        CFI R7 load(1, XDATA, add(CFA_XSP16, literal(-6)))
        CFI ?RET_LOW load(1, XDATA, add(CFA_XSP16, literal(-5)))
        CFI ?RET_HIGH load(1, XDATA, add(CFA_XSP16, literal(-4)))
        CFI ?BRET_EXT load(1, XDATA, add(CFA_XSP16, literal(-3)))
        CFI DPL0 load(1, XDATA, add(CFA_XSP16, literal(-2)))
        CFI DPH0 load(1, XDATA, add(CFA_XSP16, literal(-1)))
        CFI CFA_SP SP+0
        CFI CFA_XSP16 add(XSP16, 15)
        CFI Block cfiCond269 Using cfiCommon0
        CFI (cfiCond269) NoFunction
        CFI (cfiCond269) Conditional ??CrossCallReturnLabel_117
        CFI (cfiCond269) R6 load(1, XDATA, add(CFA_XSP16, literal(-15)))
        CFI (cfiCond269) VB load(1, XDATA, add(CFA_XSP16, literal(-14)))
        CFI (cfiCond269) V0 load(1, XDATA, add(CFA_XSP16, literal(-13)))
        CFI (cfiCond269) V1 load(1, XDATA, add(CFA_XSP16, literal(-12)))
        CFI (cfiCond269) V2 load(1, XDATA, add(CFA_XSP16, literal(-11)))
        CFI (cfiCond269) V3 load(1, XDATA, add(CFA_XSP16, literal(-10)))
        CFI (cfiCond269) V4 load(1, XDATA, add(CFA_XSP16, literal(-9)))
        CFI (cfiCond269) V5 load(1, XDATA, add(CFA_XSP16, literal(-8)))
        CFI (cfiCond269) V6 load(1, XDATA, add(CFA_XSP16, literal(-7)))
        CFI (cfiCond269) R7 load(1, XDATA, add(CFA_XSP16, literal(-6)))
        CFI (cfiCond269) ?RET_LOW load(1, XDATA, add(CFA_XSP16, literal(-5)))
        CFI (cfiCond269) ?RET_HIGH load(1, XDATA, add(CFA_XSP16, literal(-4)))
        CFI (cfiCond269) ?BRET_EXT load(1, XDATA, add(CFA_XSP16, literal(-3)))
        CFI (cfiCond269) DPL0 load(1, XDATA, add(CFA_XSP16, literal(-2)))
        CFI (cfiCond269) DPH0 load(1, XDATA, add(CFA_XSP16, literal(-1)))
        CFI (cfiCond269) CFA_SP SP+0
        CFI (cfiCond269) CFA_XSP16 add(XSP16, 15)
        CFI Block cfiCond270 Using cfiCommon0
        CFI (cfiCond270) NoFunction
        CFI (cfiCond270) Conditional ??CrossCallReturnLabel_118
        CFI (cfiCond270) R6 load(1, XDATA, add(CFA_XSP16, literal(-15)))
        CFI (cfiCond270) VB load(1, XDATA, add(CFA_XSP16, literal(-14)))
        CFI (cfiCond270) V0 load(1, XDATA, add(CFA_XSP16, literal(-13)))
        CFI (cfiCond270) V1 load(1, XDATA, add(CFA_XSP16, literal(-12)))
        CFI (cfiCond270) V2 load(1, XDATA, add(CFA_XSP16, literal(-11)))
        CFI (cfiCond270) V3 load(1, XDATA, add(CFA_XSP16, literal(-10)))
        CFI (cfiCond270) V4 load(1, XDATA, add(CFA_XSP16, literal(-9)))
        CFI (cfiCond270) V5 load(1, XDATA, add(CFA_XSP16, literal(-8)))
        CFI (cfiCond270) V6 load(1, XDATA, add(CFA_XSP16, literal(-7)))
        CFI (cfiCond270) R7 load(1, XDATA, add(CFA_XSP16, literal(-6)))
        CFI (cfiCond270) ?RET_LOW load(1, XDATA, add(CFA_XSP16, literal(-5)))
        CFI (cfiCond270) ?RET_HIGH load(1, XDATA, add(CFA_XSP16, literal(-4)))
        CFI (cfiCond270) ?BRET_EXT load(1, XDATA, add(CFA_XSP16, literal(-3)))
        CFI (cfiCond270) DPL0 load(1, XDATA, add(CFA_XSP16, literal(-2)))
        CFI (cfiCond270) DPH0 load(1, XDATA, add(CFA_XSP16, literal(-1)))
        CFI (cfiCond270) CFA_SP SP+0
        CFI (cfiCond270) CFA_XSP16 add(XSP16, 15)
        CFI Block cfiCond271 Using cfiCommon0
        CFI (cfiCond271) NoFunction
        CFI (cfiCond271) Conditional ??CrossCallReturnLabel_119
        CFI (cfiCond271) R6 load(1, XDATA, add(CFA_XSP16, literal(-15)))
        CFI (cfiCond271) VB load(1, XDATA, add(CFA_XSP16, literal(-14)))
        CFI (cfiCond271) V0 load(1, XDATA, add(CFA_XSP16, literal(-13)))
        CFI (cfiCond271) V1 load(1, XDATA, add(CFA_XSP16, literal(-12)))
        CFI (cfiCond271) V2 load(1, XDATA, add(CFA_XSP16, literal(-11)))
        CFI (cfiCond271) V3 load(1, XDATA, add(CFA_XSP16, literal(-10)))
        CFI (cfiCond271) V4 load(1, XDATA, add(CFA_XSP16, literal(-9)))
        CFI (cfiCond271) V5 load(1, XDATA, add(CFA_XSP16, literal(-8)))
        CFI (cfiCond271) V6 load(1, XDATA, add(CFA_XSP16, literal(-7)))
        CFI (cfiCond271) R7 load(1, XDATA, add(CFA_XSP16, literal(-6)))
        CFI (cfiCond271) ?RET_LOW load(1, XDATA, add(CFA_XSP16, literal(-5)))
        CFI (cfiCond271) ?RET_HIGH load(1, XDATA, add(CFA_XSP16, literal(-4)))
        CFI (cfiCond271) ?BRET_EXT load(1, XDATA, add(CFA_XSP16, literal(-3)))
        CFI (cfiCond271) DPL0 load(1, XDATA, add(CFA_XSP16, literal(-2)))
        CFI (cfiCond271) DPH0 load(1, XDATA, add(CFA_XSP16, literal(-1)))
        CFI (cfiCond271) CFA_SP SP+0
        CFI (cfiCond271) CFA_XSP16 add(XSP16, 15)
        CFI Block cfiCond272 Using cfiCommon0
        CFI (cfiCond272) NoFunction
        CFI (cfiCond272) Conditional ??CrossCallReturnLabel_120
        CFI (cfiCond272) R6 load(1, XDATA, add(CFA_XSP16, literal(-15)))
        CFI (cfiCond272) VB load(1, XDATA, add(CFA_XSP16, literal(-14)))
        CFI (cfiCond272) V0 load(1, XDATA, add(CFA_XSP16, literal(-13)))
        CFI (cfiCond272) V1 load(1, XDATA, add(CFA_XSP16, literal(-12)))
        CFI (cfiCond272) V2 load(1, XDATA, add(CFA_XSP16, literal(-11)))
        CFI (cfiCond272) V3 load(1, XDATA, add(CFA_XSP16, literal(-10)))
        CFI (cfiCond272) V4 load(1, XDATA, add(CFA_XSP16, literal(-9)))
        CFI (cfiCond272) V5 load(1, XDATA, add(CFA_XSP16, literal(-8)))
        CFI (cfiCond272) V6 load(1, XDATA, add(CFA_XSP16, literal(-7)))
        CFI (cfiCond272) R7 load(1, XDATA, add(CFA_XSP16, literal(-6)))
        CFI (cfiCond272) ?RET_LOW load(1, XDATA, add(CFA_XSP16, literal(-5)))
        CFI (cfiCond272) ?RET_HIGH load(1, XDATA, add(CFA_XSP16, literal(-4)))
        CFI (cfiCond272) ?BRET_EXT load(1, XDATA, add(CFA_XSP16, literal(-3)))
        CFI (cfiCond272) DPL0 load(1, XDATA, add(CFA_XSP16, literal(-2)))
        CFI (cfiCond272) DPH0 load(1, XDATA, add(CFA_XSP16, literal(-1)))
        CFI (cfiCond272) CFA_SP SP+0
        CFI (cfiCond272) CFA_XSP16 add(XSP16, 15)
        CFI Block cfiPicker273 Using cfiCommon1
        CFI (cfiPicker273) NoFunction
        CFI (cfiPicker273) Picker
        MOVX    @DPTR,A
        CFI EndBlock cfiCond268
        CFI EndBlock cfiCond269
        CFI EndBlock cfiCond270
        CFI EndBlock cfiCond271
        CFI EndBlock cfiCond272
        CFI EndBlock cfiPicker273
        ; Setup parameters for call to function osal_memcpy
        ; Setup parameters for call to function osal_memcpy
        ; Setup parameters for call to function osal_memcpy
        ; Setup parameters for call to function osal_memcpy
        ; Setup parameters for call to function osal_memcpy
        REQUIRE ??Subroutine50_0
        ; // Fall through to label ??Subroutine50_0

        RSEG BANKED_CODE:CODE:NOROOT(0)
??Subroutine50_0:
        CFI Block cfiCond274 Using cfiCommon0
        CFI NoFunction
        CFI Conditional ??CrossCallReturnLabel_122
        CFI R6 load(1, XDATA, add(CFA_XSP16, literal(-15)))
        CFI VB load(1, XDATA, add(CFA_XSP16, literal(-14)))
        CFI V0 load(1, XDATA, add(CFA_XSP16, literal(-13)))
        CFI V1 load(1, XDATA, add(CFA_XSP16, literal(-12)))
        CFI V2 load(1, XDATA, add(CFA_XSP16, literal(-11)))
        CFI V3 load(1, XDATA, add(CFA_XSP16, literal(-10)))
        CFI V4 load(1, XDATA, add(CFA_XSP16, literal(-9)))
        CFI V5 load(1, XDATA, add(CFA_XSP16, literal(-8)))
        CFI V6 load(1, XDATA, add(CFA_XSP16, literal(-7)))
        CFI R7 load(1, XDATA, add(CFA_XSP16, literal(-6)))
        CFI ?RET_LOW load(1, XDATA, add(CFA_XSP16, literal(-5)))
        CFI ?RET_HIGH load(1, XDATA, add(CFA_XSP16, literal(-4)))
        CFI ?BRET_EXT load(1, XDATA, add(CFA_XSP16, literal(-3)))
        CFI DPL0 load(1, XDATA, add(CFA_XSP16, literal(-2)))
        CFI DPH0 load(1, XDATA, add(CFA_XSP16, literal(-1)))
        CFI CFA_SP SP+0
        CFI CFA_XSP16 add(XSP16, 16)
        CFI Block cfiCond275 Using cfiCommon0
        CFI (cfiCond275) NoFunction
        CFI (cfiCond275) Conditional ??CrossCallReturnLabel_123
        CFI (cfiCond275) R6 load(1, XDATA, add(CFA_XSP16, literal(-15)))
        CFI (cfiCond275) VB load(1, XDATA, add(CFA_XSP16, literal(-14)))
        CFI (cfiCond275) V0 load(1, XDATA, add(CFA_XSP16, literal(-13)))
        CFI (cfiCond275) V1 load(1, XDATA, add(CFA_XSP16, literal(-12)))
        CFI (cfiCond275) V2 load(1, XDATA, add(CFA_XSP16, literal(-11)))
        CFI (cfiCond275) V3 load(1, XDATA, add(CFA_XSP16, literal(-10)))
        CFI (cfiCond275) V4 load(1, XDATA, add(CFA_XSP16, literal(-9)))
        CFI (cfiCond275) V5 load(1, XDATA, add(CFA_XSP16, literal(-8)))
        CFI (cfiCond275) V6 load(1, XDATA, add(CFA_XSP16, literal(-7)))
        CFI (cfiCond275) R7 load(1, XDATA, add(CFA_XSP16, literal(-6)))
        CFI (cfiCond275) ?RET_LOW load(1, XDATA, add(CFA_XSP16, literal(-5)))
        CFI (cfiCond275) ?RET_HIGH load(1, XDATA, add(CFA_XSP16, literal(-4)))
        CFI (cfiCond275) ?BRET_EXT load(1, XDATA, add(CFA_XSP16, literal(-3)))
        CFI (cfiCond275) DPL0 load(1, XDATA, add(CFA_XSP16, literal(-2)))
        CFI (cfiCond275) DPH0 load(1, XDATA, add(CFA_XSP16, literal(-1)))
        CFI (cfiCond275) CFA_SP SP+0
        CFI (cfiCond275) CFA_XSP16 add(XSP16, 16)
        CFI Block cfiCond276 Using cfiCommon0
        CFI (cfiCond276) NoFunction
        CFI (cfiCond276) Conditional ??CrossCallReturnLabel_124
        CFI (cfiCond276) R6 load(1, XDATA, add(CFA_XSP16, literal(-15)))
        CFI (cfiCond276) VB load(1, XDATA, add(CFA_XSP16, literal(-14)))
        CFI (cfiCond276) V0 load(1, XDATA, add(CFA_XSP16, literal(-13)))
        CFI (cfiCond276) V1 load(1, XDATA, add(CFA_XSP16, literal(-12)))
        CFI (cfiCond276) V2 load(1, XDATA, add(CFA_XSP16, literal(-11)))
        CFI (cfiCond276) V3 load(1, XDATA, add(CFA_XSP16, literal(-10)))
        CFI (cfiCond276) V4 load(1, XDATA, add(CFA_XSP16, literal(-9)))
        CFI (cfiCond276) V5 load(1, XDATA, add(CFA_XSP16, literal(-8)))
        CFI (cfiCond276) V6 load(1, XDATA, add(CFA_XSP16, literal(-7)))
        CFI (cfiCond276) R7 load(1, XDATA, add(CFA_XSP16, literal(-6)))
        CFI (cfiCond276) ?RET_LOW load(1, XDATA, add(CFA_XSP16, literal(-5)))
        CFI (cfiCond276) ?RET_HIGH load(1, XDATA, add(CFA_XSP16, literal(-4)))
        CFI (cfiCond276) ?BRET_EXT load(1, XDATA, add(CFA_XSP16, literal(-3)))
        CFI (cfiCond276) DPL0 load(1, XDATA, add(CFA_XSP16, literal(-2)))
        CFI (cfiCond276) DPH0 load(1, XDATA, add(CFA_XSP16, literal(-1)))
        CFI (cfiCond276) CFA_SP SP+0
        CFI (cfiCond276) CFA_XSP16 add(XSP16, 16)
        CFI Block cfiCond277 Using cfiCommon0
        CFI (cfiCond277) NoFunction
        CFI (cfiCond277) Conditional ??CrossCallReturnLabel_125
        CFI (cfiCond277) R6 load(1, XDATA, add(CFA_XSP16, literal(-15)))
        CFI (cfiCond277) VB load(1, XDATA, add(CFA_XSP16, literal(-14)))
        CFI (cfiCond277) V0 load(1, XDATA, add(CFA_XSP16, literal(-13)))
        CFI (cfiCond277) V1 load(1, XDATA, add(CFA_XSP16, literal(-12)))
        CFI (cfiCond277) V2 load(1, XDATA, add(CFA_XSP16, literal(-11)))
        CFI (cfiCond277) V3 load(1, XDATA, add(CFA_XSP16, literal(-10)))
        CFI (cfiCond277) V4 load(1, XDATA, add(CFA_XSP16, literal(-9)))
        CFI (cfiCond277) V5 load(1, XDATA, add(CFA_XSP16, literal(-8)))
        CFI (cfiCond277) V6 load(1, XDATA, add(CFA_XSP16, literal(-7)))
        CFI (cfiCond277) R7 load(1, XDATA, add(CFA_XSP16, literal(-6)))
        CFI (cfiCond277) ?RET_LOW load(1, XDATA, add(CFA_XSP16, literal(-5)))
        CFI (cfiCond277) ?RET_HIGH load(1, XDATA, add(CFA_XSP16, literal(-4)))
        CFI (cfiCond277) ?BRET_EXT load(1, XDATA, add(CFA_XSP16, literal(-3)))
        CFI (cfiCond277) DPL0 load(1, XDATA, add(CFA_XSP16, literal(-2)))
        CFI (cfiCond277) DPH0 load(1, XDATA, add(CFA_XSP16, literal(-1)))
        CFI (cfiCond277) CFA_SP SP+0
        CFI (cfiCond277) CFA_XSP16 add(XSP16, 15)
        CFI Block cfiCond278 Using cfiCommon0
        CFI (cfiCond278) NoFunction
        CFI (cfiCond278) Conditional ??CrossCallReturnLabel_126
        CFI (cfiCond278) R6 load(1, XDATA, add(CFA_XSP16, literal(-15)))
        CFI (cfiCond278) VB load(1, XDATA, add(CFA_XSP16, literal(-14)))
        CFI (cfiCond278) V0 load(1, XDATA, add(CFA_XSP16, literal(-13)))
        CFI (cfiCond278) V1 load(1, XDATA, add(CFA_XSP16, literal(-12)))
        CFI (cfiCond278) V2 load(1, XDATA, add(CFA_XSP16, literal(-11)))
        CFI (cfiCond278) V3 load(1, XDATA, add(CFA_XSP16, literal(-10)))
        CFI (cfiCond278) V4 load(1, XDATA, add(CFA_XSP16, literal(-9)))
        CFI (cfiCond278) V5 load(1, XDATA, add(CFA_XSP16, literal(-8)))
        CFI (cfiCond278) V6 load(1, XDATA, add(CFA_XSP16, literal(-7)))
        CFI (cfiCond278) R7 load(1, XDATA, add(CFA_XSP16, literal(-6)))
        CFI (cfiCond278) ?RET_LOW load(1, XDATA, add(CFA_XSP16, literal(-5)))
        CFI (cfiCond278) ?RET_HIGH load(1, XDATA, add(CFA_XSP16, literal(-4)))
        CFI (cfiCond278) ?BRET_EXT load(1, XDATA, add(CFA_XSP16, literal(-3)))
        CFI (cfiCond278) DPL0 load(1, XDATA, add(CFA_XSP16, literal(-2)))
        CFI (cfiCond278) DPH0 load(1, XDATA, add(CFA_XSP16, literal(-1)))
        CFI (cfiCond278) CFA_SP SP+0
        CFI (cfiCond278) CFA_XSP16 add(XSP16, 15)
        CFI Block cfiCond279 Using cfiCommon0
        CFI (cfiCond279) NoFunction
        CFI (cfiCond279) Conditional ??CrossCallReturnLabel_127
        CFI (cfiCond279) R6 load(1, XDATA, add(CFA_XSP16, literal(-15)))
        CFI (cfiCond279) VB load(1, XDATA, add(CFA_XSP16, literal(-14)))
        CFI (cfiCond279) V0 load(1, XDATA, add(CFA_XSP16, literal(-13)))
        CFI (cfiCond279) V1 load(1, XDATA, add(CFA_XSP16, literal(-12)))
        CFI (cfiCond279) V2 load(1, XDATA, add(CFA_XSP16, literal(-11)))
        CFI (cfiCond279) V3 load(1, XDATA, add(CFA_XSP16, literal(-10)))
        CFI (cfiCond279) V4 load(1, XDATA, add(CFA_XSP16, literal(-9)))
        CFI (cfiCond279) V5 load(1, XDATA, add(CFA_XSP16, literal(-8)))
        CFI (cfiCond279) V6 load(1, XDATA, add(CFA_XSP16, literal(-7)))
        CFI (cfiCond279) R7 load(1, XDATA, add(CFA_XSP16, literal(-6)))
        CFI (cfiCond279) ?RET_LOW load(1, XDATA, add(CFA_XSP16, literal(-5)))
        CFI (cfiCond279) ?RET_HIGH load(1, XDATA, add(CFA_XSP16, literal(-4)))
        CFI (cfiCond279) ?BRET_EXT load(1, XDATA, add(CFA_XSP16, literal(-3)))
        CFI (cfiCond279) DPL0 load(1, XDATA, add(CFA_XSP16, literal(-2)))
        CFI (cfiCond279) DPH0 load(1, XDATA, add(CFA_XSP16, literal(-1)))
        CFI (cfiCond279) CFA_SP SP+0
        CFI (cfiCond279) CFA_XSP16 add(XSP16, 15)
        CFI Block cfiCond280 Using cfiCommon0
        CFI (cfiCond280) NoFunction
        CFI (cfiCond280) Conditional ??CrossCallReturnLabel_128
        CFI (cfiCond280) R6 load(1, XDATA, add(CFA_XSP16, literal(-15)))
        CFI (cfiCond280) VB load(1, XDATA, add(CFA_XSP16, literal(-14)))
        CFI (cfiCond280) V0 load(1, XDATA, add(CFA_XSP16, literal(-13)))
        CFI (cfiCond280) V1 load(1, XDATA, add(CFA_XSP16, literal(-12)))
        CFI (cfiCond280) V2 load(1, XDATA, add(CFA_XSP16, literal(-11)))
        CFI (cfiCond280) V3 load(1, XDATA, add(CFA_XSP16, literal(-10)))
        CFI (cfiCond280) V4 load(1, XDATA, add(CFA_XSP16, literal(-9)))
        CFI (cfiCond280) V5 load(1, XDATA, add(CFA_XSP16, literal(-8)))
        CFI (cfiCond280) V6 load(1, XDATA, add(CFA_XSP16, literal(-7)))
        CFI (cfiCond280) R7 load(1, XDATA, add(CFA_XSP16, literal(-6)))
        CFI (cfiCond280) ?RET_LOW load(1, XDATA, add(CFA_XSP16, literal(-5)))
        CFI (cfiCond280) ?RET_HIGH load(1, XDATA, add(CFA_XSP16, literal(-4)))
        CFI (cfiCond280) ?BRET_EXT load(1, XDATA, add(CFA_XSP16, literal(-3)))
        CFI (cfiCond280) DPL0 load(1, XDATA, add(CFA_XSP16, literal(-2)))
        CFI (cfiCond280) DPH0 load(1, XDATA, add(CFA_XSP16, literal(-1)))
        CFI (cfiCond280) CFA_SP SP+0
        CFI (cfiCond280) CFA_XSP16 add(XSP16, 15)
        CFI Block cfiCond281 Using cfiCommon0
        CFI (cfiCond281) NoFunction
        CFI (cfiCond281) Conditional ??CrossCallReturnLabel_121
        CFI (cfiCond281) R6 load(1, XDATA, add(CFA_XSP16, literal(-15)))
        CFI (cfiCond281) VB load(1, XDATA, add(CFA_XSP16, literal(-14)))
        CFI (cfiCond281) V0 load(1, XDATA, add(CFA_XSP16, literal(-13)))
        CFI (cfiCond281) V1 load(1, XDATA, add(CFA_XSP16, literal(-12)))
        CFI (cfiCond281) V2 load(1, XDATA, add(CFA_XSP16, literal(-11)))
        CFI (cfiCond281) V3 load(1, XDATA, add(CFA_XSP16, literal(-10)))
        CFI (cfiCond281) V4 load(1, XDATA, add(CFA_XSP16, literal(-9)))
        CFI (cfiCond281) V5 load(1, XDATA, add(CFA_XSP16, literal(-8)))
        CFI (cfiCond281) V6 load(1, XDATA, add(CFA_XSP16, literal(-7)))
        CFI (cfiCond281) R7 load(1, XDATA, add(CFA_XSP16, literal(-6)))
        CFI (cfiCond281) ?RET_LOW load(1, XDATA, add(CFA_XSP16, literal(-5)))
        CFI (cfiCond281) ?RET_HIGH load(1, XDATA, add(CFA_XSP16, literal(-4)))
        CFI (cfiCond281) ?BRET_EXT load(1, XDATA, add(CFA_XSP16, literal(-3)))
        CFI (cfiCond281) DPL0 load(1, XDATA, add(CFA_XSP16, literal(-2)))
        CFI (cfiCond281) DPH0 load(1, XDATA, add(CFA_XSP16, literal(-1)))
        CFI (cfiCond281) CFA_SP SP+0
        CFI (cfiCond281) CFA_XSP16 add(XSP16, 15)
        CFI Block cfiCond282 Using cfiCommon0
        CFI (cfiCond282) NoFunction
        CFI (cfiCond282) Conditional ??CrossCallReturnLabel_117
        CFI (cfiCond282) R6 load(1, XDATA, add(CFA_XSP16, literal(-15)))
        CFI (cfiCond282) VB load(1, XDATA, add(CFA_XSP16, literal(-14)))
        CFI (cfiCond282) V0 load(1, XDATA, add(CFA_XSP16, literal(-13)))
        CFI (cfiCond282) V1 load(1, XDATA, add(CFA_XSP16, literal(-12)))
        CFI (cfiCond282) V2 load(1, XDATA, add(CFA_XSP16, literal(-11)))
        CFI (cfiCond282) V3 load(1, XDATA, add(CFA_XSP16, literal(-10)))
        CFI (cfiCond282) V4 load(1, XDATA, add(CFA_XSP16, literal(-9)))
        CFI (cfiCond282) V5 load(1, XDATA, add(CFA_XSP16, literal(-8)))
        CFI (cfiCond282) V6 load(1, XDATA, add(CFA_XSP16, literal(-7)))
        CFI (cfiCond282) R7 load(1, XDATA, add(CFA_XSP16, literal(-6)))
        CFI (cfiCond282) ?RET_LOW load(1, XDATA, add(CFA_XSP16, literal(-5)))
        CFI (cfiCond282) ?RET_HIGH load(1, XDATA, add(CFA_XSP16, literal(-4)))
        CFI (cfiCond282) ?BRET_EXT load(1, XDATA, add(CFA_XSP16, literal(-3)))
        CFI (cfiCond282) DPL0 load(1, XDATA, add(CFA_XSP16, literal(-2)))
        CFI (cfiCond282) DPH0 load(1, XDATA, add(CFA_XSP16, literal(-1)))
        CFI (cfiCond282) CFA_SP SP+0
        CFI (cfiCond282) CFA_XSP16 add(XSP16, 15)
        CFI Block cfiCond283 Using cfiCommon0
        CFI (cfiCond283) NoFunction
        CFI (cfiCond283) Conditional ??CrossCallReturnLabel_118
        CFI (cfiCond283) R6 load(1, XDATA, add(CFA_XSP16, literal(-15)))
        CFI (cfiCond283) VB load(1, XDATA, add(CFA_XSP16, literal(-14)))
        CFI (cfiCond283) V0 load(1, XDATA, add(CFA_XSP16, literal(-13)))
        CFI (cfiCond283) V1 load(1, XDATA, add(CFA_XSP16, literal(-12)))
        CFI (cfiCond283) V2 load(1, XDATA, add(CFA_XSP16, literal(-11)))
        CFI (cfiCond283) V3 load(1, XDATA, add(CFA_XSP16, literal(-10)))
        CFI (cfiCond283) V4 load(1, XDATA, add(CFA_XSP16, literal(-9)))
        CFI (cfiCond283) V5 load(1, XDATA, add(CFA_XSP16, literal(-8)))
        CFI (cfiCond283) V6 load(1, XDATA, add(CFA_XSP16, literal(-7)))
        CFI (cfiCond283) R7 load(1, XDATA, add(CFA_XSP16, literal(-6)))
        CFI (cfiCond283) ?RET_LOW load(1, XDATA, add(CFA_XSP16, literal(-5)))
        CFI (cfiCond283) ?RET_HIGH load(1, XDATA, add(CFA_XSP16, literal(-4)))
        CFI (cfiCond283) ?BRET_EXT load(1, XDATA, add(CFA_XSP16, literal(-3)))
        CFI (cfiCond283) DPL0 load(1, XDATA, add(CFA_XSP16, literal(-2)))
        CFI (cfiCond283) DPH0 load(1, XDATA, add(CFA_XSP16, literal(-1)))
        CFI (cfiCond283) CFA_SP SP+0
        CFI (cfiCond283) CFA_XSP16 add(XSP16, 15)
        CFI Block cfiCond284 Using cfiCommon0
        CFI (cfiCond284) NoFunction
        CFI (cfiCond284) Conditional ??CrossCallReturnLabel_119
        CFI (cfiCond284) R6 load(1, XDATA, add(CFA_XSP16, literal(-15)))
        CFI (cfiCond284) VB load(1, XDATA, add(CFA_XSP16, literal(-14)))
        CFI (cfiCond284) V0 load(1, XDATA, add(CFA_XSP16, literal(-13)))
        CFI (cfiCond284) V1 load(1, XDATA, add(CFA_XSP16, literal(-12)))
        CFI (cfiCond284) V2 load(1, XDATA, add(CFA_XSP16, literal(-11)))
        CFI (cfiCond284) V3 load(1, XDATA, add(CFA_XSP16, literal(-10)))
        CFI (cfiCond284) V4 load(1, XDATA, add(CFA_XSP16, literal(-9)))
        CFI (cfiCond284) V5 load(1, XDATA, add(CFA_XSP16, literal(-8)))
        CFI (cfiCond284) V6 load(1, XDATA, add(CFA_XSP16, literal(-7)))
        CFI (cfiCond284) R7 load(1, XDATA, add(CFA_XSP16, literal(-6)))
        CFI (cfiCond284) ?RET_LOW load(1, XDATA, add(CFA_XSP16, literal(-5)))
        CFI (cfiCond284) ?RET_HIGH load(1, XDATA, add(CFA_XSP16, literal(-4)))
        CFI (cfiCond284) ?BRET_EXT load(1, XDATA, add(CFA_XSP16, literal(-3)))
        CFI (cfiCond284) DPL0 load(1, XDATA, add(CFA_XSP16, literal(-2)))
        CFI (cfiCond284) DPH0 load(1, XDATA, add(CFA_XSP16, literal(-1)))
        CFI (cfiCond284) CFA_SP SP+0
        CFI (cfiCond284) CFA_XSP16 add(XSP16, 15)
        CFI Block cfiCond285 Using cfiCommon0
        CFI (cfiCond285) NoFunction
        CFI (cfiCond285) Conditional ??CrossCallReturnLabel_120
        CFI (cfiCond285) R6 load(1, XDATA, add(CFA_XSP16, literal(-15)))
        CFI (cfiCond285) VB load(1, XDATA, add(CFA_XSP16, literal(-14)))
        CFI (cfiCond285) V0 load(1, XDATA, add(CFA_XSP16, literal(-13)))
        CFI (cfiCond285) V1 load(1, XDATA, add(CFA_XSP16, literal(-12)))
        CFI (cfiCond285) V2 load(1, XDATA, add(CFA_XSP16, literal(-11)))
        CFI (cfiCond285) V3 load(1, XDATA, add(CFA_XSP16, literal(-10)))
        CFI (cfiCond285) V4 load(1, XDATA, add(CFA_XSP16, literal(-9)))
        CFI (cfiCond285) V5 load(1, XDATA, add(CFA_XSP16, literal(-8)))
        CFI (cfiCond285) V6 load(1, XDATA, add(CFA_XSP16, literal(-7)))
        CFI (cfiCond285) R7 load(1, XDATA, add(CFA_XSP16, literal(-6)))
        CFI (cfiCond285) ?RET_LOW load(1, XDATA, add(CFA_XSP16, literal(-5)))
        CFI (cfiCond285) ?RET_HIGH load(1, XDATA, add(CFA_XSP16, literal(-4)))
        CFI (cfiCond285) ?BRET_EXT load(1, XDATA, add(CFA_XSP16, literal(-3)))
        CFI (cfiCond285) DPL0 load(1, XDATA, add(CFA_XSP16, literal(-2)))
        CFI (cfiCond285) DPH0 load(1, XDATA, add(CFA_XSP16, literal(-1)))
        CFI (cfiCond285) CFA_SP SP+0
        CFI (cfiCond285) CFA_XSP16 add(XSP16, 15)
        CFI Block cfiPicker286 Using cfiCommon1
        CFI (cfiPicker286) NoFunction
        CFI (cfiPicker286) Picker
        MOV     DPTR,#optData
        MOVX    A,@DPTR
        MOV     ?V0 + 4,A
        INC     DPTR
        MOVX    A,@DPTR
        MOV     ?V0 + 5,A
        MOV     R0,#?V0 + 4
        RET
        CFI EndBlock cfiCond274
        CFI EndBlock cfiCond275
        CFI EndBlock cfiCond276
        CFI EndBlock cfiCond277
        CFI EndBlock cfiCond278
        CFI EndBlock cfiCond279
        CFI EndBlock cfiCond280
        CFI EndBlock cfiCond281
        CFI EndBlock cfiCond282
        CFI EndBlock cfiCond283
        CFI EndBlock cfiCond284
        CFI EndBlock cfiCond285
        CFI EndBlock cfiPicker286

        RSEG BANKED_CODE:CODE:NOROOT(0)
?Subroutine8:
        CFI Block cfiCond287 Using cfiCommon0
        CFI NoFunction
        CFI Conditional ??CrossCallReturnLabel_129
        CFI R6 load(1, XDATA, add(CFA_XSP16, literal(-11)))
        CFI VB load(1, XDATA, add(CFA_XSP16, literal(-10)))
        CFI V0 load(1, XDATA, add(CFA_XSP16, literal(-9)))
        CFI V1 load(1, XDATA, add(CFA_XSP16, literal(-8)))
        CFI V2 load(1, XDATA, add(CFA_XSP16, literal(-7)))
        CFI R7 load(1, XDATA, add(CFA_XSP16, literal(-6)))
        CFI ?RET_LOW load(1, XDATA, add(CFA_XSP16, literal(-5)))
        CFI ?RET_HIGH load(1, XDATA, add(CFA_XSP16, literal(-4)))
        CFI ?BRET_EXT load(1, XDATA, add(CFA_XSP16, literal(-3)))
        CFI DPL0 load(1, XDATA, add(CFA_XSP16, literal(-2)))
        CFI DPH0 load(1, XDATA, add(CFA_XSP16, literal(-1)))
        CFI CFA_SP SP+0
        CFI CFA_XSP16 add(XSP16, 16)
        CFI Block cfiCond288 Using cfiCommon0
        CFI (cfiCond288) NoFunction
        CFI (cfiCond288) Conditional ??CrossCallReturnLabel_130
        CFI (cfiCond288) R6 load(1, XDATA, add(CFA_XSP16, literal(-15)))
        CFI (cfiCond288) VB load(1, XDATA, add(CFA_XSP16, literal(-14)))
        CFI (cfiCond288) V0 load(1, XDATA, add(CFA_XSP16, literal(-13)))
        CFI (cfiCond288) V1 load(1, XDATA, add(CFA_XSP16, literal(-12)))
        CFI (cfiCond288) V2 load(1, XDATA, add(CFA_XSP16, literal(-11)))
        CFI (cfiCond288) V3 load(1, XDATA, add(CFA_XSP16, literal(-10)))
        CFI (cfiCond288) V4 load(1, XDATA, add(CFA_XSP16, literal(-9)))
        CFI (cfiCond288) V5 load(1, XDATA, add(CFA_XSP16, literal(-8)))
        CFI (cfiCond288) V6 load(1, XDATA, add(CFA_XSP16, literal(-7)))
        CFI (cfiCond288) R7 load(1, XDATA, add(CFA_XSP16, literal(-6)))
        CFI (cfiCond288) ?RET_LOW load(1, XDATA, add(CFA_XSP16, literal(-5)))
        CFI (cfiCond288) ?RET_HIGH load(1, XDATA, add(CFA_XSP16, literal(-4)))
        CFI (cfiCond288) ?BRET_EXT load(1, XDATA, add(CFA_XSP16, literal(-3)))
        CFI (cfiCond288) DPL0 load(1, XDATA, add(CFA_XSP16, literal(-2)))
        CFI (cfiCond288) DPH0 load(1, XDATA, add(CFA_XSP16, literal(-1)))
        CFI (cfiCond288) CFA_SP SP+0
        CFI (cfiCond288) CFA_XSP16 add(XSP16, 17)
        CFI Block cfiPicker289 Using cfiCommon1
        CFI (cfiPicker289) NoFunction
        CFI (cfiPicker289) Picker
        MOV     R4,#ids & 0xff
        MOV     R5,#(ids >> 8) & 0xff
        CFI EndBlock cfiCond287
        CFI EndBlock cfiCond288
        CFI EndBlock cfiPicker289
        REQUIRE ??Subroutine51_0
        ; // Fall through to label ??Subroutine51_0

        RSEG BANKED_CODE:CODE:NOROOT(0)
??Subroutine51_0:
        CFI Block cfiCond290 Using cfiCommon0
        CFI NoFunction
        CFI Conditional ??CrossCallReturnLabel_131
        CFI R6 load(1, XDATA, add(CFA_XSP16, literal(-12)))
        CFI VB load(1, XDATA, add(CFA_XSP16, literal(-11)))
        CFI V0 load(1, XDATA, add(CFA_XSP16, literal(-10)))
        CFI V1 load(1, XDATA, add(CFA_XSP16, literal(-9)))
        CFI V2 load(1, XDATA, add(CFA_XSP16, literal(-8)))
        CFI V3 load(1, XDATA, add(CFA_XSP16, literal(-7)))
        CFI R7 load(1, XDATA, add(CFA_XSP16, literal(-6)))
        CFI ?RET_LOW load(1, XDATA, add(CFA_XSP16, literal(-5)))
        CFI ?RET_HIGH load(1, XDATA, add(CFA_XSP16, literal(-4)))
        CFI ?BRET_EXT load(1, XDATA, add(CFA_XSP16, literal(-3)))
        CFI DPL0 load(1, XDATA, add(CFA_XSP16, literal(-2)))
        CFI DPH0 load(1, XDATA, add(CFA_XSP16, literal(-1)))
        CFI CFA_SP SP+0
        CFI CFA_XSP16 add(XSP16, 23)
        CFI Block cfiCond291 Using cfiCommon0
        CFI (cfiCond291) NoFunction
        CFI (cfiCond291) Conditional ??CrossCallReturnLabel_132
        CFI (cfiCond291) R6 load(1, XDATA, add(CFA_XSP16, literal(-11)))
        CFI (cfiCond291) VB load(1, XDATA, add(CFA_XSP16, literal(-10)))
        CFI (cfiCond291) V0 load(1, XDATA, add(CFA_XSP16, literal(-9)))
        CFI (cfiCond291) V1 load(1, XDATA, add(CFA_XSP16, literal(-8)))
        CFI (cfiCond291) V2 load(1, XDATA, add(CFA_XSP16, literal(-7)))
        CFI (cfiCond291) R7 load(1, XDATA, add(CFA_XSP16, literal(-6)))
        CFI (cfiCond291) ?RET_LOW load(1, XDATA, add(CFA_XSP16, literal(-5)))
        CFI (cfiCond291) ?RET_HIGH load(1, XDATA, add(CFA_XSP16, literal(-4)))
        CFI (cfiCond291) ?BRET_EXT load(1, XDATA, add(CFA_XSP16, literal(-3)))
        CFI (cfiCond291) DPL0 load(1, XDATA, add(CFA_XSP16, literal(-2)))
        CFI (cfiCond291) DPH0 load(1, XDATA, add(CFA_XSP16, literal(-1)))
        CFI (cfiCond291) CFA_SP SP+0
        CFI (cfiCond291) CFA_XSP16 add(XSP16, 13)
        CFI Block cfiCond292 Using cfiCommon0
        CFI (cfiCond292) NoFunction
        CFI (cfiCond292) Conditional ??CrossCallReturnLabel_133
        CFI (cfiCond292) R6 load(1, XDATA, add(CFA_XSP16, literal(-11)))
        CFI (cfiCond292) VB load(1, XDATA, add(CFA_XSP16, literal(-10)))
        CFI (cfiCond292) V0 load(1, XDATA, add(CFA_XSP16, literal(-9)))
        CFI (cfiCond292) V1 load(1, XDATA, add(CFA_XSP16, literal(-8)))
        CFI (cfiCond292) V2 load(1, XDATA, add(CFA_XSP16, literal(-7)))
        CFI (cfiCond292) R7 load(1, XDATA, add(CFA_XSP16, literal(-6)))
        CFI (cfiCond292) ?RET_LOW load(1, XDATA, add(CFA_XSP16, literal(-5)))
        CFI (cfiCond292) ?RET_HIGH load(1, XDATA, add(CFA_XSP16, literal(-4)))
        CFI (cfiCond292) ?BRET_EXT load(1, XDATA, add(CFA_XSP16, literal(-3)))
        CFI (cfiCond292) DPL0 load(1, XDATA, add(CFA_XSP16, literal(-2)))
        CFI (cfiCond292) DPH0 load(1, XDATA, add(CFA_XSP16, literal(-1)))
        CFI (cfiCond292) CFA_SP SP+0
        CFI (cfiCond292) CFA_XSP16 add(XSP16, 13)
        CFI Block cfiCond293 Using cfiCommon0
        CFI (cfiCond293) NoFunction
        CFI (cfiCond293) Conditional ??CrossCallReturnLabel_134
        CFI (cfiCond293) R6 load(1, XDATA, add(CFA_XSP16, literal(-15)))
        CFI (cfiCond293) VB load(1, XDATA, add(CFA_XSP16, literal(-14)))
        CFI (cfiCond293) V0 load(1, XDATA, add(CFA_XSP16, literal(-13)))
        CFI (cfiCond293) V1 load(1, XDATA, add(CFA_XSP16, literal(-12)))
        CFI (cfiCond293) V2 load(1, XDATA, add(CFA_XSP16, literal(-11)))
        CFI (cfiCond293) V3 load(1, XDATA, add(CFA_XSP16, literal(-10)))
        CFI (cfiCond293) V4 load(1, XDATA, add(CFA_XSP16, literal(-9)))
        CFI (cfiCond293) V5 load(1, XDATA, add(CFA_XSP16, literal(-8)))
        CFI (cfiCond293) V6 load(1, XDATA, add(CFA_XSP16, literal(-7)))
        CFI (cfiCond293) R7 load(1, XDATA, add(CFA_XSP16, literal(-6)))
        CFI (cfiCond293) ?RET_LOW load(1, XDATA, add(CFA_XSP16, literal(-5)))
        CFI (cfiCond293) ?RET_HIGH load(1, XDATA, add(CFA_XSP16, literal(-4)))
        CFI (cfiCond293) ?BRET_EXT load(1, XDATA, add(CFA_XSP16, literal(-3)))
        CFI (cfiCond293) DPL0 load(1, XDATA, add(CFA_XSP16, literal(-2)))
        CFI (cfiCond293) DPH0 load(1, XDATA, add(CFA_XSP16, literal(-1)))
        CFI (cfiCond293) CFA_SP SP+0
        CFI (cfiCond293) CFA_XSP16 add(XSP16, 17)
        CFI Block cfiCond294 Using cfiCommon0
        CFI (cfiCond294) NoFunction
        CFI (cfiCond294) Conditional ??CrossCallReturnLabel_135
        CFI (cfiCond294) R6 load(1, XDATA, add(CFA_XSP16, literal(-15)))
        CFI (cfiCond294) VB load(1, XDATA, add(CFA_XSP16, literal(-14)))
        CFI (cfiCond294) V0 load(1, XDATA, add(CFA_XSP16, literal(-13)))
        CFI (cfiCond294) V1 load(1, XDATA, add(CFA_XSP16, literal(-12)))
        CFI (cfiCond294) V2 load(1, XDATA, add(CFA_XSP16, literal(-11)))
        CFI (cfiCond294) V3 load(1, XDATA, add(CFA_XSP16, literal(-10)))
        CFI (cfiCond294) V4 load(1, XDATA, add(CFA_XSP16, literal(-9)))
        CFI (cfiCond294) V5 load(1, XDATA, add(CFA_XSP16, literal(-8)))
        CFI (cfiCond294) V6 load(1, XDATA, add(CFA_XSP16, literal(-7)))
        CFI (cfiCond294) R7 load(1, XDATA, add(CFA_XSP16, literal(-6)))
        CFI (cfiCond294) ?RET_LOW load(1, XDATA, add(CFA_XSP16, literal(-5)))
        CFI (cfiCond294) ?RET_HIGH load(1, XDATA, add(CFA_XSP16, literal(-4)))
        CFI (cfiCond294) ?BRET_EXT load(1, XDATA, add(CFA_XSP16, literal(-3)))
        CFI (cfiCond294) DPL0 load(1, XDATA, add(CFA_XSP16, literal(-2)))
        CFI (cfiCond294) DPH0 load(1, XDATA, add(CFA_XSP16, literal(-1)))
        CFI (cfiCond294) CFA_SP SP+0
        CFI (cfiCond294) CFA_XSP16 add(XSP16, 17)
        CFI Block cfiCond295 Using cfiCommon0
        CFI (cfiCond295) NoFunction
        CFI (cfiCond295) Conditional ??CrossCallReturnLabel_136
        CFI (cfiCond295) R6 load(1, XDATA, add(CFA_XSP16, literal(-15)))
        CFI (cfiCond295) VB load(1, XDATA, add(CFA_XSP16, literal(-14)))
        CFI (cfiCond295) V0 load(1, XDATA, add(CFA_XSP16, literal(-13)))
        CFI (cfiCond295) V1 load(1, XDATA, add(CFA_XSP16, literal(-12)))
        CFI (cfiCond295) V2 load(1, XDATA, add(CFA_XSP16, literal(-11)))
        CFI (cfiCond295) V3 load(1, XDATA, add(CFA_XSP16, literal(-10)))
        CFI (cfiCond295) V4 load(1, XDATA, add(CFA_XSP16, literal(-9)))
        CFI (cfiCond295) V5 load(1, XDATA, add(CFA_XSP16, literal(-8)))
        CFI (cfiCond295) V6 load(1, XDATA, add(CFA_XSP16, literal(-7)))
        CFI (cfiCond295) R7 load(1, XDATA, add(CFA_XSP16, literal(-6)))
        CFI (cfiCond295) ?RET_LOW load(1, XDATA, add(CFA_XSP16, literal(-5)))
        CFI (cfiCond295) ?RET_HIGH load(1, XDATA, add(CFA_XSP16, literal(-4)))
        CFI (cfiCond295) ?BRET_EXT load(1, XDATA, add(CFA_XSP16, literal(-3)))
        CFI (cfiCond295) DPL0 load(1, XDATA, add(CFA_XSP16, literal(-2)))
        CFI (cfiCond295) DPH0 load(1, XDATA, add(CFA_XSP16, literal(-1)))
        CFI (cfiCond295) CFA_SP SP+0
        CFI (cfiCond295) CFA_XSP16 add(XSP16, 17)
        CFI Block cfiCond296 Using cfiCommon0
        CFI (cfiCond296) NoFunction
        CFI (cfiCond296) Conditional ??CrossCallReturnLabel_129
        CFI (cfiCond296) R6 load(1, XDATA, add(CFA_XSP16, literal(-11)))
        CFI (cfiCond296) VB load(1, XDATA, add(CFA_XSP16, literal(-10)))
        CFI (cfiCond296) V0 load(1, XDATA, add(CFA_XSP16, literal(-9)))
        CFI (cfiCond296) V1 load(1, XDATA, add(CFA_XSP16, literal(-8)))
        CFI (cfiCond296) V2 load(1, XDATA, add(CFA_XSP16, literal(-7)))
        CFI (cfiCond296) R7 load(1, XDATA, add(CFA_XSP16, literal(-6)))
        CFI (cfiCond296) ?RET_LOW load(1, XDATA, add(CFA_XSP16, literal(-5)))
        CFI (cfiCond296) ?RET_HIGH load(1, XDATA, add(CFA_XSP16, literal(-4)))
        CFI (cfiCond296) ?BRET_EXT load(1, XDATA, add(CFA_XSP16, literal(-3)))
        CFI (cfiCond296) DPL0 load(1, XDATA, add(CFA_XSP16, literal(-2)))
        CFI (cfiCond296) DPH0 load(1, XDATA, add(CFA_XSP16, literal(-1)))
        CFI (cfiCond296) CFA_SP SP+0
        CFI (cfiCond296) CFA_XSP16 add(XSP16, 16)
        CFI Block cfiCond297 Using cfiCommon0
        CFI (cfiCond297) NoFunction
        CFI (cfiCond297) Conditional ??CrossCallReturnLabel_130
        CFI (cfiCond297) R6 load(1, XDATA, add(CFA_XSP16, literal(-15)))
        CFI (cfiCond297) VB load(1, XDATA, add(CFA_XSP16, literal(-14)))
        CFI (cfiCond297) V0 load(1, XDATA, add(CFA_XSP16, literal(-13)))
        CFI (cfiCond297) V1 load(1, XDATA, add(CFA_XSP16, literal(-12)))
        CFI (cfiCond297) V2 load(1, XDATA, add(CFA_XSP16, literal(-11)))
        CFI (cfiCond297) V3 load(1, XDATA, add(CFA_XSP16, literal(-10)))
        CFI (cfiCond297) V4 load(1, XDATA, add(CFA_XSP16, literal(-9)))
        CFI (cfiCond297) V5 load(1, XDATA, add(CFA_XSP16, literal(-8)))
        CFI (cfiCond297) V6 load(1, XDATA, add(CFA_XSP16, literal(-7)))
        CFI (cfiCond297) R7 load(1, XDATA, add(CFA_XSP16, literal(-6)))
        CFI (cfiCond297) ?RET_LOW load(1, XDATA, add(CFA_XSP16, literal(-5)))
        CFI (cfiCond297) ?RET_HIGH load(1, XDATA, add(CFA_XSP16, literal(-4)))
        CFI (cfiCond297) ?BRET_EXT load(1, XDATA, add(CFA_XSP16, literal(-3)))
        CFI (cfiCond297) DPL0 load(1, XDATA, add(CFA_XSP16, literal(-2)))
        CFI (cfiCond297) DPH0 load(1, XDATA, add(CFA_XSP16, literal(-1)))
        CFI (cfiCond297) CFA_SP SP+0
        CFI (cfiCond297) CFA_XSP16 add(XSP16, 17)
        CFI Block cfiPicker298 Using cfiCommon1
        CFI (cfiPicker298) NoFunction
        CFI (cfiPicker298) Picker
        MOV     DPTR,#optData
        MOVX    A,@DPTR
        ADD     A,#0x3
        LCALL   ?Subroutine31 & 0xFFFF
??CrossCallReturnLabel_138:
        RET
        CFI EndBlock cfiCond290
        CFI EndBlock cfiCond291
        CFI EndBlock cfiCond292
        CFI EndBlock cfiCond293
        CFI EndBlock cfiCond294
        CFI EndBlock cfiCond295
        CFI EndBlock cfiCond296
        CFI EndBlock cfiCond297
        CFI EndBlock cfiPicker298

        RSEG BANKED_CODE:CODE:NOROOT(0)
?Subroutine31:
        CFI Block cfiCond299 Using cfiCommon0
        CFI NoFunction
        CFI Conditional ??CrossCallReturnLabel_137, ??CrossCallReturnLabel_64
        CFI R6 load(1, XDATA, add(CFA_XSP16, literal(-12)))
        CFI VB load(1, XDATA, add(CFA_XSP16, literal(-11)))
        CFI V0 load(1, XDATA, add(CFA_XSP16, literal(-10)))
        CFI V1 load(1, XDATA, add(CFA_XSP16, literal(-9)))
        CFI V2 load(1, XDATA, add(CFA_XSP16, literal(-8)))
        CFI V3 load(1, XDATA, add(CFA_XSP16, literal(-7)))
        CFI R7 load(1, XDATA, add(CFA_XSP16, literal(-6)))
        CFI ?RET_LOW load(1, XDATA, add(CFA_XSP16, literal(-5)))
        CFI ?RET_HIGH load(1, XDATA, add(CFA_XSP16, literal(-4)))
        CFI ?BRET_EXT load(1, XDATA, add(CFA_XSP16, literal(-3)))
        CFI DPL0 load(1, XDATA, add(CFA_XSP16, literal(-2)))
        CFI DPH0 load(1, XDATA, add(CFA_XSP16, literal(-1)))
        CFI CFA_SP SP+0
        CFI CFA_XSP16 add(XSP16, 23)
        CFI Block cfiCond300 Using cfiCommon0
        CFI (cfiCond300) NoFunction
        CFI (cfiCond300) Conditional ??CrossCallReturnLabel_137, ??CrossCallReturnLabel_65
        CFI (cfiCond300) R6 load(1, XDATA, add(CFA_XSP16, literal(-15)))
        CFI (cfiCond300) VB load(1, XDATA, add(CFA_XSP16, literal(-14)))
        CFI (cfiCond300) V0 load(1, XDATA, add(CFA_XSP16, literal(-13)))
        CFI (cfiCond300) V1 load(1, XDATA, add(CFA_XSP16, literal(-12)))
        CFI (cfiCond300) V2 load(1, XDATA, add(CFA_XSP16, literal(-11)))
        CFI (cfiCond300) V3 load(1, XDATA, add(CFA_XSP16, literal(-10)))
        CFI (cfiCond300) V4 load(1, XDATA, add(CFA_XSP16, literal(-9)))
        CFI (cfiCond300) V5 load(1, XDATA, add(CFA_XSP16, literal(-8)))
        CFI (cfiCond300) V6 load(1, XDATA, add(CFA_XSP16, literal(-7)))
        CFI (cfiCond300) R7 load(1, XDATA, add(CFA_XSP16, literal(-6)))
        CFI (cfiCond300) ?RET_LOW load(1, XDATA, add(CFA_XSP16, literal(-5)))
        CFI (cfiCond300) ?RET_HIGH load(1, XDATA, add(CFA_XSP16, literal(-4)))
        CFI (cfiCond300) ?BRET_EXT load(1, XDATA, add(CFA_XSP16, literal(-3)))
        CFI (cfiCond300) DPL0 load(1, XDATA, add(CFA_XSP16, literal(-2)))
        CFI (cfiCond300) DPH0 load(1, XDATA, add(CFA_XSP16, literal(-1)))
        CFI (cfiCond300) CFA_SP SP+0
        CFI (cfiCond300) CFA_XSP16 add(XSP16, 17)
        CFI Block cfiCond301 Using cfiCommon0
        CFI (cfiCond301) NoFunction
        CFI (cfiCond301) Conditional ??CrossCallReturnLabel_137, ??CrossCallReturnLabel_66
        CFI (cfiCond301) R6 load(1, XDATA, add(CFA_XSP16, literal(-15)))
        CFI (cfiCond301) VB load(1, XDATA, add(CFA_XSP16, literal(-14)))
        CFI (cfiCond301) V0 load(1, XDATA, add(CFA_XSP16, literal(-13)))
        CFI (cfiCond301) V1 load(1, XDATA, add(CFA_XSP16, literal(-12)))
        CFI (cfiCond301) V2 load(1, XDATA, add(CFA_XSP16, literal(-11)))
        CFI (cfiCond301) V3 load(1, XDATA, add(CFA_XSP16, literal(-10)))
        CFI (cfiCond301) V4 load(1, XDATA, add(CFA_XSP16, literal(-9)))
        CFI (cfiCond301) V5 load(1, XDATA, add(CFA_XSP16, literal(-8)))
        CFI (cfiCond301) V6 load(1, XDATA, add(CFA_XSP16, literal(-7)))
        CFI (cfiCond301) R7 load(1, XDATA, add(CFA_XSP16, literal(-6)))
        CFI (cfiCond301) ?RET_LOW load(1, XDATA, add(CFA_XSP16, literal(-5)))
        CFI (cfiCond301) ?RET_HIGH load(1, XDATA, add(CFA_XSP16, literal(-4)))
        CFI (cfiCond301) ?BRET_EXT load(1, XDATA, add(CFA_XSP16, literal(-3)))
        CFI (cfiCond301) DPL0 load(1, XDATA, add(CFA_XSP16, literal(-2)))
        CFI (cfiCond301) DPH0 load(1, XDATA, add(CFA_XSP16, literal(-1)))
        CFI (cfiCond301) CFA_SP SP+0
        CFI (cfiCond301) CFA_XSP16 add(XSP16, 18)
        CFI Block cfiCond302 Using cfiCommon0
        CFI (cfiCond302) NoFunction
        CFI (cfiCond302) Conditional ??CrossCallReturnLabel_137, ??CrossCallReturnLabel_67
        CFI (cfiCond302) R6 load(1, XDATA, add(CFA_XSP16, literal(-15)))
        CFI (cfiCond302) VB load(1, XDATA, add(CFA_XSP16, literal(-14)))
        CFI (cfiCond302) V0 load(1, XDATA, add(CFA_XSP16, literal(-13)))
        CFI (cfiCond302) V1 load(1, XDATA, add(CFA_XSP16, literal(-12)))
        CFI (cfiCond302) V2 load(1, XDATA, add(CFA_XSP16, literal(-11)))
        CFI (cfiCond302) V3 load(1, XDATA, add(CFA_XSP16, literal(-10)))
        CFI (cfiCond302) V4 load(1, XDATA, add(CFA_XSP16, literal(-9)))
        CFI (cfiCond302) V5 load(1, XDATA, add(CFA_XSP16, literal(-8)))
        CFI (cfiCond302) V6 load(1, XDATA, add(CFA_XSP16, literal(-7)))
        CFI (cfiCond302) R7 load(1, XDATA, add(CFA_XSP16, literal(-6)))
        CFI (cfiCond302) ?RET_LOW load(1, XDATA, add(CFA_XSP16, literal(-5)))
        CFI (cfiCond302) ?RET_HIGH load(1, XDATA, add(CFA_XSP16, literal(-4)))
        CFI (cfiCond302) ?BRET_EXT load(1, XDATA, add(CFA_XSP16, literal(-3)))
        CFI (cfiCond302) DPL0 load(1, XDATA, add(CFA_XSP16, literal(-2)))
        CFI (cfiCond302) DPH0 load(1, XDATA, add(CFA_XSP16, literal(-1)))
        CFI (cfiCond302) CFA_SP SP+0
        CFI (cfiCond302) CFA_XSP16 add(XSP16, 18)
        CFI Block cfiCond303 Using cfiCommon0
        CFI (cfiCond303) NoFunction
        CFI (cfiCond303) Conditional ??CrossCallReturnLabel_137, ??CrossCallReturnLabel_68
        CFI (cfiCond303) R6 load(1, XDATA, add(CFA_XSP16, literal(-15)))
        CFI (cfiCond303) VB load(1, XDATA, add(CFA_XSP16, literal(-14)))
        CFI (cfiCond303) V0 load(1, XDATA, add(CFA_XSP16, literal(-13)))
        CFI (cfiCond303) V1 load(1, XDATA, add(CFA_XSP16, literal(-12)))
        CFI (cfiCond303) V2 load(1, XDATA, add(CFA_XSP16, literal(-11)))
        CFI (cfiCond303) V3 load(1, XDATA, add(CFA_XSP16, literal(-10)))
        CFI (cfiCond303) V4 load(1, XDATA, add(CFA_XSP16, literal(-9)))
        CFI (cfiCond303) V5 load(1, XDATA, add(CFA_XSP16, literal(-8)))
        CFI (cfiCond303) V6 load(1, XDATA, add(CFA_XSP16, literal(-7)))
        CFI (cfiCond303) R7 load(1, XDATA, add(CFA_XSP16, literal(-6)))
        CFI (cfiCond303) ?RET_LOW load(1, XDATA, add(CFA_XSP16, literal(-5)))
        CFI (cfiCond303) ?RET_HIGH load(1, XDATA, add(CFA_XSP16, literal(-4)))
        CFI (cfiCond303) ?BRET_EXT load(1, XDATA, add(CFA_XSP16, literal(-3)))
        CFI (cfiCond303) DPL0 load(1, XDATA, add(CFA_XSP16, literal(-2)))
        CFI (cfiCond303) DPH0 load(1, XDATA, add(CFA_XSP16, literal(-1)))
        CFI (cfiCond303) CFA_SP SP+0
        CFI (cfiCond303) CFA_XSP16 add(XSP16, 18)
        CFI Block cfiCond304 Using cfiCommon0
        CFI (cfiCond304) NoFunction
        CFI (cfiCond304) Conditional ??CrossCallReturnLabel_138, ??CrossCallReturnLabel_129
        CFI (cfiCond304) R6 load(1, XDATA, add(CFA_XSP16, literal(-11)))
        CFI (cfiCond304) VB load(1, XDATA, add(CFA_XSP16, literal(-10)))
        CFI (cfiCond304) V0 load(1, XDATA, add(CFA_XSP16, literal(-9)))
        CFI (cfiCond304) V1 load(1, XDATA, add(CFA_XSP16, literal(-8)))
        CFI (cfiCond304) V2 load(1, XDATA, add(CFA_XSP16, literal(-7)))
        CFI (cfiCond304) R7 load(1, XDATA, add(CFA_XSP16, literal(-6)))
        CFI (cfiCond304) ?RET_LOW load(1, XDATA, add(CFA_XSP16, literal(-5)))
        CFI (cfiCond304) ?RET_HIGH load(1, XDATA, add(CFA_XSP16, literal(-4)))
        CFI (cfiCond304) ?BRET_EXT load(1, XDATA, add(CFA_XSP16, literal(-3)))
        CFI (cfiCond304) DPL0 load(1, XDATA, add(CFA_XSP16, literal(-2)))
        CFI (cfiCond304) DPH0 load(1, XDATA, add(CFA_XSP16, literal(-1)))
        CFI (cfiCond304) CFA_SP SP+0
        CFI (cfiCond304) CFA_XSP16 add(XSP16, 16)
        CFI Block cfiCond305 Using cfiCommon0
        CFI (cfiCond305) NoFunction
        CFI (cfiCond305) Conditional ??CrossCallReturnLabel_138, ??CrossCallReturnLabel_130
        CFI (cfiCond305) R6 load(1, XDATA, add(CFA_XSP16, literal(-15)))
        CFI (cfiCond305) VB load(1, XDATA, add(CFA_XSP16, literal(-14)))
        CFI (cfiCond305) V0 load(1, XDATA, add(CFA_XSP16, literal(-13)))
        CFI (cfiCond305) V1 load(1, XDATA, add(CFA_XSP16, literal(-12)))
        CFI (cfiCond305) V2 load(1, XDATA, add(CFA_XSP16, literal(-11)))
        CFI (cfiCond305) V3 load(1, XDATA, add(CFA_XSP16, literal(-10)))
        CFI (cfiCond305) V4 load(1, XDATA, add(CFA_XSP16, literal(-9)))
        CFI (cfiCond305) V5 load(1, XDATA, add(CFA_XSP16, literal(-8)))
        CFI (cfiCond305) V6 load(1, XDATA, add(CFA_XSP16, literal(-7)))
        CFI (cfiCond305) R7 load(1, XDATA, add(CFA_XSP16, literal(-6)))
        CFI (cfiCond305) ?RET_LOW load(1, XDATA, add(CFA_XSP16, literal(-5)))
        CFI (cfiCond305) ?RET_HIGH load(1, XDATA, add(CFA_XSP16, literal(-4)))
        CFI (cfiCond305) ?BRET_EXT load(1, XDATA, add(CFA_XSP16, literal(-3)))
        CFI (cfiCond305) DPL0 load(1, XDATA, add(CFA_XSP16, literal(-2)))
        CFI (cfiCond305) DPH0 load(1, XDATA, add(CFA_XSP16, literal(-1)))
        CFI (cfiCond305) CFA_SP SP+0
        CFI (cfiCond305) CFA_XSP16 add(XSP16, 17)
        CFI Block cfiCond306 Using cfiCommon0
        CFI (cfiCond306) NoFunction
        CFI (cfiCond306) Conditional ??CrossCallReturnLabel_138, ??CrossCallReturnLabel_131
        CFI (cfiCond306) R6 load(1, XDATA, add(CFA_XSP16, literal(-12)))
        CFI (cfiCond306) VB load(1, XDATA, add(CFA_XSP16, literal(-11)))
        CFI (cfiCond306) V0 load(1, XDATA, add(CFA_XSP16, literal(-10)))
        CFI (cfiCond306) V1 load(1, XDATA, add(CFA_XSP16, literal(-9)))
        CFI (cfiCond306) V2 load(1, XDATA, add(CFA_XSP16, literal(-8)))
        CFI (cfiCond306) V3 load(1, XDATA, add(CFA_XSP16, literal(-7)))
        CFI (cfiCond306) R7 load(1, XDATA, add(CFA_XSP16, literal(-6)))
        CFI (cfiCond306) ?RET_LOW load(1, XDATA, add(CFA_XSP16, literal(-5)))
        CFI (cfiCond306) ?RET_HIGH load(1, XDATA, add(CFA_XSP16, literal(-4)))
        CFI (cfiCond306) ?BRET_EXT load(1, XDATA, add(CFA_XSP16, literal(-3)))
        CFI (cfiCond306) DPL0 load(1, XDATA, add(CFA_XSP16, literal(-2)))
        CFI (cfiCond306) DPH0 load(1, XDATA, add(CFA_XSP16, literal(-1)))
        CFI (cfiCond306) CFA_SP SP+0
        CFI (cfiCond306) CFA_XSP16 add(XSP16, 23)
        CFI Block cfiCond307 Using cfiCommon0
        CFI (cfiCond307) NoFunction
        CFI (cfiCond307) Conditional ??CrossCallReturnLabel_138, ??CrossCallReturnLabel_132
        CFI (cfiCond307) R6 load(1, XDATA, add(CFA_XSP16, literal(-11)))
        CFI (cfiCond307) VB load(1, XDATA, add(CFA_XSP16, literal(-10)))
        CFI (cfiCond307) V0 load(1, XDATA, add(CFA_XSP16, literal(-9)))
        CFI (cfiCond307) V1 load(1, XDATA, add(CFA_XSP16, literal(-8)))
        CFI (cfiCond307) V2 load(1, XDATA, add(CFA_XSP16, literal(-7)))
        CFI (cfiCond307) R7 load(1, XDATA, add(CFA_XSP16, literal(-6)))
        CFI (cfiCond307) ?RET_LOW load(1, XDATA, add(CFA_XSP16, literal(-5)))
        CFI (cfiCond307) ?RET_HIGH load(1, XDATA, add(CFA_XSP16, literal(-4)))
        CFI (cfiCond307) ?BRET_EXT load(1, XDATA, add(CFA_XSP16, literal(-3)))
        CFI (cfiCond307) DPL0 load(1, XDATA, add(CFA_XSP16, literal(-2)))
        CFI (cfiCond307) DPH0 load(1, XDATA, add(CFA_XSP16, literal(-1)))
        CFI (cfiCond307) CFA_SP SP+0
        CFI (cfiCond307) CFA_XSP16 add(XSP16, 13)
        CFI Block cfiCond308 Using cfiCommon0
        CFI (cfiCond308) NoFunction
        CFI (cfiCond308) Conditional ??CrossCallReturnLabel_138, ??CrossCallReturnLabel_133
        CFI (cfiCond308) R6 load(1, XDATA, add(CFA_XSP16, literal(-11)))
        CFI (cfiCond308) VB load(1, XDATA, add(CFA_XSP16, literal(-10)))
        CFI (cfiCond308) V0 load(1, XDATA, add(CFA_XSP16, literal(-9)))
        CFI (cfiCond308) V1 load(1, XDATA, add(CFA_XSP16, literal(-8)))
        CFI (cfiCond308) V2 load(1, XDATA, add(CFA_XSP16, literal(-7)))
        CFI (cfiCond308) R7 load(1, XDATA, add(CFA_XSP16, literal(-6)))
        CFI (cfiCond308) ?RET_LOW load(1, XDATA, add(CFA_XSP16, literal(-5)))
        CFI (cfiCond308) ?RET_HIGH load(1, XDATA, add(CFA_XSP16, literal(-4)))
        CFI (cfiCond308) ?BRET_EXT load(1, XDATA, add(CFA_XSP16, literal(-3)))
        CFI (cfiCond308) DPL0 load(1, XDATA, add(CFA_XSP16, literal(-2)))
        CFI (cfiCond308) DPH0 load(1, XDATA, add(CFA_XSP16, literal(-1)))
        CFI (cfiCond308) CFA_SP SP+0
        CFI (cfiCond308) CFA_XSP16 add(XSP16, 13)
        CFI Block cfiCond309 Using cfiCommon0
        CFI (cfiCond309) NoFunction
        CFI (cfiCond309) Conditional ??CrossCallReturnLabel_138, ??CrossCallReturnLabel_134
        CFI (cfiCond309) R6 load(1, XDATA, add(CFA_XSP16, literal(-15)))
        CFI (cfiCond309) VB load(1, XDATA, add(CFA_XSP16, literal(-14)))
        CFI (cfiCond309) V0 load(1, XDATA, add(CFA_XSP16, literal(-13)))
        CFI (cfiCond309) V1 load(1, XDATA, add(CFA_XSP16, literal(-12)))
        CFI (cfiCond309) V2 load(1, XDATA, add(CFA_XSP16, literal(-11)))
        CFI (cfiCond309) V3 load(1, XDATA, add(CFA_XSP16, literal(-10)))
        CFI (cfiCond309) V4 load(1, XDATA, add(CFA_XSP16, literal(-9)))
        CFI (cfiCond309) V5 load(1, XDATA, add(CFA_XSP16, literal(-8)))
        CFI (cfiCond309) V6 load(1, XDATA, add(CFA_XSP16, literal(-7)))
        CFI (cfiCond309) R7 load(1, XDATA, add(CFA_XSP16, literal(-6)))
        CFI (cfiCond309) ?RET_LOW load(1, XDATA, add(CFA_XSP16, literal(-5)))
        CFI (cfiCond309) ?RET_HIGH load(1, XDATA, add(CFA_XSP16, literal(-4)))
        CFI (cfiCond309) ?BRET_EXT load(1, XDATA, add(CFA_XSP16, literal(-3)))
        CFI (cfiCond309) DPL0 load(1, XDATA, add(CFA_XSP16, literal(-2)))
        CFI (cfiCond309) DPH0 load(1, XDATA, add(CFA_XSP16, literal(-1)))
        CFI (cfiCond309) CFA_SP SP+0
        CFI (cfiCond309) CFA_XSP16 add(XSP16, 17)
        CFI Block cfiCond310 Using cfiCommon0
        CFI (cfiCond310) NoFunction
        CFI (cfiCond310) Conditional ??CrossCallReturnLabel_138, ??CrossCallReturnLabel_135
        CFI (cfiCond310) R6 load(1, XDATA, add(CFA_XSP16, literal(-15)))
        CFI (cfiCond310) VB load(1, XDATA, add(CFA_XSP16, literal(-14)))
        CFI (cfiCond310) V0 load(1, XDATA, add(CFA_XSP16, literal(-13)))
        CFI (cfiCond310) V1 load(1, XDATA, add(CFA_XSP16, literal(-12)))
        CFI (cfiCond310) V2 load(1, XDATA, add(CFA_XSP16, literal(-11)))
        CFI (cfiCond310) V3 load(1, XDATA, add(CFA_XSP16, literal(-10)))
        CFI (cfiCond310) V4 load(1, XDATA, add(CFA_XSP16, literal(-9)))
        CFI (cfiCond310) V5 load(1, XDATA, add(CFA_XSP16, literal(-8)))
        CFI (cfiCond310) V6 load(1, XDATA, add(CFA_XSP16, literal(-7)))
        CFI (cfiCond310) R7 load(1, XDATA, add(CFA_XSP16, literal(-6)))
        CFI (cfiCond310) ?RET_LOW load(1, XDATA, add(CFA_XSP16, literal(-5)))
        CFI (cfiCond310) ?RET_HIGH load(1, XDATA, add(CFA_XSP16, literal(-4)))
        CFI (cfiCond310) ?BRET_EXT load(1, XDATA, add(CFA_XSP16, literal(-3)))
        CFI (cfiCond310) DPL0 load(1, XDATA, add(CFA_XSP16, literal(-2)))
        CFI (cfiCond310) DPH0 load(1, XDATA, add(CFA_XSP16, literal(-1)))
        CFI (cfiCond310) CFA_SP SP+0
        CFI (cfiCond310) CFA_XSP16 add(XSP16, 17)
        CFI Block cfiCond311 Using cfiCommon0
        CFI (cfiCond311) NoFunction
        CFI (cfiCond311) Conditional ??CrossCallReturnLabel_138, ??CrossCallReturnLabel_136
        CFI (cfiCond311) R6 load(1, XDATA, add(CFA_XSP16, literal(-15)))
        CFI (cfiCond311) VB load(1, XDATA, add(CFA_XSP16, literal(-14)))
        CFI (cfiCond311) V0 load(1, XDATA, add(CFA_XSP16, literal(-13)))
        CFI (cfiCond311) V1 load(1, XDATA, add(CFA_XSP16, literal(-12)))
        CFI (cfiCond311) V2 load(1, XDATA, add(CFA_XSP16, literal(-11)))
        CFI (cfiCond311) V3 load(1, XDATA, add(CFA_XSP16, literal(-10)))
        CFI (cfiCond311) V4 load(1, XDATA, add(CFA_XSP16, literal(-9)))
        CFI (cfiCond311) V5 load(1, XDATA, add(CFA_XSP16, literal(-8)))
        CFI (cfiCond311) V6 load(1, XDATA, add(CFA_XSP16, literal(-7)))
        CFI (cfiCond311) R7 load(1, XDATA, add(CFA_XSP16, literal(-6)))
        CFI (cfiCond311) ?RET_LOW load(1, XDATA, add(CFA_XSP16, literal(-5)))
        CFI (cfiCond311) ?RET_HIGH load(1, XDATA, add(CFA_XSP16, literal(-4)))
        CFI (cfiCond311) ?BRET_EXT load(1, XDATA, add(CFA_XSP16, literal(-3)))
        CFI (cfiCond311) DPL0 load(1, XDATA, add(CFA_XSP16, literal(-2)))
        CFI (cfiCond311) DPH0 load(1, XDATA, add(CFA_XSP16, literal(-1)))
        CFI (cfiCond311) CFA_SP SP+0
        CFI (cfiCond311) CFA_XSP16 add(XSP16, 17)
        CFI Block cfiPicker312 Using cfiCommon1
        CFI (cfiPicker312) NoFunction
        CFI (cfiPicker312) Picker
        MOV     R2,A
        INC     DPTR
        MOVX    A,@DPTR
        ADDC    A,#0x0
        MOV     R3,A
        LCALL   ??incode_xtocs?relay
        MOV     A,#0x2
        RET
        CFI EndBlock cfiCond299
        CFI EndBlock cfiCond300
        CFI EndBlock cfiCond301
        CFI EndBlock cfiCond302
        CFI EndBlock cfiCond303
        CFI EndBlock cfiCond304
        CFI EndBlock cfiCond305
        CFI EndBlock cfiCond306
        CFI EndBlock cfiCond307
        CFI EndBlock cfiCond308
        CFI EndBlock cfiCond309
        CFI EndBlock cfiCond310
        CFI EndBlock cfiCond311
        CFI EndBlock cfiPicker312
//  846 

        RSEG BANKED_CODE:CODE:NOROOT(0)
//  847 int8 get_airdetect_data(uint8 *data, uint8 *dataLen)
get_airdetect_data:
        CFI Block cfiBlock313 Using cfiCommon0
        CFI Function get_airdetect_data
        CODE
//  848 {
        FUNCALL get_airdetect_data, osal_mem_free
        LOCFRAME ISTACK, 0, STACK
        LOCFRAME PSTACK, 0, STACK
        LOCFRAME XSTACK, 15, STACK
        LOCFRAME IOVERLAY, 0, STATIC
        LOCFRAME DOVERLAY, 0, STATIC
        ARGFRAME ISTACK, 0, STACK
        ARGFRAME PSTACK, 0, STACK
        ARGFRAME XSTACK, 15, STACK
        ARGFRAME IOVERLAY, 0, STATIC
        ARGFRAME DOVERLAY, 0, STATIC
        FUNCALL get_airdetect_data, osal_mem_alloc
        LOCFRAME ISTACK, 0, STACK
        LOCFRAME PSTACK, 0, STACK
        LOCFRAME XSTACK, 15, STACK
        LOCFRAME IOVERLAY, 0, STATIC
        LOCFRAME DOVERLAY, 0, STATIC
        ARGFRAME ISTACK, 0, STACK
        ARGFRAME PSTACK, 0, STACK
        ARGFRAME XSTACK, 15, STACK
        ARGFRAME IOVERLAY, 0, STATIC
        ARGFRAME DOVERLAY, 0, STATIC
        FUNCALL get_airdetect_data, osal_memcpy
        LOCFRAME ISTACK, 0, STACK
        LOCFRAME PSTACK, 0, STACK
        LOCFRAME XSTACK, 18, STACK
        LOCFRAME IOVERLAY, 0, STATIC
        LOCFRAME DOVERLAY, 0, STATIC
        ARGFRAME ISTACK, 0, STACK
        ARGFRAME PSTACK, 0, STACK
        ARGFRAME XSTACK, 18, STACK
        ARGFRAME IOVERLAY, 0, STATIC
        ARGFRAME DOVERLAY, 0, STATIC
        FUNCALL get_airdetect_data, incode_xtocs
        LOCFRAME ISTACK, 0, STACK
        LOCFRAME PSTACK, 0, STACK
        LOCFRAME XSTACK, 17, STACK
        LOCFRAME IOVERLAY, 0, STATIC
        LOCFRAME DOVERLAY, 0, STATIC
        ARGFRAME ISTACK, 0, STACK
        ARGFRAME PSTACK, 0, STACK
        ARGFRAME XSTACK, 17, STACK
        ARGFRAME IOVERLAY, 0, STATIC
        ARGFRAME DOVERLAY, 0, STATIC
        FUNCALL get_airdetect_data, osal_memcpy
        LOCFRAME ISTACK, 0, STACK
        LOCFRAME PSTACK, 0, STACK
        LOCFRAME XSTACK, 18, STACK
        LOCFRAME IOVERLAY, 0, STATIC
        LOCFRAME DOVERLAY, 0, STATIC
        ARGFRAME ISTACK, 0, STACK
        ARGFRAME PSTACK, 0, STACK
        ARGFRAME XSTACK, 18, STACK
        ARGFRAME IOVERLAY, 0, STATIC
        ARGFRAME DOVERLAY, 0, STATIC
        FUNCALL get_airdetect_data, osal_memcpy
        LOCFRAME ISTACK, 0, STACK
        LOCFRAME PSTACK, 0, STACK
        LOCFRAME XSTACK, 18, STACK
        LOCFRAME IOVERLAY, 0, STATIC
        LOCFRAME DOVERLAY, 0, STATIC
        ARGFRAME ISTACK, 0, STACK
        ARGFRAME PSTACK, 0, STACK
        ARGFRAME XSTACK, 18, STACK
        ARGFRAME IOVERLAY, 0, STATIC
        ARGFRAME DOVERLAY, 0, STATIC
        MOV     A,#-0xf
        LCALL   ?BANKED_ENTER_XDATA
        CFI DPH0 load(1, XDATA, add(CFA_XSP16, literal(-1)))
        CFI DPL0 load(1, XDATA, add(CFA_XSP16, literal(-2)))
        CFI ?BRET_EXT load(1, XDATA, add(CFA_XSP16, literal(-3)))
        CFI ?RET_HIGH load(1, XDATA, add(CFA_XSP16, literal(-4)))
        CFI ?RET_LOW load(1, XDATA, add(CFA_XSP16, literal(-5)))
        CFI R7 load(1, XDATA, add(CFA_XSP16, literal(-6)))
        CFI V6 load(1, XDATA, add(CFA_XSP16, literal(-7)))
        CFI V5 load(1, XDATA, add(CFA_XSP16, literal(-8)))
        CFI V4 load(1, XDATA, add(CFA_XSP16, literal(-9)))
        CFI V3 load(1, XDATA, add(CFA_XSP16, literal(-10)))
        CFI V2 load(1, XDATA, add(CFA_XSP16, literal(-11)))
        CFI V1 load(1, XDATA, add(CFA_XSP16, literal(-12)))
        CFI V0 load(1, XDATA, add(CFA_XSP16, literal(-13)))
        CFI VB load(1, XDATA, add(CFA_XSP16, literal(-14)))
        CFI R6 load(1, XDATA, add(CFA_XSP16, literal(-15)))
        CFI CFA_SP SP+0
        CFI CFA_XSP16 add(XSP16, 15)
        ; Saved register size: 15
        ; Auto size: 0
        LCALL   ?Subroutine12 & 0xFFFF
//  849 	if(optData != NULL && optDataLen < AIRDETECT_DATA_SIZE)
??CrossCallReturnLabel_106:
        JZ      ??CrossCallReturnLabel_12
        MOV     DPTR,#optDataLen
        MOVX    A,@DPTR
        CLR     C
        SUBB    A,#0x5
        JNC     ??CrossCallReturnLabel_37
//  850 	{
//  851 		osal_mem_free(optData);
        ; Setup parameters for call to function osal_mem_free
        LCALL   ?Subroutine6 & 0xFFFF
//  852 		optData = NULL;
//  853 		optDataLen = 0;
//  854 	}
//  855 
//  856 	if(optData == NULL)
//  857 	{
//  858 		optData = osal_mem_alloc(AIRDETECT_DATA_SIZE);
??CrossCallReturnLabel_12:
        ; Setup parameters for call to function osal_mem_alloc
        LCALL   ?Subroutine21 & 0xFFFF
//  859 		optDataLen = AIRDETECT_DATA_SIZE;
//  860 	}
//  861 
//  862 	osal_memcpy(optData, DEMOBASE_DEVICE_AIRDETECT, 2);
??CrossCallReturnLabel_37:
        ; Setup parameters for call to function osal_memcpy
        MOV     ?V0 + 4,#`?<Constant "06">` & 0xff
        MOV     ?V0 + 5,#(`?<Constant "06">` >> 8) & 0xff
        MOV     ?V0 + 6,#0x0
        MOV     R0,#?V0 + 4
        LCALL   ?PUSH_XSTACK_I_THREE
        CFI CFA_XSP16 add(XSP16, 18)
        LCALL   ?Subroutine7 & 0xFFFF
??CrossCallReturnLabel_87:
        LCALL   ?DEALLOC_XSTACK8
        CFI CFA_XSP16 add(XSP16, 15)
//  863 
//  864 	if(queryStates)
        LCALL   ?Subroutine11 & 0xFFFF
??CrossCallReturnLabel_21:
        JZ      ??get_airdetect_data_0
//  865 	{
//  866 		optData[2] = 'S';
        LCALL   ?Subroutine22 & 0xFFFF
//  867 		incode_xtocs(optData+3, &airStates, 1);
??CrossCallReturnLabel_115:
        LCALL   ?PUSH_XSTACK_I_TWO
        CFI CFA_XSP16 add(XSP16, 17)
        MOV     R4,#airStates & 0xff
        MOV     R5,#(airStates >> 8) & 0xff
        LCALL   ??Subroutine51_0 & 0xFFFF
??CrossCallReturnLabel_136:
        LCALL   ?DEALLOC_XSTACK8
        CFI CFA_XSP16 add(XSP16, 15)
//  868 
//  869 		osal_memcpy(data, optData, AIRDETECT_DATA_SIZE);
        ; Setup parameters for call to function osal_memcpy
        LCALL   ??Subroutine50_0 & 0xFFFF
??CrossCallReturnLabel_128:
        LCALL   ?PUSH_XSTACK_I_THREE
        CFI CFA_XSP16 add(XSP16, 18)
        MOV     R4,#0x5
        LCALL   ??Subroutine42_0 & 0xFFFF
??CrossCallReturnLabel_96:
        LCALL   ?DEALLOC_XSTACK8
        CFI CFA_XSP16 add(XSP16, 15)
//  870 		*dataLen = AIRDETECT_DATA_SIZE;
        MOV     DPL,?V0 + 0
        MOV     DPH,?V0 + 1
        MOV     A,#0x5
        SJMP    ??get_airdetect_data_1
//  871 	}
//  872 	else
//  873 	{
//  874 		optData[2] = 'P';
??get_airdetect_data_0:
        LCALL   ?Subroutine9 & 0xFFFF
//  875 		
//  876 		osal_memcpy(data, optData, 3);
??CrossCallReturnLabel_120:
        LCALL   ?PUSH_XSTACK_I_THREE
        CFI CFA_XSP16 add(XSP16, 18)
        LCALL   ?Subroutine27 & 0xFFFF
??CrossCallReturnLabel_92:
        LCALL   ?DEALLOC_XSTACK8
        CFI CFA_XSP16 add(XSP16, 15)
//  877 		*dataLen = 3;
        MOV     DPL,?V0 + 0
        MOV     DPH,?V0 + 1
        MOV     A,#0x3
//  878 	}
??get_airdetect_data_1:
        LJMP    ?Subroutine3 & 0xFFFF
        CFI EndBlock cfiBlock313
//  879 	
//  880 	return 0;
//  881 }

        RSEG XDATA_ID:CODE:NOROOT(0)
`?<Initializer for lightGrade>`:
        DATA8
        DB 2

        RSEG XDATA_ID:CODE:NOROOT(0)
`?<Initializer for airStates>`:
        DATA8
        DB 1

        RSEG BANK_RELAYS:CODE:REORDER:NOROOT(0)
??HalDeviceInit?relay:
        LCALL   ?BDISPATCH
        DATA
        DC24    HalDeviceInit

        RSEG BANK_RELAYS:CODE:REORDER:NOROOT(0)
??HalStatesInit?relay:
        LCALL   ?BDISPATCH
        DATA
        DC24    HalStatesInit

        RSEG BANK_RELAYS:CODE:REORDER:NOROOT(0)
??set_device_data?relay:
        LCALL   ?BDISPATCH
        DATA
        DC24    set_device_data

        RSEG BANK_RELAYS:CODE:REORDER:NOROOT(0)
??get_device_data?relay:
        LCALL   ?BDISPATCH
        DATA
        DC24    get_device_data

        RSEG BANK_RELAYS:CODE:REORDER:NOROOT(0)
??DemoBaseRFID_QueryCB?relay:
        LCALL   ?BDISPATCH
        DATA
        DC24    DemoBaseRFID_QueryCB

        RSEG BANK_RELAYS:CODE:REORDER:NOROOT(0)
??DemoBaseRFID_StopBeeCB?relay:
        LCALL   ?BDISPATCH
        DATA
        DC24    DemoBaseRFID_StopBeeCB

        RSEG BANK_RELAYS:CODE:REORDER:NOROOT(0)
??DemoBaseHumiture_StatusCB?relay:
        LCALL   ?BDISPATCH
        DATA
        DC24    DemoBaseHumiture_StatusCB

        RSEG BANK_RELAYS:CODE:REORDER:NOROOT(0)
??DemoBaseLightDetect_StatusCB?relay:
        LCALL   ?BDISPATCH
        DATA
        DC24    DemoBaseLightDetect_StatusCB

        RSEG BANK_RELAYS:CODE:REORDER:NOROOT(0)
??DemoBaseAirDetect_StatusCB?relay:
        LCALL   ?BDISPATCH
        DATA
        DC24    DemoBaseAirDetect_StatusCB

        RSEG BANK_RELAYS:CODE:REORDER:NOROOT(0)
??lightctrl_init?relay:
        LCALL   ?BDISPATCH
        DATA
        DC24    lightctrl_init

        RSEG BANK_RELAYS:CODE:REORDER:NOROOT(0)
??set_lightctrl_data?relay:
        LCALL   ?BDISPATCH
        DATA
        DC24    set_lightctrl_data

        RSEG BANK_RELAYS:CODE:REORDER:NOROOT(0)
??get_plc_data?relay:
        LCALL   ?BDISPATCH
        DATA
        DC24    get_plc_data

        RSEG BANK_RELAYS:CODE:REORDER:NOROOT(0)
??get_rfid_data?relay:
        LCALL   ?BDISPATCH
        DATA
        DC24    get_rfid_data

        RSEG BANK_RELAYS:CODE:REORDER:NOROOT(0)
??get_humiture_data?relay:
        LCALL   ?BDISPATCH
        DATA
        DC24    get_humiture_data

        RSEG BANK_RELAYS:CODE:REORDER:NOROOT(0)
??get_lightdetect_data?relay:
        LCALL   ?BDISPATCH
        DATA
        DC24    get_lightdetect_data

        RSEG BANK_RELAYS:CODE:REORDER:NOROOT(0)
??get_airdetect_data?relay:
        LCALL   ?BDISPATCH
        DATA
        DC24    get_airdetect_data

        RSEG XDATA_ROM_C:CONST:REORDER:NOROOT(0)
        DATA8
`?<Constant "SETID">`:
        DB "SETID"

        RSEG XDATA_ROM_C:CONST:REORDER:NOROOT(0)
        DATA8
`?<Constant "GETID">`:
        DB "GETID"

        RSEG XDATA_ROM_C:CONST:REORDER:NOROOT(0)
        DATA8
`?<Constant "ER">`:
        DB "ER"

        RSEG XDATA_ROM_C:CONST:REORDER:NOROOT(0)
        DATA8
`?<Constant "03">`:
        DB "03"

        RSEG XDATA_ROM_C:CONST:REORDER:NOROOT(0)
        DATA8
`?<Constant "04">`:
        DB "04"

        RSEG XDATA_ROM_C:CONST:REORDER:NOROOT(0)
        DATA8
`?<Constant "05">`:
        DB "05"

        RSEG XDATA_ROM_C:CONST:REORDER:NOROOT(0)
        DATA8
`?<Constant "06">`:
        DB "06"

        RSEG XDATA_ROM_C:CONST:REORDER:NOROOT(0)
        DATA8
`?<Constant "01">`:
        DB "01"

        RSEG XDATA_ROM_C:CONST:REORDER:NOROOT(0)
        DATA8
`?<Constant "02">`:
        DB "02"

        RSEG XDATA_ROM_C:CONST:REORDER:NOROOT(0)
        DATA8
`?<Constant "07">`:
        DB "07"

        END
//  882 
//  883 int8 get_lightctrl_data(uint8 *data, uint8 *dataLen)
//  884 {
//  885 	if(optData != NULL && optDataLen < LIGHTCTRL_DATA_SIZE)
//  886 	{
//  887 		osal_mem_free(optData);
//  888 		optData = NULL;
//  889 	}
//  890 
//  891 	if(optData == NULL)
//  892 	{
//  893 		optData = osal_mem_alloc(LIGHTCTRL_DATA_SIZE);
//  894 		optDataLen = LIGHTCTRL_DATA_SIZE;
//  895 	}
//  896 
//  897 	osal_memcpy(optData, DEMOBASE_DEVICE_LIGHTCTRL, 2);
//  898 	incode_xtocs(optData+2, &lightCtrlStates, 1);
//  899 
//  900 	osal_memcpy(data, optData, LIGHTCTRL_DATA_SIZE);
//  901 	*dataLen = LIGHTCTRL_DATA_SIZE;
//  902 
//  903 	return 0;
//  904 }
// 
// 2 998 bytes in segment BANKED_CODE
//    96 bytes in segment BANK_RELAYS
//    17 bytes in segment SFR_AN
//     2 bytes in segment XDATA_I
//     2 bytes in segment XDATA_ID
//    36 bytes in segment XDATA_ROM_C
//    14 bytes in segment XDATA_Z
// 
// 3 096 bytes of CODE  memory
//    36 bytes of CONST memory
//     0 bytes of DATA  memory (+ 17 bytes shared)
//    16 bytes of XDATA memory
//
//Errors: none
//Warnings: none
