###############################################################################
#                                                                             #
# IAR C/C++ Compiler V8.10.1.10194/W32 for 8051         01/Dec/2016  17:09:45 #
# Copyright 2004-2011 IAR Systems AB.                                         #
#                                                                             #
#    Core               =  plain                                              #
#    Code model         =  banked                                             #
#    Data model         =  large                                              #
#    Calling convention =  xdata reentrant                                    #
#    Constant location  =  data_rom                                           #
#    Dptr setup         =  1,16                                               #
#    Source file        =  E:\work\zigbee\ZStack-Smart-2.5.2b\Projects\zstack #
#                          \Applications\SmartApp\Source\Device\EndnodeApp.c  #
#    Command line       =  -f E:\work\zigbee\ZStack-Smart-2.5.2b\Projects\zst #
#                          ack\Applications\SmartApp\CC2530DB\Devices\..\..\. #
#                          .\..\Tools\CC2530DB\f8wEndev.cfg (-DCPU32MHZ       #
#                          -DROOT=__near_func -DMAC_CFG_TX_DATA_MAX=3         #
#                          -DMAC_CFG_TX_MAX=6 -DMAC_CFG_RX_MAX=3              #
#                          -DSSA_ENDNODE) -f E:\work\zigbee\ZStack-Smart-2.5. #
#                          2b\Projects\zstack\Applications\SmartApp\CC2530DB\ #
#                          Devices\..\..\..\..\Tools\CC2530DB\f8wConfig.cfg   #
#                          (-DZIGBEEPRO -DSECURE=1 -DZG_SECURE_DYNAMIC=1      #
#                          -DREFLECTOR -DDEFAULT_CHANLIST=0x00000800          #
#                          -DZDAPP_CONFIG_PAN_ID=0xFFFF                       #
#                          -DNWK_START_DELAY=100 -DEXTENDED_JOINING_RANDOM_MA #
#                          SK=0x007F -DBEACON_REQUEST_DELAY=100               #
#                          -DBEACON_REQ_DELAY_MASK=0x00FF                     #
#                          -DLINK_STATUS_JITTER_MASK=0x007F                   #
#                          -DROUTE_EXPIRY_TIME=30 -DAPSC_ACK_WAIT_DURATION_PO #
#                          LLED=3000 -DNWK_INDIRECT_MSG_TIMEOUT=7             #
#                          -DMAX_RREQ_ENTRIES=8 -DAPSC_MAX_FRAME_RETRIES=3    #
#                          -DNWK_MAX_DATA_RETRIES=2                           #
#                          -DMAX_POLL_FAILURE_RETRIES=2 -DMAX_BCAST=9         #
#                          -DAPS_MAX_GROUPS=16 -DMAX_RTG_ENTRIES=40           #
#                          -DNWK_MAX_BINDING_ENTRIES=4                        #
#                          -DMAX_BINDING_CLUSTER_IDS=4 "-DDEFAULT_KEY={0x01,  #
#                          0x03, 0x05, 0x07, 0x09, 0x0B, 0x0D, 0x0F, 0x00,    #
#                          0x02, 0x04, 0x06, 0x08, 0x0A, 0x0C, 0x0D}"         #
#                          -DMAC_MAX_FRAME_SIZE=116                           #
#                          -DZDNWKMGR_MIN_TRANSMISSIONS=20 "-DCONST=const     #
#                          __code" -DGENERIC=__generic                        #
#                          -DRFD_RCVC_ALWAYS_ON=TRUE -DPOLL_RATE=1000         #
#                          -DQUEUED_POLL_RATE=100 -DRESPONSE_POLL_RATE=100)   #
#                          -DREJOIN_POLL_RATE=440 E:\work\zigbee\ZStack-Smart #
#                          -2.5.2b\Projects\zstack\Applications\SmartApp\Sour #
#                          ce\Device\EndnodeApp.c -D SECURE=1 -D ZTOOL_P1 -D  #
#                          DEVICE_TYPE_ID=0xFE -D xSIGNAL_AMPLIFIER_SETTING   #
#                          -D xNWK_AUTO_POLL -D xHAL_UART_DMA=2 -D            #
#                          xHAL_UART_DMA_ALT1 -D xJIAJU_BUILDIN -D MT_TASK    #
#                          -D MT_SYS_FUNC -D MT_ZDO_FUNC -D NV_INIT -D        #
#                          NV_RESTORE -lC E:\work\zigbee\ZStack-Smart-2.5.2b\ #
#                          Projects\zstack\Applications\SmartApp\CC2530DB\bin #
#                          \DemoBaseZD\List\ -lA E:\work\zigbee\ZStack-Smart- #
#                          2.5.2b\Projects\zstack\Applications\SmartApp\CC253 #
#                          0DB\bin\DemoBaseZD\List\ --diag_suppress           #
#                          Pe001,Pa010 -o E:\work\zigbee\ZStack-Smart-2.5.2b\ #
#                          Projects\zstack\Applications\SmartApp\CC2530DB\bin #
#                          \DemoBaseZD\Obj\ -e --debug --core=plain           #
#                          --dptr=16,1 --data_model=large                     #
#                          --code_model=banked --calling_convention=xdata_ree #
#                          ntrant --place_constants=data_rom                  #
#                          --nr_virtual_regs 16 -I E:\work\zigbee\ZStack-Smar #
#                          t-2.5.2b\Projects\zstack\Applications\SmartApp\CC2 #
#                          530DB\Devices\ -I E:\work\zigbee\ZStack-Smart-2.5. #
#                          2b\Projects\zstack\Applications\SmartApp\CC2530DB\ #
#                          Devices\..\..\Source\Common\ -I                    #
#                          E:\work\zigbee\ZStack-Smart-2.5.2b\Projects\zstack #
#                          \Applications\SmartApp\CC2530DB\Devices\..\..\Sour #
#                          ce\Connector\ -I E:\work\zigbee\ZStack-Smart-2.5.2 #
#                          b\Projects\zstack\Applications\SmartApp\CC2530DB\D #
#                          evices\..\..\Source\\EndNode\ -I                   #
#                          E:\work\zigbee\ZStack-Smart-2.5.2b\Projects\zstack #
#                          \Applications\SmartApp\CC2530DB\Devices\..\..\Sour #
#                          ce\Board\ -I E:\work\zigbee\ZStack-Smart-2.5.2b\Pr #
#                          ojects\zstack\Applications\SmartApp\CC2530DB\Devic #
#                          es\..\..\Source\Manage\ -I                         #
#                          E:\work\zigbee\ZStack-Smart-2.5.2b\Projects\zstack #
#                          \Applications\SmartApp\CC2530DB\Devices\..\..\Sour #
#                          ce\Manage\Callbacks\ -I E:\work\zigbee\ZStack-Smar #
#                          t-2.5.2b\Projects\zstack\Applications\SmartApp\CC2 #
#                          530DB\Devices\..\..\Source\Manage\debug\ -I        #
#                          E:\work\zigbee\ZStack-Smart-2.5.2b\Projects\zstack #
#                          \Applications\SmartApp\CC2530DB\Devices\..\..\Sour #
#                          ce\Manage\HeartBeat\ -I E:\work\zigbee\ZStack-Smar #
#                          t-2.5.2b\Projects\zstack\Applications\SmartApp\CC2 #
#                          530DB\Devices\..\..\Source\Manage\incode\ -I       #
#                          E:\work\zigbee\ZStack-Smart-2.5.2b\Projects\zstack #
#                          \Applications\SmartApp\CC2530DB\Devices\..\..\..\. #
#                          .\ZMain\TI2530DB\ -I E:\work\zigbee\ZStack-Smart-2 #
#                          .5.2b\Projects\zstack\Applications\SmartApp\CC2530 #
#                          DB\Devices\..\..\..\..\..\..\Components\hal\includ #
#                          e\ -I E:\work\zigbee\ZStack-Smart-2.5.2b\Projects\ #
#                          zstack\Applications\SmartApp\CC2530DB\Devices\..\. #
#                          .\..\..\..\..\Components\hal\target\CC2530EB\ -I   #
#                          E:\work\zigbee\ZStack-Smart-2.5.2b\Projects\zstack #
#                          \Applications\SmartApp\CC2530DB\Devices\..\..\..\. #
#                          .\..\..\Components\mac\include\ -I                 #
#                          E:\work\zigbee\ZStack-Smart-2.5.2b\Projects\zstack #
#                          \Applications\SmartApp\CC2530DB\Devices\..\..\..\. #
#                          .\..\..\Components\mac\high_level\ -I              #
#                          E:\work\zigbee\ZStack-Smart-2.5.2b\Projects\zstack #
#                          \Applications\SmartApp\CC2530DB\Devices\..\..\..\. #
#                          .\..\..\Components\mac\low_level\srf04\ -I         #
#                          E:\work\zigbee\ZStack-Smart-2.5.2b\Projects\zstack #
#                          \Applications\SmartApp\CC2530DB\Devices\..\..\..\. #
#                          .\..\..\Components\mac\low_level\srf04\single_chip #
#                          \ -I E:\work\zigbee\ZStack-Smart-2.5.2b\Projects\z #
#                          stack\Applications\SmartApp\CC2530DB\Devices\..\.. #
#                          \..\..\..\..\Components\mt\ -I                     #
#                          E:\work\zigbee\ZStack-Smart-2.5.2b\Projects\zstack #
#                          \Applications\SmartApp\CC2530DB\Devices\..\..\..\. #
#                          .\..\..\Components\osal\include\ -I                #
#                          E:\work\zigbee\ZStack-Smart-2.5.2b\Projects\zstack #
#                          \Applications\SmartApp\CC2530DB\Devices\..\..\..\. #
#                          .\..\..\Components\services\saddr\ -I              #
#                          E:\work\zigbee\ZStack-Smart-2.5.2b\Projects\zstack #
#                          \Applications\SmartApp\CC2530DB\Devices\..\..\..\. #
#                          .\..\..\Components\services\sdata\ -I              #
#                          E:\work\zigbee\ZStack-Smart-2.5.2b\Projects\zstack #
#                          \Applications\SmartApp\CC2530DB\Devices\..\..\..\. #
#                          .\..\..\Components\stack\af\ -I                    #
#                          E:\work\zigbee\ZStack-Smart-2.5.2b\Projects\zstack #
#                          \Applications\SmartApp\CC2530DB\Devices\..\..\..\. #
#                          .\..\..\Components\stack\nwk\ -I                   #
#                          E:\work\zigbee\ZStack-Smart-2.5.2b\Projects\zstack #
#                          \Applications\SmartApp\CC2530DB\Devices\..\..\..\. #
#                          .\..\..\Components\stack\sapi\ -I                  #
#                          E:\work\zigbee\ZStack-Smart-2.5.2b\Projects\zstack #
#                          \Applications\SmartApp\CC2530DB\Devices\..\..\..\. #
#                          .\..\..\Components\stack\sec\ -I                   #
#                          E:\work\zigbee\ZStack-Smart-2.5.2b\Projects\zstack #
#                          \Applications\SmartApp\CC2530DB\Devices\..\..\..\. #
#                          .\..\..\Components\stack\sys\ -I                   #
#                          E:\work\zigbee\ZStack-Smart-2.5.2b\Projects\zstack #
#                          \Applications\SmartApp\CC2530DB\Devices\..\..\..\. #
#                          .\..\..\Components\stack\zdo\ -I                   #
#                          E:\work\zigbee\ZStack-Smart-2.5.2b\Projects\zstack #
#                          \Applications\SmartApp\CC2530DB\Devices\..\..\..\. #
#                          .\..\..\Components\zmac\ -I                        #
#                          E:\work\zigbee\ZStack-Smart-2.5.2b\Projects\zstack #
#                          \Applications\SmartApp\CC2530DB\Devices\..\..\..\. #
#                          .\..\..\Components\zmac\f8w\ -Oh                   #
#                          --require_prototypes                               #
#    List file          =  E:\work\zigbee\ZStack-Smart-2.5.2b\Projects\zstack #
#                          \Applications\SmartApp\CC2530DB\bin\DemoBaseZD\Lis #
#                          t\EndnodeApp.lst                                   #
#    Object file        =  E:\work\zigbee\ZStack-Smart-2.5.2b\Projects\zstack #
#                          \Applications\SmartApp\CC2530DB\bin\DemoBaseZD\Obj #
#                          \EndnodeApp.r51                                    #
#                                                                             #
#                                                                             #
###############################################################################

E:\work\zigbee\ZStack-Smart-2.5.2b\Projects\zstack\Applications\SmartApp\Source\Device\EndnodeApp.c
      1          /**************************************************************************************************
      2            Filename:       EndnodeApp.c
      3            Revised:        $Date: 2014-04-16 18:34:36 -0800 (Wed, 16 Apr 2014) $
      4            Revision:       $Revision: 29217 $
      5          
      6            Description:    End Node Application
      7          **************************************************************************************************/
      8          
      9          /**************************************************************************************************
     10          Modify by Sam_Chen
     11          Date:2015-07-31
     12          **************************************************************************************************/
     13          
     14          /*********************************************************************
     15           * INCLUDES
     16           */
     17          #include "OSAL.h"
     18          #include "AF.h"
     19          #include "ZDApp.h"
     20          #include "ZDObject.h"
     21          #include "ZDProfile.h"
     22          #include "OSAL_Nv.h"
     23          #include "OnBoard.h"

   \                                 In  segment SFR_AN, at 0xc9
   \   unsigned char volatile __sfr WDCTL
   \                     WDCTL:
   \   000000                DS 1
     24          
     25          #include "ZComDef.h"
     26          #include "CommonApp.h"
     27          
     28          /* HAL */
     29          #include "hal_lcd.h"
     30          #include "hal_led.h"
     31          #include "hal_key.h"
     32          #include "hal_uart.h"
     33          
     34          
     35          
     36          /*********************************************************************
     37           * MACROS
     38           */
     39          
     40          /*********************************************************************
     41           * CONSTANTS
     42           */
     43          
     44          /*********************************************************************
     45           * TYPEDEFS
     46           */
     47          
     48          /*********************************************************************
     49           * GLOBAL VARIABLES
     50           */
     51          
     52          /*********************************************************************
     53           * EXTERNAL VARIABLES
     54           */
     55          void ConnectorApp_TxHandler(uint8 txBuf[], uint8 txLen);
     56          
     57          extern const cId_t CommonApp_InClusterList[];
     58          extern const cId_t CommonApp_OutClusterList[];
     59          extern const SimpleDescriptionFormat_t CommonApp_SimpleDesc;
     60          extern endPointDesc_t CommonApp_epDesc;
     61          
     62          extern byte CommonApp_TaskID;
     63          extern devStates_t CommonApp_NwkState;
     64          extern byte CommonApp_TransID;
     65          
     66          extern afAddrType_t CommonApp_DstAddr;
     67          
     68          //mac address
     69          extern ZLongAddr_t macAddr;
     70          
     71          extern uint8 SHORT_ADDR_G[4];
     72          
     73          extern uint8 EXT_ADDR_G[16];
     74          
     75          extern const uint8 f_tail[4];
     76          
     77          extern bool isPermitJoining;
     78          

   \                                 In  segment XDATA_Z, align 1, keep-with-next
     79          RS485DR_t  *rs485_rsData;
   \                     rs485_rsData:
   \   000000                DS 2
   \   000002                REQUIRE __INIT_XDATA_Z
     80          
     81          /*********************************************************************
     82           * EXTERNAL FUNCTIONS
     83           */
     84          
     85          /*********************************************************************
     86           * LOCAL VARIABLES
     87           */
     88          static uint8 *fBuf;		//pointer data buffer
     89          static uint16 fLen;		//buffer data length
     90          

   \                                 In  segment XDATA_Z, align 1, keep-with-next
     91          uint8 value_addr_L;
   \                     value_addr_L:
   \   000000                DS 1
   \   000001                REQUIRE __INIT_XDATA_Z

   \                                 In  segment XDATA_Z, align 1, keep-with-next
     92          uint8 value_addr_H;
   \                     value_addr_H:
   \   000000                DS 1
   \   000001                REQUIRE __INIT_XDATA_Z
     93          /*********************************************************************
     94           * LOCAL FUNCTIONS
     95           */
     96          static void EndNodeApp_HeartBeatEvent(void);
     97          static void Data_Analysis(uint8 *data, uint16 length);
     98          #ifdef RS485_DEV
     99          static void RS485_Analysis(uint8 *data, uint16 length);
    100          
    101          #endif
    102          /*********************************************************************
    103           * NETWORK LAYER CALLBACKS
    104           */
    105          
    106          /*********************************************************************
    107           * PUBLIC FUNCTIONS
    108           */
    109          
    110          /*********************************************************************
    111           * @fn      CommonApp_InitConfirm
    112           *
    113           * @brief   Initialization function for the End Node App Task.
    114           *          This is called during initialization and should contain
    115           *          any application specific initialization (ie. hardware
    116           *          initialization/setup, table initialization, power up
    117           *          notificaiton ... ).
    118           *
    119           * @param   task_id - the ID assigned by OSAL.  This ID should be
    120           *                    used to send messages and set timers.
    121           *
    122           * @return  none
    123           */
    124          

   \                                 In  segment BANKED_CODE, align 1, keep-with-next
    125          void CommonApp_InitConfirm( uint8 task_id )
   \                     CommonApp_InitConfirm:
    126          {
   \   000000   C082         PUSH    DPL
   \   000002   C083         PUSH    DPH
   \   000004                ; Saved register size: 2
   \   000004                ; Auto size: 0
    127          
    128            CommonApp_PermitJoiningRequest(PERMIT_JOIN_FORBID);
   \   000004                ; Setup parameters for call to function CommonApp_PermitJoiningRequest
   \   000004   7900         MOV     R1,#0x0
   \   000006   12....       LCALL   ??CommonApp_PermitJoiningRequest?relay
    129            ZDOInitDevice( 0 );
   \   000009                ; Setup parameters for call to function ZDOInitDevice
   \   000009   7A00         MOV     R2,#0x0
   \   00000B   7B00         MOV     R3,#0x0
   \   00000D   12....       LCALL   ??ZDOInitDevice?relay
    130          
    131          #if(HAL_UART==TRUE)
    132            SerialTx_Handler(SERIAL_COM_PORT, ConnectorApp_TxHandler);
   \   000010                ; Setup parameters for call to function SerialTx_Handler
   \   000010   7C..         MOV     R4,#??ConnectorApp_TxHandler?relay & 0xff
   \   000012   7D..         MOV     R5,#(??ConnectorApp_TxHandler?relay >> 8) & 0xff
   \   000014   7A00         MOV     R2,#0x0
   \   000016   7B00         MOV     R3,#0x0
   \   000018   12....       LCALL   ??SerialTx_Handler?relay
    133          #endif
    134          
    135          }
   \   00001B                REQUIRE ?Subroutine0
   \   00001B                ; // Fall through to label ?Subroutine0

   \                                 In  segment BANKED_CODE, align 1, keep-with-next
   \                     ?Subroutine0:
   \   000000   D083         POP     DPH
   \   000002   D082         POP     DPL
   \   000004   02....       LJMP    ?BRET
    136          
    137          
    138          /*********************************************************************
    139           * LOCAL FUNCTIONS
    140           */
    141          
    142          /*********************************************************************
    143           * @fn      CommonApp_MessageMSGCB
    144           *
    145           * @brief   Data message processor callback.  This function processes
    146           *          any incoming data - probably from other devices.  So, based
    147           *          on cluster ID, perform the intended action.
    148           *
    149           * @param   none
    150           *
    151           * @return  none
    152           */
    153          

   \                                 In  segment BANKED_CODE, align 1, keep-with-next
    154          void CommonApp_MessageMSGCB( afIncomingMSGPacket_t *pkt )
   \                     CommonApp_MessageMSGCB:
    155          {
   \   000000   C082         PUSH    DPL
   \   000002   C083         PUSH    DPH
   \   000004                ; Saved register size: 2
   \   000004                ; Auto size: 0
    156            switch ( pkt->clusterId )
   \   000004   8A82         MOV     DPL,R2
   \   000006   8B83         MOV     DPH,R3
   \   000008   A3           INC     DPTR
   \   000009   A3           INC     DPTR
   \   00000A   A3           INC     DPTR
   \   00000B   A3           INC     DPTR
   \   00000C   E0           MOVX    A,@DPTR
   \   00000D   6401         XRL     A,#0x1
   \   00000F   7002         JNZ     ??CommonApp_MessageMSGCB_0
   \   000011   A3           INC     DPTR
   \   000012   E0           MOVX    A,@DPTR
   \                     ??CommonApp_MessageMSGCB_0:
   \   000013   7021         JNZ     ??CommonApp_MessageMSGCB_1
    157            {
    158              case COMMONAPP_CLUSTERID:
    159          #ifndef RS485_DEV
    160                Data_Analysis(pkt->cmd.Data, pkt->cmd.DataLength);
    161          #else
    162                RS485_Analysis(pkt->cmd.Data, pkt->cmd.DataLength);
   \   000015                ; Setup parameters for call to function RS485_Analysis
   \   000015   EA           MOV     A,R2
   \   000016   2420         ADD     A,#0x20
   \   000018   F582         MOV     DPL,A
   \   00001A   EB           MOV     A,R3
   \   00001B   3400         ADDC    A,#0x0
   \   00001D   F583         MOV     DPH,A
   \   00001F   E0           MOVX    A,@DPTR
   \   000020   FC           MOV     R4,A
   \   000021   A3           INC     DPTR
   \   000022   E0           MOVX    A,@DPTR
   \   000023   FD           MOV     R5,A
   \   000024   EA           MOV     A,R2
   \   000025   2422         ADD     A,#0x22
   \   000027   F582         MOV     DPL,A
   \   000029   EB           MOV     A,R3
   \   00002A   3400         ADDC    A,#0x0
   \   00002C   F583         MOV     DPH,A
   \   00002E   E0           MOVX    A,@DPTR
   \   00002F   FA           MOV     R2,A
   \   000030   A3           INC     DPTR
   \   000031   E0           MOVX    A,@DPTR
   \   000032   FB           MOV     R3,A
   \   000033   12....       LCALL   ??RS485_Analysis?relay
    163          #endif
    164                break;
    165              default:
    166              break;
    167            }
    168          }
   \                     ??CommonApp_MessageMSGCB_1:
   \   000036   80..         SJMP    ?Subroutine0
    169          
    170          #ifdef RS485_DEV

   \                                 In  segment BANKED_CODE, align 1, keep-with-next
    171          void RS485_Analysis(uint8 *data, uint16 length)
   \                     RS485_Analysis:
    172          {
   \   000000   74F2         MOV     A,#-0xe
   \   000002   12....       LCALL   ?BANKED_ENTER_XDATA
   \   000005                ; Saved register size: 14
   \   000005                ; Auto size: 0
   \   000005   EA           MOV     A,R2
   \   000006   FE           MOV     R6,A
   \   000007   EB           MOV     A,R3
   \   000008   FF           MOV     R7,A
   \   000009   8C..         MOV     ?V0 + 0,R4
   \   00000B   8D..         MOV     ?V0 + 1,R5
    173          
    174            uint8 len=length;
   \   00000D   EC           MOV     A,R4
   \   00000E   F5..         MOV     ?V0 + 2,A
    175            memcpy(rs485_rsData->head,data,1);
   \   000010                ; Setup parameters for call to function memcpy
   \   000010   75..01       MOV     ?V0 + 4,#0x1
   \   000013   75..00       MOV     ?V0 + 5,#0x0
   \   000016   78..         MOV     R0,#?V0 + 4
   \   000018   12....       LCALL   ?PUSH_XSTACK_I_TWO
   \   00001B   EE           MOV     A,R6
   \   00001C   FC           MOV     R4,A
   \   00001D   EF           MOV     A,R7
   \   00001E   FD           MOV     R5,A
   \   00001F   90....       MOV     DPTR,#rs485_rsData
   \   000022   E0           MOVX    A,@DPTR
   \   000023   FA           MOV     R2,A
   \   000024   A3           INC     DPTR
   \   000025   E0           MOVX    A,@DPTR
   \   000026   FB           MOV     R3,A
   \   000027   12....       LCALL   ??memcpy?relay
   \   00002A   7402         MOV     A,#0x2
   \   00002C   12....       LCALL   ?DEALLOC_XSTACK8
    176            memcpy(rs485_rsData->cmdId,data+1,1);
   \   00002F                ; Setup parameters for call to function memcpy
   \   00002F   78..         MOV     R0,#?V0 + 4
   \   000031   12....       LCALL   ?PUSH_XSTACK_I_TWO
   \   000034   8E82         MOV     DPL,R6
   \   000036   8F83         MOV     DPH,R7
   \   000038   A3           INC     DPTR
   \   000039   AC82         MOV     R4,DPL
   \   00003B   AD83         MOV     R5,DPH
   \   00003D   90....       MOV     DPTR,#rs485_rsData
   \   000040   E0           MOVX    A,@DPTR
   \   000041   2401         ADD     A,#0x1
   \   000043   FA           MOV     R2,A
   \   000044   A3           INC     DPTR
   \   000045   E0           MOVX    A,@DPTR
   \   000046   3400         ADDC    A,#0x0
   \   000048   FB           MOV     R3,A
   \   000049   12....       LCALL   ??memcpy?relay
   \   00004C   7402         MOV     A,#0x2
   \   00004E   12....       LCALL   ?DEALLOC_XSTACK8
    177            CommonApp_GetDevDataSend(data,length);
   \   000051                ; Setup parameters for call to function CommonApp_GetDevDataSend
   \   000051   AC..         MOV     R4,?V0 + 0
   \   000053   AD..         MOV     R5,?V0 + 1
   \   000055   EE           MOV     A,R6
   \   000056   FA           MOV     R2,A
   \   000057   EF           MOV     A,R7
   \   000058   FB           MOV     R3,A
   \   000059   12....       LCALL   ??CommonApp_GetDevDataSend?relay
    178            if(crc_confirm(data,length))
   \   00005C                ; Setup parameters for call to function crc_confirm
   \   00005C   A9..         MOV     R1,?V0 + 0
   \   00005E   EE           MOV     A,R6
   \   00005F   FA           MOV     R2,A
   \   000060   EF           MOV     A,R7
   \   000061   FB           MOV     R3,A
   \   000062   12....       LCALL   ??crc_confirm?relay
   \   000065   E9           MOV     A,R1
   \   000066   6057         JZ      ??RS485_Analysis_0
    179            {
    180              //判断是否是该设备命令
    181            switch(rs485_rsData->cmdId[0])
   \   000068   90....       MOV     DPTR,#rs485_rsData
   \   00006B   E0           MOVX    A,@DPTR
   \   00006C   F8           MOV     R0,A
   \   00006D   A3           INC     DPTR
   \   00006E   E0           MOVX    A,@DPTR
   \   00006F   F583         MOV     DPH,A
   \   000071   8882         MOV     DPL,R0
   \   000073   A3           INC     DPTR
   \   000074   E0           MOVX    A,@DPTR
   \   000075   24FD         ADD     A,#-0x3
   \   000077   600D         JZ      ??RS485_Analysis_1
   \   000079   14           DEC     A
   \   00007A   601C         JZ      ??RS485_Analysis_2
   \   00007C   24FE         ADD     A,#-0x2
   \   00007E   602A         JZ      ??RS485_Analysis_3
   \   000080   24E1         ADD     A,#-0x1f
   \   000082   6038         JZ      ??RS485_Analysis_4
   \   000084   8039         SJMP    ??RS485_Analysis_0
    182              {
    183               case CT_CMD_CX:
    184                //查询状态 0x03
    185                 if(rs485_rsData->head[0]==Address_dev)
   \                     ??RS485_Analysis_1:
   \   000086   12....       LCALL   ?Subroutine2 & 0xFFFF
   \                     ??CrossCallReturnLabel_0:
   \   000089   7034         JNZ     ??RS485_Analysis_0
    186                 {
    187                 rs485_state(data,len);
   \   00008B                ; Setup parameters for call to function rs485_state
   \   00008B   AC..         MOV     R4,?V0 + 2
   \   00008D   7D00         MOV     R5,#0x0
   \   00008F   EE           MOV     A,R6
   \   000090   FA           MOV     R2,A
   \   000091   EF           MOV     A,R7
   \   000092   FB           MOV     R3,A
   \   000093   12....       LCALL   ??rs485_state?relay
   \   000096   8027         SJMP    ??RS485_Analysis_0
    188                 }
    189                break;
    190              case CT_CMD_KZ:
    191                //控制设备 0x04
    192                if(rs485_rsData->head[0]==Address_dev)
   \                     ??RS485_Analysis_2:
   \   000098   12....       LCALL   ?Subroutine2 & 0xFFFF
   \                     ??CrossCallReturnLabel_1:
   \   00009B   7022         JNZ     ??RS485_Analysis_0
    193                {
    194                 rs485_control(data,len);
   \   00009D                ; Setup parameters for call to function rs485_control
   \   00009D   AC..         MOV     R4,?V0 + 2
   \   00009F   7D00         MOV     R5,#0x0
   \   0000A1   EE           MOV     A,R6
   \   0000A2   FA           MOV     R2,A
   \   0000A3   EF           MOV     A,R7
   \   0000A4   FB           MOV     R3,A
   \   0000A5   12....       LCALL   ??rs485_control?relay
   \   0000A8   8015         SJMP    ??RS485_Analysis_0
    195                }
    196                break;
    197              case CT_CMD_XG:
    198                //修改地址 0x06
    199                if(rs485_rsData->head[0]==Address_dev)
   \                     ??RS485_Analysis_3:
   \   0000AA   12....       LCALL   ?Subroutine2 & 0xFFFF
   \                     ??CrossCallReturnLabel_2:
   \   0000AD   7010         JNZ     ??RS485_Analysis_0
    200                {
    201                 rs485_changeAddr(data,len);
   \   0000AF                ; Setup parameters for call to function rs485_changeAddr
   \   0000AF   AC..         MOV     R4,?V0 + 0
   \   0000B1   7D00         MOV     R5,#0x0
   \   0000B3   EE           MOV     A,R6
   \   0000B4   FA           MOV     R2,A
   \   0000B5   EF           MOV     A,R7
   \   0000B6   FB           MOV     R3,A
   \   0000B7   12....       LCALL   ??rs485_changeAddr?relay
   \   0000BA   8003         SJMP    ??RS485_Analysis_0
    202                }
    203                break;
    204              case CT_CMD_DI:
    205                //查询地址 0x25
    206                rs485_address();
   \                     ??RS485_Analysis_4:
   \   0000BC                ; Setup parameters for call to function rs485_address
   \   0000BC   12....       LCALL   ??rs485_address?relay
    207                break;
    208              default:
    209                break;
    210              } 
    211            }
    212          }
   \                     ??RS485_Analysis_0:
   \   0000BF   7F06         MOV     R7,#0x6
   \   0000C1   02....       LJMP    ?BANKED_LEAVE_XDATA

   \                                 In  segment BANKED_CODE, align 1, keep-with-next
   \                     ?Subroutine2:
   \   000000   90....       MOV     DPTR,#rs485_rsData + 1
   \   000003   E0           MOVX    A,@DPTR
   \   000004   F583         MOV     DPH,A
   \   000006   8882         MOV     DPL,R0
   \   000008   E0           MOVX    A,@DPTR
   \   000009   F8           MOV     R0,A
   \   00000A   90....       MOV     DPTR,#Address_dev
   \   00000D   E0           MOVX    A,@DPTR
   \   00000E   68           XRL     A,R0
   \   00000F   22           RET
    213          #endif
    214          
    215          void Data_Analysis(uint8 *data, uint16 length)
                      ^
Warning[Pe177]: function "Data_Analysis" was declared but never referenced
    216          {
    217            DE_t *mdeFrame;
    218          
    219            uint8 buf[FRAME_DATA_SIZE] = {0};
    220            uint8 len = 0;
    221            
    222            //uint8 rslength=length;
    223            //sprintf(buf, "data:%s, len:%d\n", data, length);
    224            //CommonApp_GetDevDataSend(&rslength, 1);
    225            
    226            
    227            mdeFrame = (DE_t *)SSAFrame_Analysis(HEAD_DE, data, length);
    228          
    229            //处理控制命令
    230            if(mdeFrame)
    231            {
    232          //#ifdef __DEBUG__
    233              //HalUARTWrite(SERIAL_COM_PORT, data, length);
    234          //#endif
    235          
    236              if(!memcmp(mdeFrame->cmd, FR_CMD_BROCAST_REFRESH, 4)
    237                 || !memcmp(mdeFrame->cmd, FR_CMD_SINGLE_REFRESH, 4))
    238              {
    239                UO_t mFrame;
    240          			
    241                memcpy(mFrame.head, FR_HEAD_UO, 3);
    242          #ifdef RTR_NWK
    243                mFrame.type = FR_DEV_ROUTER;
    244          #else
    245                mFrame.type = FR_DEV_ENDDEV;
    246          #endif
    247                memcpy(mFrame.ed_type, FR_APP_DEV, 2);
    248                memcpy(mFrame.short_addr, SHORT_ADDR_G, 4);
    249                memcpy(mFrame.ext_addr, EXT_ADDR_G, 16);
    250                mFrame.data = buf;
    251                CommonDevice_GetData(mFrame.data, &mFrame.data_len);
    252                memcpy(mFrame.tail, f_tail, 4);
    253          
    254                if(!SSAFrame_Package(HEAD_UO, &mFrame, &fBuf, &fLen))
    255                {
    256                  CommonApp_SendTheMessage(COORDINATOR_ADDR, fBuf, fLen);
    257                }
    258              }
    259              else if(!memcmp(mdeFrame->cmd, FR_CMD_SINGLE_EXCUTE, 4))
    260              {
    261                DataCmd_Ctrl(mdeFrame->data, mdeFrame->data_len);
    262          
    263                if(!CommonDevice_GetData(buf, &len))
    264                  Update_Refresh(buf, len);
    265              }
    266              else if(!memcmp(mdeFrame->cmd, FR_CMD_PEROID_EXCUTE, 4))
    267              {
    268                DataCmd_Ctrl(mdeFrame->data, mdeFrame->data_len);
    269          
    270          	  if(!CommonDevice_GetData(buf, &len))
    271                  Update_Refresh(buf, len);
    272          	  
    273                update_user_event(CommonApp_TaskID, CMD_PEROID_EVT, CommonApp_CmdPeroidCB, 
    274          	  	CMD_PEROID_TIMEOUT, TIMER_LOOP_EXECUTION|TIMER_EVENT_RESIDENTS, NULL);
    275              }
    276              else if(!memcmp(mdeFrame->cmd, FR_CMD_PEROID_STOP, 4))
    277              {
    278                update_user_event(CommonApp_TaskID, CMD_PEROID_EVT, 
    279          	  	NULL, TIMER_NO_LIMIT, TIMER_CLEAR_EXECUTION, NULL);
    280          			
    281                Update_Refresh(mdeFrame->data, mdeFrame->data_len);
    282              }
    283          #ifdef RTR_NWK
    284              else if(!memcmp(mdeFrame->cmd, FR_CMD_JOIN_CTRL, 4))
    285              {
    286                if(!memcmp(mdeFrame->short_addr, SHORT_ADDR_G, 4))
    287                {
    288                  uint8 cmdData, ret;
    289                  uint8 retData[2] = {0};
    290          			
    291                  cmdData = atox(mdeFrame->data, mdeFrame->data_len);
    292          
    293                  if(!cmdData)
    294                    ret = !CommonApp_PermitJoiningRequest(PERMIT_JOIN_FORBID);
    295                  else if(cmdData == 1)
    296                    ret = !CommonApp_PermitJoiningRequest(PERMIT_JOIN_TIMEOUT);
    297          
    298                  incode_2_to_16(retData, &ret, 1);
    299                  PermitJoin_Refresh(retData, 2);
    300                }
    301              }
    302          #endif
    303            }
    304          }
    305          
    306          
    307          /*********************************************************************
    308           * @fn      CommonApp_ProcessZDOStates
    309           *
    310           * @brief   Process when network change
    311           *
    312           * @param   network status
    313           *
    314           * @return  none
    315           */

   \                                 In  segment BANKED_CODE, align 1, keep-with-next
    316          void CommonApp_ProcessZDOStates(devStates_t status)
   \                     CommonApp_ProcessZDOStates:
    317          {
   \   000000   74F6         MOV     A,#-0xa
   \   000002   12....       LCALL   ?BANKED_ENTER_XDATA
   \   000005                ; Saved register size: 10
   \   000005                ; Auto size: 0
   \   000005   E9           MOV     A,R1
   \   000006   FE           MOV     R6,A
    318          #ifndef RS485_DEV
    319            UO_t mFrame;
    320            uint8 buf[FRAME_DATA_SIZE] = {0};
    321            
    322            if( status == DEV_ROUTER || status == DEV_END_DEVICE)
    323            {
    324              nwkAddr = NLME_GetShortAddr();
    325              incode_2_to_16(SHORT_ADDR_G, (uint8 *)&nwkAddr, 2);
    326              memcpy(macAddr, NLME_GetExtAddr(), sizeof(ZLongAddr_t));
    327              incode_2_to_16(EXT_ADDR_G, macAddr, 8);
    328          
    329              memcpy(mFrame.head, FR_HEAD_UO, 3);
    330          #ifdef RTR_NWK
    331              mFrame.type = FR_DEV_ROUTER;
    332          #else
    333              mFrame.type = FR_DEV_ENDDEV;
    334          #endif
    335              memcpy(mFrame.ed_type, FR_APP_DEV, 2);
    336              memcpy(mFrame.short_addr, SHORT_ADDR_G, 4);
    337              memcpy(mFrame.ext_addr, EXT_ADDR_G, 16);
    338              mFrame.data = buf;
    339              CommonDevice_GetData(mFrame.data, &mFrame.data_len);
    340              memcpy(mFrame.tail, f_tail, 4);
    341          
    342              if(!SSAFrame_Package(HEAD_UO, &mFrame, &fBuf, &fLen))
    343              {
    344                CommonApp_SendTheMessage(0x0000, fBuf, fLen);
    345              }
    346          
    347          	EndNodeApp_HeartBeatEvent();
    348          	HalStatesInit(status);
    349            }
    350          #else
    351            if( status == DEV_ROUTER || status == DEV_END_DEVICE)
   \   000007   7407         MOV     A,#0x7
   \   000009   6E           XRL     A,R6
   \   00000A   6008         JZ      ??CommonApp_ProcessZDOStates_0
   \   00000C   7406         MOV     A,#0x6
   \   00000E   6E           XRL     A,R6
   \   00000F   6003         JZ      $+5
   \   000011   02....       LJMP    ??CommonApp_ProcessZDOStates_1 & 0xFFFF
    352            {
    353            //读取NV地址值到存储空间
    354              osal_nv_item_init(ZCD_DEV_ADDRESS, 1, NULL);
   \                     ??CommonApp_ProcessZDOStates_0:
   \   000014                ; Setup parameters for call to function osal_nv_item_init
   \   000014   E4           CLR     A
   \   000015   F5..         MOV     ?V0 + 0,A
   \   000017   F5..         MOV     ?V0 + 1,A
   \   000019   78..         MOV     R0,#?V0 + 0
   \   00001B   12....       LCALL   ?PUSH_XSTACK_I_TWO
   \   00001E   7C01         MOV     R4,#0x1
   \   000020   7D00         MOV     R5,#0x0
   \   000022   7A02         MOV     R2,#0x2
   \   000024   7B02         MOV     R3,#0x2
   \   000026   12....       LCALL   ??osal_nv_item_init?relay
   \   000029   7402         MOV     A,#0x2
   \   00002B   12....       LCALL   ?DEALLOC_XSTACK8
    355              osal_nv_read(ZCD_DEV_ADDRESS, 0, 1, &Address_dev);
   \   00002E                ; Setup parameters for call to function osal_nv_read
   \   00002E   75....       MOV     ?V0 + 0,#Address_dev & 0xff
   \   000031   75....       MOV     ?V0 + 1,#(Address_dev >> 8) & 0xff
   \   000034   78..         MOV     R0,#?V0 + 0
   \   000036   12....       LCALL   ?PUSH_XSTACK_I_TWO
   \   000039   75..01       MOV     ?V0 + 0,#0x1
   \   00003C   75..00       MOV     ?V0 + 1,#0x0
   \   00003F   78..         MOV     R0,#?V0 + 0
   \   000041   12....       LCALL   ?PUSH_XSTACK_I_TWO
   \   000044   7C00         MOV     R4,#0x0
   \   000046   7D00         MOV     R5,#0x0
   \   000048   7A02         MOV     R2,#0x2
   \   00004A   7B02         MOV     R3,#0x2
   \   00004C   12....       LCALL   ??osal_nv_read?relay
   \   00004F   7404         MOV     A,#0x4
   \   000051   12....       LCALL   ?DEALLOC_XSTACK8
    356              nwkAddr = NLME_GetShortAddr();
   \   000054                ; Setup parameters for call to function NLME_GetShortAddr
   \   000054   12....       LCALL   ??NLME_GetShortAddr?relay
   \   000057   90....       MOV     DPTR,#nwkAddr
   \   00005A   EA           MOV     A,R2
   \   00005B   F0           MOVX    @DPTR,A
   \   00005C   A3           INC     DPTR
   \   00005D   EB           MOV     A,R3
   \   00005E   F0           MOVX    @DPTR,A
    357              value_addr_L=nwkAddr>>8;
   \   00005F   90....       MOV     DPTR,#value_addr_L
   \   000062   F0           MOVX    @DPTR,A
    358              value_addr_H=nwkAddr&0x00ff;
   \   000063   90....       MOV     DPTR,#nwkAddr
   \   000066   E0           MOVX    A,@DPTR
   \   000067   90....       MOV     DPTR,#value_addr_H
   \   00006A   F0           MOVX    @DPTR,A
    359                
    360              //正常字节序，高位在前，低位在后.上电发送设备地址
    361              //设置心跳事件
    362              EndNodeApp_HeartBeatEvent();
   \   00006B                ; Setup parameters for call to function RS485_HeartBeatCB
   \   00006B   E4           CLR     A
   \   00006C   F5..         MOV     ?V0 + 0,A
   \   00006E   78..         MOV     R0,#?V0 + 0
   \   000070   12....       LCALL   ?PUSH_XSTACK_I_TWO
   \   000073   7C00         MOV     R4,#0x0
   \   000075   7D00         MOV     R5,#0x0
   \   000077   7A00         MOV     R2,#0x0
   \   000079   7B00         MOV     R3,#0x0
   \   00007B   12....       LCALL   ??RS485_HeartBeatCB?relay
   \   00007E   7402         MOV     A,#0x2
   \   000080   12....       LCALL   ?DEALLOC_XSTACK8
   \   000083                ; Setup parameters for call to function set_user_event
   \   000083   78..         MOV     R0,#?V0 + 0
   \   000085   12....       LCALL   ?PUSH_XSTACK_I_TWO
   \   000088   75..FF       MOV     ?V0 + 0,#-0x1
   \   00008B   78..         MOV     R0,#?V0 + 0
   \   00008D   12....       LCALL   ?PUSH_XSTACK_I_ONE
   \   000090   75..30       MOV     ?V0 + 0,#0x30
   \   000093   75..75       MOV     ?V0 + 1,#0x75
   \   000096   78..         MOV     R0,#?V0 + 0
   \   000098   12....       LCALL   ?PUSH_XSTACK_I_TWO
   \   00009B   7C..         MOV     R4,#??RS485_HeartBeatCB?relay & 0xff
   \   00009D   7D..         MOV     R5,#(??RS485_HeartBeatCB?relay >> 8) & 0xff
   \   00009F   7A01         MOV     R2,#0x1
   \   0000A1   7B00         MOV     R3,#0x0
   \   0000A3   90....       MOV     DPTR,#CommonApp_TaskID
   \   0000A6   E0           MOVX    A,@DPTR
   \   0000A7   F9           MOV     R1,A
   \   0000A8   12....       LCALL   ??set_user_event?relay
   \   0000AB   7405         MOV     A,#0x5
   \   0000AD   12....       LCALL   ?DEALLOC_XSTACK8
    363              HalStatesInit(status);
   \   0000B0                ; Setup parameters for call to function HalStatesInit
   \   0000B0   EE           MOV     A,R6
   \   0000B1   F9           MOV     R1,A
   \   0000B2   12....       LCALL   ??HalStatesInit?relay
    364            }
    365          #endif
    366          }
   \                     ??CommonApp_ProcessZDOStates_1:
   \   0000B5                REQUIRE ?Subroutine1
   \   0000B5                ; // Fall through to label ?Subroutine1

   \                                 In  segment BANKED_CODE, align 1, keep-with-next
   \                     ?Subroutine1:
   \   000000   7F02         MOV     R7,#0x2
   \   000002   02....       LJMP    ?BANKED_LEAVE_XDATA
    367          
    368          #ifndef HAL_KEY_LONG_SHORT_DISTINGUISH

   \                                 In  segment BANKED_CODE, align 1, keep-with-next
    369          void CommonApp_HandleCombineKeys(uint16 keys, uint8 keyCounts)
   \                     CommonApp_HandleCombineKeys:
    370          {
   \   000000   74F6         MOV     A,#-0xa
   \   000002   12....       LCALL   ?BANKED_ENTER_XDATA
   \   000005                ; Saved register size: 10
   \   000005                ; Auto size: 1
   \   000005   74FF         MOV     A,#-0x1
   \   000007   12....       LCALL   ?ALLOC_XSTACK8
   \   00000A   E9           MOV     A,R1
   \   00000B   FE           MOV     R6,A
    371            if(keys & HAL_KEY_SW_6)
   \   00000C   EA           MOV     A,R2
   \   00000D   5420         ANL     A,#0x20
   \   00000F   7003         JNZ     $+5
   \   000011   02....       LJMP    ??CommonApp_HandleCombineKeys_0 & 0xFFFF
    372            {
    373            	switch( keyCounts)
   \   000014   EE           MOV     A,R6
   \   000015   6007         JZ      ??CommonApp_HandleCombineKeys_1
   \   000017   24FD         ADD     A,#-0x3
   \   000019   6074         JZ      ??CommonApp_HandleCombineKeys_2
   \   00001B   02....       LJMP    ??CommonApp_HandleCombineKeys_0 & 0xFFFF
    374            	{
    375            	case 0:	//长按事件
    376          #if defined(HOLD_INIT_AUTHENTICATION)
    377                if(devState != DEV_HOLD)
   \                     ??CommonApp_HandleCombineKeys_1:
   \   00001E   90....       MOV     DPTR,#devState
   \   000021   E0           MOVX    A,@DPTR
   \   000022   7003         JNZ     $+5
   \   000024   02....       LJMP    ??CommonApp_HandleCombineKeys_0 & 0xFFFF
    378                {
    379                	HalLedBlink ( HAL_LED_4, 0, 50, 100 );
   \   000027                ; Setup parameters for call to function HalLedBlink
   \   000027   7C64         MOV     R4,#0x64
   \   000029   7D00         MOV     R5,#0x0
   \   00002B   7B32         MOV     R3,#0x32
   \   00002D   7A00         MOV     R2,#0x0
   \   00002F   7908         MOV     R1,#0x8
   \   000031   12....       LCALL   ??HalLedBlink?relay
    380                	devStates_t tStates;
    381          
    382          #if (DEVICE_TYPE_ID==14) || (DEVICE_TYPE_ID==0xF0)
    383          		SetThresHold(AIRCONTROL_PM25_THRESMODE_UP, AIRCONTROL_PM25_DEFAULT_TRESHOLD);
    384          #endif
    385          		
    386                	if (ZSUCCESS == osal_nv_item_init( 
    387                                                  ZCD_NV_NWK_HOLD_STARTUP, sizeof(tStates),  &tStates))
   \   000034                ; Setup parameters for call to function osal_nv_item_init
   \   000034   85..82       MOV     DPL,?XSP + 0
   \   000037   85..83       MOV     DPH,?XSP + 1
   \   00003A   8582..       MOV     ?V0 + 0,DPL
   \   00003D   8583..       MOV     ?V0 + 1,DPH
   \   000040   78..         MOV     R0,#?V0 + 0
   \   000042   12....       LCALL   ?PUSH_XSTACK_I_TWO
   \   000045   7C01         MOV     R4,#0x1
   \   000047   7D00         MOV     R5,#0x0
   \   000049   7A11         MOV     R2,#0x11
   \   00004B   7B04         MOV     R3,#0x4
   \   00004D   12....       LCALL   ??osal_nv_item_init?relay
   \   000050   7402         MOV     A,#0x2
   \   000052   12....       LCALL   ?DEALLOC_XSTACK8
   \   000055   E9           MOV     A,R1
   \   000056   7028         JNZ     ??CommonApp_HandleCombineKeys_3
    388                	{
    389                    tStates = DEV_HOLD;
   \   000058   85..82       MOV     DPL,?XSP + 0
   \   00005B   85..83       MOV     DPH,?XSP + 1
   \   00005E   E4           CLR     A
   \   00005F   F0           MOVX    @DPTR,A
    390                    osal_nv_write(ZCD_NV_NWK_HOLD_STARTUP, 0, sizeof(tStates),  &tStates);
   \   000060                ; Setup parameters for call to function osal_nv_write
   \   000060   78..         MOV     R0,#?V0 + 0
   \   000062   12....       LCALL   ?PUSH_XSTACK_I_TWO
   \   000065   75..01       MOV     ?V0 + 0,#0x1
   \   000068   75..00       MOV     ?V0 + 1,#0x0
   \   00006B   78..         MOV     R0,#?V0 + 0
   \   00006D   12....       LCALL   ?PUSH_XSTACK_I_TWO
   \   000070   7C00         MOV     R4,#0x0
   \   000072   7D00         MOV     R5,#0x0
   \   000074   7A11         MOV     R2,#0x11
   \   000076   7B04         MOV     R3,#0x4
   \   000078   12....       LCALL   ??osal_nv_write?relay
   \   00007B   7404         MOV     A,#0x4
   \   00007D   12....       LCALL   ?DEALLOC_XSTACK8
    391                	}
    392          
    393                	zgWriteStartupOptions(ZG_STARTUP_SET, ZCD_STARTOPT_DEFAULT_NETWORK_STATE);
   \                     ??CommonApp_HandleCombineKeys_3:
   \   000080                ; Setup parameters for call to function zgWriteStartupOptions
   \   000080   7A02         MOV     R2,#0x2
   \   000082   79FF         MOV     R1,#-0x1
   \   000084   12....       LCALL   ??zgWriteStartupOptions?relay
    394                	WatchDogEnable( WDTIMX );
   \   000087   75C9A8       MOV     0xc9,#-0x58
   \   00008A   75C958       MOV     0xc9,#0x58
   \   00008D   801E         SJMP    ??CommonApp_HandleCombineKeys_0
    395                }
    396          #endif
    397                break;
    398          	
    399              case 3:
    400                //转发器允许/禁止入网,入网认证
    401                if(devState == DEV_HOLD)
   \                     ??CommonApp_HandleCombineKeys_2:
   \   00008F   90....       MOV     DPTR,#devState
   \   000092   E0           MOVX    A,@DPTR
   \   000093   7009         JNZ     ??CommonApp_HandleCombineKeys_4
    402                {
    403                  ZDOInitDevice( 0 );
   \   000095                ; Setup parameters for call to function ZDOInitDevice
   \   000095   7A00         MOV     R2,#0x0
   \   000097   7B00         MOV     R3,#0x0
   \   000099   12....       LCALL   ??ZDOInitDevice?relay
   \   00009C   800F         SJMP    ??CommonApp_HandleCombineKeys_0
    404                }
    405                else
    406                {
    407                  if(isPermitJoining)
   \                     ??CommonApp_HandleCombineKeys_4:
   \   00009E   90....       MOV     DPTR,#isPermitJoining
   \   0000A1   E0           MOVX    A,@DPTR
   \   0000A2   6004         JZ      ??CommonApp_HandleCombineKeys_5
    408                  {
    409                    CommonApp_PermitJoiningRequest(PERMIT_JOIN_FORBID);
   \   0000A4                ; Setup parameters for call to function CommonApp_PermitJoiningRequest
   \   0000A4   7900         MOV     R1,#0x0
   \   0000A6   8002         SJMP    ??CommonApp_HandleCombineKeys_6
    410                  }
    411                  else
    412                  {
    413                    CommonApp_PermitJoiningRequest(PERMIT_JOIN_TIMEOUT);
   \                     ??CommonApp_HandleCombineKeys_5:
   \   0000A8                ; Setup parameters for call to function CommonApp_PermitJoiningRequest
   \   0000A8   791E         MOV     R1,#0x1e
   \                     ??CommonApp_HandleCombineKeys_6:
   \   0000AA   12....       LCALL   ??CommonApp_PermitJoiningRequest?relay
    414                  }
    415                }
    416                break;
    417          
    418              default: break;
    419              }
    420            }
    421          
    422          #ifdef KEY_PUSH_PORT_1_BUTTON
    423            DeviceCtrl_HandlePort1Keys(keys, keyCounts);
    424          #endif
    425          }
   \                     ??CommonApp_HandleCombineKeys_0:
   \   0000AD   7401         MOV     A,#0x1
   \   0000AF   12....       LCALL   ?DEALLOC_XSTACK8
   \   0000B2   02....       LJMP    ?Subroutine1 & 0xFFFF
   \   0000B5                REQUIRE WDCTL
    426          #else
    427          void CommonApp_HandleCombineKeys(uint16 keys, uint8 keyCounts)
    428          {
    429            uint8 *keysID = get_keys_id();
    430            uint8 *keysPush = get_keys_push();
    431          
    432            if (keysPush[0] == HAL_KEY_LONG_PUSH)
    433            {
    434          	if(keyCounts == 6 &&(osal_memcmp(keysID, "333333", keyCounts)
    435          		|| osal_memcmp(keysID, "444444", keyCounts)
    436          		|| osal_memcmp(keysID, "555555", keyCounts)))
    437              { 
    438          #if defined(HOLD_INIT_AUTHENTICATION)
    439                if(devState != DEV_HOLD)
    440                {
    441                	HalLedBlink ( HAL_LED_4, 0, 50, 100 );
    442                  devStates_t tStates;
    443                  if (ZSUCCESS == osal_nv_item_init( 
    444                            ZCD_NV_NWK_HOLD_STARTUP, sizeof(tStates),  &tStates))
    445                  {
    446                     tStates = DEV_HOLD;
    447                    osal_nv_write(
    448                          ZCD_NV_NWK_HOLD_STARTUP, 0, sizeof(tStates),  &tStates);
    449                  }
    450          
    451                  zgWriteStartupOptions(ZG_STARTUP_SET, ZCD_STARTOPT_DEFAULT_NETWORK_STATE);
    452                  WatchDogEnable( WDTIMX );
    453                }
    454          #endif
    455              }
    456          	else if((keysID[0]=='3' || keysID[0]=='4' || keysID[0]=='5')
    457          		&& keyCounts == 1)
    458              {
    459                //转发器允许/禁止入网,入网认证
    460                if(devState == DEV_HOLD)
    461                {
    462                  ZDOInitDevice( 0 );
    463                }
    464                else
    465                {
    466                  if(isPermitJoining)
    467                  {
    468                    CommonApp_PermitJoiningRequest(PERMIT_JOIN_FORBID);
    469                  }
    470                  else
    471                  {
    472                    CommonApp_PermitJoiningRequest(PERMIT_JOIN_TIMEOUT);
    473                  }
    474                }
    475              }
    476            }
    477            else if (keysPush[0] == HAL_KEY_SHORT_PUSH)
    478            {
    479          #ifdef KEY_PUSH_PORT_1_BUTTON
    480              DeviceCtrl_HandlePort1Keys(keys, keyCounts);
    481          #endif
    482            }
    483          }
    484          #endif
    485          
    486          void EndNodeApp_HeartBeatEvent(void)
    487          {
    488          #ifndef RS485_DEV
    489            CommonApp_HeartBeatCB(NULL, NULL, NULL);
    490          
    491            set_user_event(CommonApp_TaskID, HEARTBERAT_EVT, CommonApp_HeartBeatCB, 
    492            	HEARTBEAT_TIMEOUT, TIMER_LOOP_EXECUTION|TIMER_EVENT_RESIDENTS, NULL);
    493          #else
    494            RS485_HeartBeatCB(NULL, NULL, NULL);
    495          
    496            set_user_event(CommonApp_TaskID, HEARTBERAT_EVT, RS485_HeartBeatCB, 
    497            	HEARTBEAT_TIMEOUT, TIMER_LOOP_EXECUTION|TIMER_EVENT_RESIDENTS, NULL);
    498          #endif
    499          }
    500          

   \                                 In  segment BANKED_CODE, align 1, keep-with-next
    501          void ConnectorApp_TxHandler(uint8 txBuf[], uint8 txLen)
   \                     ConnectorApp_TxHandler:
    502          {
   \   000000                ; Saved register size: 0
   \   000000                ; Auto size: 0
    503            
    504          }
   \   000000   02....       LJMP    ?BRET

   \                                 In  segment BANK_RELAYS, align 1
   \                     ??CommonApp_InitConfirm?relay:
   \   000000   12....       LCALL   ?BDISPATCH
   \   000003   ......       DC24    CommonApp_InitConfirm

   \                                 In  segment BANK_RELAYS, align 1
   \                     ??CommonApp_MessageMSGCB?relay:
   \   000000   12....       LCALL   ?BDISPATCH
   \   000003   ......       DC24    CommonApp_MessageMSGCB

   \                                 In  segment BANK_RELAYS, align 1
   \                     ??RS485_Analysis?relay:
   \   000000   12....       LCALL   ?BDISPATCH
   \   000003   ......       DC24    RS485_Analysis

   \                                 In  segment BANK_RELAYS, align 1
   \                     ??CommonApp_ProcessZDOStates?relay:
   \   000000   12....       LCALL   ?BDISPATCH
   \   000003   ......       DC24    CommonApp_ProcessZDOStates

   \                                 In  segment BANK_RELAYS, align 1
   \                     ??CommonApp_HandleCombineKeys?relay:
   \   000000   12....       LCALL   ?BDISPATCH
   \   000003   ......       DC24    CommonApp_HandleCombineKeys

   \                                 In  segment BANK_RELAYS, align 1
   \                     ??ConnectorApp_TxHandler?relay:
   \   000000   12....       LCALL   ?BDISPATCH
   \   000003   ......       DC24    ConnectorApp_TxHandler

   Maximum stack usage in bytes:

     Function                       ISTACK PSTACK XSTACK
     --------                       ------ ------ ------
     CommonApp_HandleCombineKeys        0      0     15
       -> HalLedBlink                   0      0     22
       -> osal_nv_item_init             0      0     26
       -> osal_nv_write                 0      0     30
       -> zgWriteStartupOptions         0      0     22
       -> ZDOInitDevice                 0      0     22
       -> CommonApp_PermitJoiningRequest
                                        0      0     22
       -> CommonApp_PermitJoiningRequest
                                        0      0     22
     CommonApp_InitConfirm              2      0      0
       -> CommonApp_PermitJoiningRequest
                                        4      0      0
       -> ZDOInitDevice                 4      0      0
       -> SerialTx_Handler              4      0      0
     CommonApp_MessageMSGCB             2      0      0
       -> RS485_Analysis                4      0      0
     CommonApp_ProcessZDOStates         0      0     15
       -> osal_nv_item_init             0      0     24
       -> osal_nv_read                  0      0     28
       -> NLME_GetShortAddr             0      0     20
       -> RS485_HeartBeatCB             0      0     24
       -> set_user_event                0      0     30
       -> HalStatesInit                 0      0     20
     ConnectorApp_TxHandler             0      0      0
     RS485_Analysis                     0      0     16
       -> memcpy                        0      0     32
       -> memcpy                        0      0     32
       -> CommonApp_GetDevDataSend      0      0     28
       -> crc_confirm                   0      0     28
       -> rs485_state                   0      0     28
       -> rs485_control                 0      0     28
       -> rs485_changeAddr              0      0     28
       -> rs485_address                 0      0     28


   Segment part sizes:

     Function/Label                      Bytes
     --------------                      -----
     WDCTL                                  1
     rs485_rsData                           2
     value_addr_L                           1
     value_addr_H                           1
     CommonApp_InitConfirm                 27
     ?Subroutine0                           7
     CommonApp_MessageMSGCB                56
     RS485_Analysis                       196
     ?Subroutine2                          16
     CommonApp_ProcessZDOStates           181
     ?Subroutine1                           5
     CommonApp_HandleCombineKeys          181
     ConnectorApp_TxHandler                 3
     ??CommonApp_InitConfirm?relay          6
     ??CommonApp_MessageMSGCB?relay         6
     ??RS485_Analysis?relay                 6
     ??CommonApp_ProcessZDOStates?relay     6
     ??CommonApp_HandleCombineKeys?relay    6
     ??ConnectorApp_TxHandler?relay         6

 
 672 bytes in segment BANKED_CODE
  36 bytes in segment BANK_RELAYS
   1 byte  in segment SFR_AN
   4 bytes in segment XDATA_Z
 
 708 bytes of CODE  memory
   0 bytes of DATA  memory (+ 1 byte shared)
   4 bytes of XDATA memory

Errors: none
Warnings: 1
