///////////////////////////////////////////////////////////////////////////////
//                                                                            /
// IAR C/C++ Compiler V8.10.1.10194/W32 for 8051        01/Dec/2016  17:09:45 /
// Copyright 2004-2011 IAR Systems AB.                                        /
//                                                                            /
//    Core               =  plain                                             /
//    Code model         =  banked                                            /
//    Data model         =  large                                             /
//    Calling convention =  xdata reentrant                                   /
//    Constant location  =  data_rom                                          /
//    Dptr setup         =  1,16                                              /
//    Source file        =  E:\work\zigbee\ZStack-Smart-2.5.2b\Projects\zstac /
//                          k\Applications\SmartApp\Source\Device\EndnodeApp. /
//                          c                                                 /
//    Command line       =  -f E:\work\zigbee\ZStack-Smart-2.5.2b\Projects\zs /
//                          tack\Applications\SmartApp\CC2530DB\Devices\..\.. /
//                          \..\..\Tools\CC2530DB\f8wEndev.cfg (-DCPU32MHZ    /
//                          -DROOT=__near_func -DMAC_CFG_TX_DATA_MAX=3        /
//                          -DMAC_CFG_TX_MAX=6 -DMAC_CFG_RX_MAX=3             /
//                          -DSSA_ENDNODE) -f E:\work\zigbee\ZStack-Smart-2.5 /
//                          .2b\Projects\zstack\Applications\SmartApp\CC2530D /
//                          B\Devices\..\..\..\..\Tools\CC2530DB\f8wConfig.cf /
//                          g (-DZIGBEEPRO -DSECURE=1 -DZG_SECURE_DYNAMIC=1   /
//                          -DREFLECTOR -DDEFAULT_CHANLIST=0x00000800         /
//                          -DZDAPP_CONFIG_PAN_ID=0xFFFF                      /
//                          -DNWK_START_DELAY=100 -DEXTENDED_JOINING_RANDOM_M /
//                          ASK=0x007F -DBEACON_REQUEST_DELAY=100             /
//                          -DBEACON_REQ_DELAY_MASK=0x00FF                    /
//                          -DLINK_STATUS_JITTER_MASK=0x007F                  /
//                          -DROUTE_EXPIRY_TIME=30 -DAPSC_ACK_WAIT_DURATION_P /
//                          OLLED=3000 -DNWK_INDIRECT_MSG_TIMEOUT=7           /
//                          -DMAX_RREQ_ENTRIES=8 -DAPSC_MAX_FRAME_RETRIES=3   /
//                          -DNWK_MAX_DATA_RETRIES=2                          /
//                          -DMAX_POLL_FAILURE_RETRIES=2 -DMAX_BCAST=9        /
//                          -DAPS_MAX_GROUPS=16 -DMAX_RTG_ENTRIES=40          /
//                          -DNWK_MAX_BINDING_ENTRIES=4                       /
//                          -DMAX_BINDING_CLUSTER_IDS=4                       /
//                          "-DDEFAULT_KEY={0x01, 0x03, 0x05, 0x07, 0x09,     /
//                          0x0B, 0x0D, 0x0F, 0x00, 0x02, 0x04, 0x06, 0x08,   /
//                          0x0A, 0x0C, 0x0D}" -DMAC_MAX_FRAME_SIZE=116       /
//                          -DZDNWKMGR_MIN_TRANSMISSIONS=20 "-DCONST=const    /
//                          __code" -DGENERIC=__generic                       /
//                          -DRFD_RCVC_ALWAYS_ON=TRUE -DPOLL_RATE=1000        /
//                          -DQUEUED_POLL_RATE=100 -DRESPONSE_POLL_RATE=100)  /
//                          -DREJOIN_POLL_RATE=440 E:\work\zigbee\ZStack-Smar /
//                          t-2.5.2b\Projects\zstack\Applications\SmartApp\So /
//                          urce\Device\EndnodeApp.c -D SECURE=1 -D ZTOOL_P1  /
//                          -D DEVICE_TYPE_ID=0xFE -D                         /
//                          xSIGNAL_AMPLIFIER_SETTING -D xNWK_AUTO_POLL -D    /
//                          xHAL_UART_DMA=2 -D xHAL_UART_DMA_ALT1 -D          /
//                          xJIAJU_BUILDIN -D MT_TASK -D MT_SYS_FUNC -D       /
//                          MT_ZDO_FUNC -D NV_INIT -D NV_RESTORE -lC          /
//                          E:\work\zigbee\ZStack-Smart-2.5.2b\Projects\zstac /
//                          k\Applications\SmartApp\CC2530DB\bin\DemoBaseZD\L /
//                          ist\ -lA E:\work\zigbee\ZStack-Smart-2.5.2b\Proje /
//                          cts\zstack\Applications\SmartApp\CC2530DB\bin\Dem /
//                          oBaseZD\List\ --diag_suppress Pe001,Pa010 -o      /
//                          E:\work\zigbee\ZStack-Smart-2.5.2b\Projects\zstac /
//                          k\Applications\SmartApp\CC2530DB\bin\DemoBaseZD\O /
//                          bj\ -e --debug --core=plain --dptr=16,1           /
//                          --data_model=large --code_model=banked            /
//                          --calling_convention=xdata_reentrant              /
//                          --place_constants=data_rom --nr_virtual_regs 16   /
//                          -I E:\work\zigbee\ZStack-Smart-2.5.2b\Projects\zs /
//                          tack\Applications\SmartApp\CC2530DB\Devices\ -I   /
//                          E:\work\zigbee\ZStack-Smart-2.5.2b\Projects\zstac /
//                          k\Applications\SmartApp\CC2530DB\Devices\..\..\So /
//                          urce\Common\ -I E:\work\zigbee\ZStack-Smart-2.5.2 /
//                          b\Projects\zstack\Applications\SmartApp\CC2530DB\ /
//                          Devices\..\..\Source\Connector\ -I                /
//                          E:\work\zigbee\ZStack-Smart-2.5.2b\Projects\zstac /
//                          k\Applications\SmartApp\CC2530DB\Devices\..\..\So /
//                          urce\\EndNode\ -I E:\work\zigbee\ZStack-Smart-2.5 /
//                          .2b\Projects\zstack\Applications\SmartApp\CC2530D /
//                          B\Devices\..\..\Source\Board\ -I                  /
//                          E:\work\zigbee\ZStack-Smart-2.5.2b\Projects\zstac /
//                          k\Applications\SmartApp\CC2530DB\Devices\..\..\So /
//                          urce\Manage\ -I E:\work\zigbee\ZStack-Smart-2.5.2 /
//                          b\Projects\zstack\Applications\SmartApp\CC2530DB\ /
//                          Devices\..\..\Source\Manage\Callbacks\ -I         /
//                          E:\work\zigbee\ZStack-Smart-2.5.2b\Projects\zstac /
//                          k\Applications\SmartApp\CC2530DB\Devices\..\..\So /
//                          urce\Manage\debug\ -I E:\work\zigbee\ZStack-Smart /
//                          -2.5.2b\Projects\zstack\Applications\SmartApp\CC2 /
//                          530DB\Devices\..\..\Source\Manage\HeartBeat\ -I   /
//                          E:\work\zigbee\ZStack-Smart-2.5.2b\Projects\zstac /
//                          k\Applications\SmartApp\CC2530DB\Devices\..\..\So /
//                          urce\Manage\incode\ -I E:\work\zigbee\ZStack-Smar /
//                          t-2.5.2b\Projects\zstack\Applications\SmartApp\CC /
//                          2530DB\Devices\..\..\..\..\ZMain\TI2530DB\ -I     /
//                          E:\work\zigbee\ZStack-Smart-2.5.2b\Projects\zstac /
//                          k\Applications\SmartApp\CC2530DB\Devices\..\..\.. /
//                          \..\..\..\Components\hal\include\ -I              /
//                          E:\work\zigbee\ZStack-Smart-2.5.2b\Projects\zstac /
//                          k\Applications\SmartApp\CC2530DB\Devices\..\..\.. /
//                          \..\..\..\Components\hal\target\CC2530EB\ -I      /
//                          E:\work\zigbee\ZStack-Smart-2.5.2b\Projects\zstac /
//                          k\Applications\SmartApp\CC2530DB\Devices\..\..\.. /
//                          \..\..\..\Components\mac\include\ -I              /
//                          E:\work\zigbee\ZStack-Smart-2.5.2b\Projects\zstac /
//                          k\Applications\SmartApp\CC2530DB\Devices\..\..\.. /
//                          \..\..\..\Components\mac\high_level\ -I           /
//                          E:\work\zigbee\ZStack-Smart-2.5.2b\Projects\zstac /
//                          k\Applications\SmartApp\CC2530DB\Devices\..\..\.. /
//                          \..\..\..\Components\mac\low_level\srf04\ -I      /
//                          E:\work\zigbee\ZStack-Smart-2.5.2b\Projects\zstac /
//                          k\Applications\SmartApp\CC2530DB\Devices\..\..\.. /
//                          \..\..\..\Components\mac\low_level\srf04\single_c /
//                          hip\ -I E:\work\zigbee\ZStack-Smart-2.5.2b\Projec /
//                          ts\zstack\Applications\SmartApp\CC2530DB\Devices\ /
//                          ..\..\..\..\..\..\Components\mt\ -I               /
//                          E:\work\zigbee\ZStack-Smart-2.5.2b\Projects\zstac /
//                          k\Applications\SmartApp\CC2530DB\Devices\..\..\.. /
//                          \..\..\..\Components\osal\include\ -I             /
//                          E:\work\zigbee\ZStack-Smart-2.5.2b\Projects\zstac /
//                          k\Applications\SmartApp\CC2530DB\Devices\..\..\.. /
//                          \..\..\..\Components\services\saddr\ -I           /
//                          E:\work\zigbee\ZStack-Smart-2.5.2b\Projects\zstac /
//                          k\Applications\SmartApp\CC2530DB\Devices\..\..\.. /
//                          \..\..\..\Components\services\sdata\ -I           /
//                          E:\work\zigbee\ZStack-Smart-2.5.2b\Projects\zstac /
//                          k\Applications\SmartApp\CC2530DB\Devices\..\..\.. /
//                          \..\..\..\Components\stack\af\ -I                 /
//                          E:\work\zigbee\ZStack-Smart-2.5.2b\Projects\zstac /
//                          k\Applications\SmartApp\CC2530DB\Devices\..\..\.. /
//                          \..\..\..\Components\stack\nwk\ -I                /
//                          E:\work\zigbee\ZStack-Smart-2.5.2b\Projects\zstac /
//                          k\Applications\SmartApp\CC2530DB\Devices\..\..\.. /
//                          \..\..\..\Components\stack\sapi\ -I               /
//                          E:\work\zigbee\ZStack-Smart-2.5.2b\Projects\zstac /
//                          k\Applications\SmartApp\CC2530DB\Devices\..\..\.. /
//                          \..\..\..\Components\stack\sec\ -I                /
//                          E:\work\zigbee\ZStack-Smart-2.5.2b\Projects\zstac /
//                          k\Applications\SmartApp\CC2530DB\Devices\..\..\.. /
//                          \..\..\..\Components\stack\sys\ -I                /
//                          E:\work\zigbee\ZStack-Smart-2.5.2b\Projects\zstac /
//                          k\Applications\SmartApp\CC2530DB\Devices\..\..\.. /
//                          \..\..\..\Components\stack\zdo\ -I                /
//                          E:\work\zigbee\ZStack-Smart-2.5.2b\Projects\zstac /
//                          k\Applications\SmartApp\CC2530DB\Devices\..\..\.. /
//                          \..\..\..\Components\zmac\ -I                     /
//                          E:\work\zigbee\ZStack-Smart-2.5.2b\Projects\zstac /
//                          k\Applications\SmartApp\CC2530DB\Devices\..\..\.. /
//                          \..\..\..\Components\zmac\f8w\ -Oh                /
//                          --require_prototypes                              /
//    List file          =  E:\work\zigbee\ZStack-Smart-2.5.2b\Projects\zstac /
//                          k\Applications\SmartApp\CC2530DB\bin\DemoBaseZD\L /
//                          ist\EndnodeApp.s51                                /
//                                                                            /
//                                                                            /
///////////////////////////////////////////////////////////////////////////////

        NAME EndnodeApp

        RTMODEL "__SystemLibrary", "CLib"
        RTMODEL "__calling_convention", "xdata_reentrant"
        RTMODEL "__code_model", "banked"
        RTMODEL "__core", "plain"
        RTMODEL "__data_model", "large"
        RTMODEL "__dptr_size", "16"
        RTMODEL "__extended_stack", "disabled"
        RTMODEL "__location_for_constants", "data"
        RTMODEL "__number_of_dptrs", "1"
        RTMODEL "__rt_version", "1"

        RSEG DOVERLAY:DATA:NOROOT(0)
        RSEG IOVERLAY:IDATA:NOROOT(0)
        RSEG ISTACK:IDATA:NOROOT(0)
        RSEG PSTACK:XDATA:NOROOT(0)
        RSEG XSTACK:XDATA:NOROOT(0)

        EXTERN ?ALLOC_XSTACK8
        EXTERN ?BANKED_ENTER_XDATA
        EXTERN ?BANKED_LEAVE_XDATA
        EXTERN ?BDISPATCH
        EXTERN ?BRET
        EXTERN ?DEALLOC_XSTACK8
        EXTERN ?PUSH_XSTACK_I_ONE
        EXTERN ?PUSH_XSTACK_I_TWO
        EXTERN ?V0
        EXTERN ?XSP
        EXTERN __INIT_XDATA_Z

        PUBLIC ??CommonApp_HandleCombineKeys?relay
        FUNCTION ??CommonApp_HandleCombineKeys?relay,0203H
        PUBLIC ??CommonApp_InitConfirm?relay
        FUNCTION ??CommonApp_InitConfirm?relay,0203H
        PUBLIC ??CommonApp_MessageMSGCB?relay
        FUNCTION ??CommonApp_MessageMSGCB?relay,0203H
        PUBLIC ??CommonApp_ProcessZDOStates?relay
        FUNCTION ??CommonApp_ProcessZDOStates?relay,0203H
        PUBLIC ??ConnectorApp_TxHandler?relay
        FUNCTION ??ConnectorApp_TxHandler?relay,0203H
        FUNCTION ??RS485_Analysis?relay,0203H
        PUBLIC CommonApp_HandleCombineKeys
        FUNCTION CommonApp_HandleCombineKeys,021203H
        ARGFRAME XSTACK, 0, STACK
        LOCFRAME XSTACK, 15, STACK
        PUBLIC CommonApp_InitConfirm
        FUNCTION CommonApp_InitConfirm,021203H
        ARGFRAME XSTACK, 0, STACK
        LOCFRAME ISTACK, 2, STACK
        PUBLIC CommonApp_MessageMSGCB
        FUNCTION CommonApp_MessageMSGCB,021203H
        ARGFRAME XSTACK, 0, STACK
        LOCFRAME ISTACK, 2, STACK
        PUBLIC CommonApp_ProcessZDOStates
        FUNCTION CommonApp_ProcessZDOStates,021203H
        ARGFRAME XSTACK, 0, STACK
        LOCFRAME XSTACK, 15, STACK
        PUBLIC ConnectorApp_TxHandler
        FUNCTION ConnectorApp_TxHandler,0603H
        ARGFRAME XSTACK, 0, STACK
        FUNCTION RS485_Analysis,021203H
        ARGFRAME XSTACK, 0, STACK
        ARGFRAME IOVERLAY, 0, STATIC
        ARGFRAME DOVERLAY, 0, STATIC
        LOCFRAME XSTACK, 16, STACK
        PUBWEAK WDCTL
        PUBLIC rs485_rsData
        PUBLIC value_addr_H
        PUBLIC value_addr_L
        
        CFI Names cfiNames0
        CFI StackFrame CFA_SP SP IDATA
        CFI StackFrame CFA_PSP16 PSP16 XDATA
        CFI StackFrame CFA_XSP16 XSP16 XDATA
        CFI StaticOverlayFrame CFA_IOVERLAY IOVERLAY
        CFI StaticOverlayFrame CFA_DOVERLAY DOVERLAY
        CFI Resource `PSW.CY`:1, `B.BR0`:1, `B.BR1`:1, `B.BR2`:1, `B.BR3`:1
        CFI Resource `B.BR4`:1, `B.BR5`:1, `B.BR6`:1, `B.BR7`:1, `VB.BR8`:1
        CFI Resource `VB.BR9`:1, `VB.BR10`:1, `VB.BR11`:1, `VB.BR12`:1
        CFI Resource `VB.BR13`:1, `VB.BR14`:1, `VB.BR15`:1, VB:8, B:8, A:8
        CFI Resource PSW:8, DPL0:8, DPH0:8, R0:8, R1:8, R2:8, R3:8, R4:8, R5:8
        CFI Resource R6:8, R7:8, V0:8, V1:8, V2:8, V3:8, V4:8, V5:8, V6:8, V7:8
        CFI Resource V8:8, V9:8, V10:8, V11:8, V12:8, V13:8, V14:8, V15:8, SP:8
        CFI Resource PSPH:8, PSPL:8, PSP16:16, XSPH:8, XSPL:8, XSP16:16
        CFI VirtualResource ?RET:24
        CFI Resource ?BRET_EXT:8
        CFI VirtualResource ?RET_HIGH:8, ?RET_LOW:8
        CFI ResourceParts PSP16 PSPH, PSPL
        CFI ResourceParts XSP16 XSPH, XSPL
        CFI ResourceParts ?RET ?BRET_EXT, ?RET_HIGH, ?RET_LOW
        CFI EndNames cfiNames0
        
        CFI Common cfiCommon0 Using cfiNames0
        CFI CodeAlign 1
        CFI DataAlign -1
        CFI ReturnAddress ?RET CODE
        CFI CFA_DOVERLAY Used
        CFI CFA_IOVERLAY Used
        CFI CFA_SP SP+-3
        CFI CFA_PSP16 PSP16+0
        CFI CFA_XSP16 XSP16+0
        CFI `PSW.CY` SameValue
        CFI `B.BR0` SameValue
        CFI `B.BR1` SameValue
        CFI `B.BR2` SameValue
        CFI `B.BR3` SameValue
        CFI `B.BR4` SameValue
        CFI `B.BR5` SameValue
        CFI `B.BR6` SameValue
        CFI `B.BR7` SameValue
        CFI `VB.BR8` SameValue
        CFI `VB.BR9` SameValue
        CFI `VB.BR10` SameValue
        CFI `VB.BR11` SameValue
        CFI `VB.BR12` SameValue
        CFI `VB.BR13` SameValue
        CFI `VB.BR14` SameValue
        CFI `VB.BR15` SameValue
        CFI VB SameValue
        CFI B Undefined
        CFI A Undefined
        CFI PSW SameValue
        CFI DPL0 SameValue
        CFI DPH0 SameValue
        CFI R0 Undefined
        CFI R1 Undefined
        CFI R2 Undefined
        CFI R3 Undefined
        CFI R4 Undefined
        CFI R5 Undefined
        CFI R6 SameValue
        CFI R7 SameValue
        CFI V0 SameValue
        CFI V1 SameValue
        CFI V2 SameValue
        CFI V3 SameValue
        CFI V4 SameValue
        CFI V5 SameValue
        CFI V6 SameValue
        CFI V7 SameValue
        CFI V8 SameValue
        CFI V9 SameValue
        CFI V10 SameValue
        CFI V11 SameValue
        CFI V12 SameValue
        CFI V13 SameValue
        CFI V14 SameValue
        CFI V15 SameValue
        CFI PSPH Undefined
        CFI PSPL Undefined
        CFI XSPH Undefined
        CFI XSPL Undefined
        CFI ?RET Concat
        CFI ?BRET_EXT Frame(CFA_SP, 3)
        CFI ?RET_HIGH Frame(CFA_SP, 2)
        CFI ?RET_LOW Frame(CFA_SP, 1)
        CFI EndCommon cfiCommon0
        
        
        CFI Common cfiCommon1 Using cfiNames0
        CFI CodeAlign 1
        CFI DataAlign -1
        CFI ReturnAddress ?RET CODE
        CFI CFA_DOVERLAY Used
        CFI CFA_IOVERLAY Used
        CFI CFA_SP SP+-2
        CFI CFA_PSP16 PSP16+0
        CFI CFA_XSP16 XSP16+0
        CFI `PSW.CY` SameValue
        CFI `B.BR0` SameValue
        CFI `B.BR1` SameValue
        CFI `B.BR2` SameValue
        CFI `B.BR3` SameValue
        CFI `B.BR4` SameValue
        CFI `B.BR5` SameValue
        CFI `B.BR6` SameValue
        CFI `B.BR7` SameValue
        CFI `VB.BR8` SameValue
        CFI `VB.BR9` SameValue
        CFI `VB.BR10` SameValue
        CFI `VB.BR11` SameValue
        CFI `VB.BR12` SameValue
        CFI `VB.BR13` SameValue
        CFI `VB.BR14` SameValue
        CFI `VB.BR15` SameValue
        CFI VB SameValue
        CFI B SameValue
        CFI A SameValue
        CFI PSW SameValue
        CFI DPL0 SameValue
        CFI DPH0 SameValue
        CFI R0 SameValue
        CFI R1 SameValue
        CFI R2 SameValue
        CFI R3 SameValue
        CFI R4 SameValue
        CFI R5 SameValue
        CFI R6 SameValue
        CFI R7 SameValue
        CFI V0 SameValue
        CFI V1 SameValue
        CFI V2 SameValue
        CFI V3 SameValue
        CFI V4 SameValue
        CFI V5 SameValue
        CFI V6 SameValue
        CFI V7 SameValue
        CFI V8 SameValue
        CFI V9 SameValue
        CFI V10 SameValue
        CFI V11 SameValue
        CFI V12 SameValue
        CFI V13 SameValue
        CFI V14 SameValue
        CFI V15 SameValue
        CFI PSPH Undefined
        CFI PSPL Undefined
        CFI XSPH Undefined
        CFI XSPL Undefined
        CFI ?RET Concat
        CFI ?BRET_EXT SameValue
        CFI ?RET_HIGH Frame(CFA_SP, 2)
        CFI ?RET_LOW Frame(CFA_SP, 1)
        CFI EndCommon cfiCommon1
        
CommonApp_PermitJoiningRequest SYMBOL "CommonApp_PermitJoiningRequest"
ZDOInitDevice       SYMBOL "ZDOInitDevice"
SerialTx_Handler    SYMBOL "SerialTx_Handler"
memcpy              SYMBOL "memcpy"
CommonApp_GetDevDataSend SYMBOL "CommonApp_GetDevDataSend"
crc_confirm         SYMBOL "crc_confirm"
rs485_state         SYMBOL "rs485_state"
rs485_control       SYMBOL "rs485_control"
rs485_changeAddr    SYMBOL "rs485_changeAddr"
rs485_address       SYMBOL "rs485_address"
osal_nv_item_init   SYMBOL "osal_nv_item_init"
osal_nv_read        SYMBOL "osal_nv_read"
NLME_GetShortAddr   SYMBOL "NLME_GetShortAddr"
RS485_HeartBeatCB   SYMBOL "RS485_HeartBeatCB"
set_user_event      SYMBOL "set_user_event"
HalStatesInit       SYMBOL "HalStatesInit"
HalLedBlink         SYMBOL "HalLedBlink"
osal_nv_write       SYMBOL "osal_nv_write"
zgWriteStartupOptions SYMBOL "zgWriteStartupOptions"
??CommonApp_GetDevDataSend?relay SYMBOL "?relay", CommonApp_GetDevDataSend
??CommonApp_PermitJoiningRequest?relay SYMBOL "?relay", CommonApp_PermitJoiningRequest
??HalLedBlink?relay SYMBOL "?relay", HalLedBlink
??HalStatesInit?relay SYMBOL "?relay", HalStatesInit
??NLME_GetShortAddr?relay SYMBOL "?relay", NLME_GetShortAddr
??RS485_HeartBeatCB?relay SYMBOL "?relay", RS485_HeartBeatCB
??SerialTx_Handler?relay SYMBOL "?relay", SerialTx_Handler
??ZDOInitDevice?relay SYMBOL "?relay", ZDOInitDevice
??crc_confirm?relay SYMBOL "?relay", crc_confirm
??memcpy?relay      SYMBOL "?relay", memcpy
??osal_nv_item_init?relay SYMBOL "?relay", osal_nv_item_init
??osal_nv_read?relay SYMBOL "?relay", osal_nv_read
??osal_nv_write?relay SYMBOL "?relay", osal_nv_write
??rs485_address?relay SYMBOL "?relay", rs485_address
??rs485_changeAddr?relay SYMBOL "?relay", rs485_changeAddr
??rs485_control?relay SYMBOL "?relay", rs485_control
??rs485_state?relay SYMBOL "?relay", rs485_state
??set_user_event?relay SYMBOL "?relay", set_user_event
??zgWriteStartupOptions?relay SYMBOL "?relay", zgWriteStartupOptions
CommonApp_HandleCombineKeys SYMBOL "CommonApp_HandleCombineKeys"
??CommonApp_HandleCombineKeys?relay SYMBOL "?relay", CommonApp_HandleCombineKeys
CommonApp_InitConfirm SYMBOL "CommonApp_InitConfirm"
??CommonApp_InitConfirm?relay SYMBOL "?relay", CommonApp_InitConfirm
CommonApp_MessageMSGCB SYMBOL "CommonApp_MessageMSGCB"
??CommonApp_MessageMSGCB?relay SYMBOL "?relay", CommonApp_MessageMSGCB
CommonApp_ProcessZDOStates SYMBOL "CommonApp_ProcessZDOStates"
??CommonApp_ProcessZDOStates?relay SYMBOL "?relay", CommonApp_ProcessZDOStates
ConnectorApp_TxHandler SYMBOL "ConnectorApp_TxHandler"
??ConnectorApp_TxHandler?relay SYMBOL "?relay", ConnectorApp_TxHandler

        EXTERN CommonApp_PermitJoiningRequest
        FUNCTION CommonApp_PermitJoiningRequest,0202H
        ARGFRAME ISTACK, 2, STACK
        ARGFRAME PSTACK, 0, STACK
        ARGFRAME XSTACK, 11, STACK
        ARGFRAME IOVERLAY, 0, STATIC
        ARGFRAME DOVERLAY, 0, STATIC
        EXTERN ZDOInitDevice
        FUNCTION ZDOInitDevice,0202H
        ARGFRAME ISTACK, 2, STACK
        ARGFRAME PSTACK, 0, STACK
        ARGFRAME XSTACK, 11, STACK
        ARGFRAME IOVERLAY, 0, STATIC
        ARGFRAME DOVERLAY, 0, STATIC
        EXTERN SerialTx_Handler
        FUNCTION SerialTx_Handler,0202H
        ARGFRAME ISTACK, 2, STACK
        ARGFRAME PSTACK, 0, STACK
        ARGFRAME XSTACK, 0, STACK
        ARGFRAME IOVERLAY, 0, STATIC
        ARGFRAME DOVERLAY, 0, STATIC
        EXTERN memcpy
        FUNCTION memcpy,010202H
        ARGFRAME ISTACK, 0, STACK
        ARGFRAME PSTACK, 0, STACK
        ARGFRAME XSTACK, 16, STACK
        ARGFRAME IOVERLAY, 0, STATIC
        ARGFRAME DOVERLAY, 0, STATIC
        EXTERN CommonApp_GetDevDataSend
        FUNCTION CommonApp_GetDevDataSend,0202H
        ARGFRAME ISTACK, 0, STACK
        ARGFRAME PSTACK, 0, STACK
        ARGFRAME XSTACK, 14, STACK
        ARGFRAME IOVERLAY, 0, STATIC
        ARGFRAME DOVERLAY, 0, STATIC
        EXTERN crc_confirm
        FUNCTION crc_confirm,0202H
        ARGFRAME ISTACK, 0, STACK
        ARGFRAME PSTACK, 0, STACK
        ARGFRAME XSTACK, 14, STACK
        ARGFRAME IOVERLAY, 0, STATIC
        ARGFRAME DOVERLAY, 0, STATIC
        EXTERN rs485_state
        FUNCTION rs485_state,0202H
        ARGFRAME ISTACK, 0, STACK
        ARGFRAME PSTACK, 0, STACK
        ARGFRAME XSTACK, 14, STACK
        ARGFRAME IOVERLAY, 0, STATIC
        ARGFRAME DOVERLAY, 0, STATIC
        EXTERN rs485_control
        FUNCTION rs485_control,0202H
        ARGFRAME ISTACK, 0, STACK
        ARGFRAME PSTACK, 0, STACK
        ARGFRAME XSTACK, 14, STACK
        ARGFRAME IOVERLAY, 0, STATIC
        ARGFRAME DOVERLAY, 0, STATIC
        EXTERN rs485_changeAddr
        FUNCTION rs485_changeAddr,0202H
        ARGFRAME ISTACK, 0, STACK
        ARGFRAME PSTACK, 0, STACK
        ARGFRAME XSTACK, 14, STACK
        ARGFRAME IOVERLAY, 0, STATIC
        ARGFRAME DOVERLAY, 0, STATIC
        EXTERN rs485_address
        FUNCTION rs485_address,0202H
        ARGFRAME ISTACK, 0, STACK
        ARGFRAME PSTACK, 0, STACK
        ARGFRAME XSTACK, 14, STACK
        ARGFRAME IOVERLAY, 0, STATIC
        ARGFRAME DOVERLAY, 0, STATIC
        EXTERN osal_nv_item_init
        FUNCTION osal_nv_item_init,0202H
        ARGFRAME ISTACK, 0, STACK
        ARGFRAME PSTACK, 0, STACK
        ARGFRAME XSTACK, 13, STACK
        ARGFRAME IOVERLAY, 0, STATIC
        ARGFRAME DOVERLAY, 0, STATIC
        EXTERN osal_nv_read
        FUNCTION osal_nv_read,0202H
        ARGFRAME ISTACK, 0, STACK
        ARGFRAME PSTACK, 0, STACK
        ARGFRAME XSTACK, 14, STACK
        ARGFRAME IOVERLAY, 0, STATIC
        ARGFRAME DOVERLAY, 0, STATIC
        EXTERN NLME_GetShortAddr
        FUNCTION NLME_GetShortAddr,0202H
        ARGFRAME ISTACK, 0, STACK
        ARGFRAME PSTACK, 0, STACK
        ARGFRAME XSTACK, 10, STACK
        ARGFRAME IOVERLAY, 0, STATIC
        ARGFRAME DOVERLAY, 0, STATIC
        EXTERN RS485_HeartBeatCB
        FUNCTION RS485_HeartBeatCB,0602H
        ARGFRAME ISTACK, 0, STACK
        ARGFRAME PSTACK, 0, STACK
        ARGFRAME XSTACK, 12, STACK
        ARGFRAME IOVERLAY, 0, STATIC
        ARGFRAME DOVERLAY, 0, STATIC
        EXTERN set_user_event
        FUNCTION set_user_event,0202H
        ARGFRAME ISTACK, 0, STACK
        ARGFRAME PSTACK, 0, STACK
        ARGFRAME XSTACK, 15, STACK
        ARGFRAME IOVERLAY, 0, STATIC
        ARGFRAME DOVERLAY, 0, STATIC
        EXTERN HalStatesInit
        FUNCTION HalStatesInit,0202H
        ARGFRAME ISTACK, 0, STACK
        ARGFRAME PSTACK, 0, STACK
        ARGFRAME XSTACK, 10, STACK
        ARGFRAME IOVERLAY, 0, STATIC
        ARGFRAME DOVERLAY, 0, STATIC
        EXTERN HalLedBlink
        FUNCTION HalLedBlink,0202H
        ARGFRAME ISTACK, 0, STACK
        ARGFRAME PSTACK, 0, STACK
        ARGFRAME XSTACK, 11, STACK
        ARGFRAME IOVERLAY, 0, STATIC
        ARGFRAME DOVERLAY, 0, STATIC
        EXTERN osal_nv_write
        FUNCTION osal_nv_write,0202H
        ARGFRAME ISTACK, 0, STACK
        ARGFRAME PSTACK, 0, STACK
        ARGFRAME XSTACK, 15, STACK
        ARGFRAME IOVERLAY, 0, STATIC
        ARGFRAME DOVERLAY, 0, STATIC
        EXTERN zgWriteStartupOptions
        FUNCTION zgWriteStartupOptions,0202H
        ARGFRAME ISTACK, 0, STACK
        ARGFRAME PSTACK, 0, STACK
        ARGFRAME XSTACK, 11, STACK
        ARGFRAME IOVERLAY, 0, STATIC
        ARGFRAME DOVERLAY, 0, STATIC
        EXTERN ??CommonApp_GetDevDataSend?relay
        FUNCTION ??CommonApp_GetDevDataSend?relay,00H
        EXTERN ??CommonApp_PermitJoiningRequest?relay
        FUNCTION ??CommonApp_PermitJoiningRequest?relay,00H
        EXTERN ??HalLedBlink?relay
        FUNCTION ??HalLedBlink?relay,00H
        EXTERN ??HalStatesInit?relay
        FUNCTION ??HalStatesInit?relay,00H
        EXTERN ??NLME_GetShortAddr?relay
        FUNCTION ??NLME_GetShortAddr?relay,00H
        EXTERN ??RS485_HeartBeatCB?relay
        FUNCTION ??RS485_HeartBeatCB?relay,00H
        EXTERN ??SerialTx_Handler?relay
        FUNCTION ??SerialTx_Handler?relay,00H
        EXTERN ??ZDOInitDevice?relay
        FUNCTION ??ZDOInitDevice?relay,00H
        EXTERN ??crc_confirm?relay
        FUNCTION ??crc_confirm?relay,00H
        EXTERN ??memcpy?relay
        FUNCTION ??memcpy?relay,00H
        EXTERN ??osal_nv_item_init?relay
        FUNCTION ??osal_nv_item_init?relay,00H
        EXTERN ??osal_nv_read?relay
        FUNCTION ??osal_nv_read?relay,00H
        EXTERN ??osal_nv_write?relay
        FUNCTION ??osal_nv_write?relay,00H
        EXTERN ??rs485_address?relay
        FUNCTION ??rs485_address?relay,00H
        EXTERN ??rs485_changeAddr?relay
        FUNCTION ??rs485_changeAddr?relay,00H
        EXTERN ??rs485_control?relay
        FUNCTION ??rs485_control?relay,00H
        EXTERN ??rs485_state?relay
        FUNCTION ??rs485_state?relay,00H
        EXTERN ??set_user_event?relay
        FUNCTION ??set_user_event?relay,00H
        EXTERN ??zgWriteStartupOptions?relay
        FUNCTION ??zgWriteStartupOptions?relay,00H
        EXTERN Address_dev
        EXTERN CommonApp_TaskID
        EXTERN devState
        EXTERN isPermitJoining
        EXTERN nwkAddr

// E:\work\zigbee\ZStack-Smart-2.5.2b\Projects\zstack\Applications\SmartApp\Source\Device\EndnodeApp.c
//    1 /**************************************************************************************************
//    2   Filename:       EndnodeApp.c
//    3   Revised:        $Date: 2014-04-16 18:34:36 -0800 (Wed, 16 Apr 2014) $
//    4   Revision:       $Revision: 29217 $
//    5 
//    6   Description:    End Node Application
//    7 **************************************************************************************************/
//    8 
//    9 /**************************************************************************************************
//   10 Modify by Sam_Chen
//   11 Date:2015-07-31
//   12 **************************************************************************************************/
//   13 
//   14 /*********************************************************************
//   15  * INCLUDES
//   16  */
//   17 #include "OSAL.h"
//   18 #include "AF.h"
//   19 #include "ZDApp.h"
//   20 #include "ZDObject.h"
//   21 #include "ZDProfile.h"
//   22 #include "OSAL_Nv.h"
//   23 #include "OnBoard.h"

        ASEGN SFR_AN:DATA:NOROOT,0c9H
// unsigned char volatile __sfr WDCTL
WDCTL:
        DATA8
        DS 1
//   24 
//   25 #include "ZComDef.h"
//   26 #include "CommonApp.h"
//   27 
//   28 /* HAL */
//   29 #include "hal_lcd.h"
//   30 #include "hal_led.h"
//   31 #include "hal_key.h"
//   32 #include "hal_uart.h"
//   33 
//   34 
//   35 
//   36 /*********************************************************************
//   37  * MACROS
//   38  */
//   39 
//   40 /*********************************************************************
//   41  * CONSTANTS
//   42  */
//   43 
//   44 /*********************************************************************
//   45  * TYPEDEFS
//   46  */
//   47 
//   48 /*********************************************************************
//   49  * GLOBAL VARIABLES
//   50  */
//   51 
//   52 /*********************************************************************
//   53  * EXTERNAL VARIABLES
//   54  */
//   55 void ConnectorApp_TxHandler(uint8 txBuf[], uint8 txLen);
//   56 
//   57 extern const cId_t CommonApp_InClusterList[];
//   58 extern const cId_t CommonApp_OutClusterList[];
//   59 extern const SimpleDescriptionFormat_t CommonApp_SimpleDesc;
//   60 extern endPointDesc_t CommonApp_epDesc;
//   61 
//   62 extern byte CommonApp_TaskID;
//   63 extern devStates_t CommonApp_NwkState;
//   64 extern byte CommonApp_TransID;
//   65 
//   66 extern afAddrType_t CommonApp_DstAddr;
//   67 
//   68 //mac address
//   69 extern ZLongAddr_t macAddr;
//   70 
//   71 extern uint8 SHORT_ADDR_G[4];
//   72 
//   73 extern uint8 EXT_ADDR_G[16];
//   74 
//   75 extern const uint8 f_tail[4];
//   76 
//   77 extern bool isPermitJoining;
//   78 

        RSEG XDATA_Z:XDATA:NOROOT(0)
        DATA16
//   79 RS485DR_t  *rs485_rsData;
rs485_rsData:
        DS 2
        REQUIRE __INIT_XDATA_Z
//   80 
//   81 /*********************************************************************
//   82  * EXTERNAL FUNCTIONS
//   83  */
//   84 
//   85 /*********************************************************************
//   86  * LOCAL VARIABLES
//   87  */
//   88 static uint8 *fBuf;		//pointer data buffer
//   89 static uint16 fLen;		//buffer data length
//   90 

        RSEG XDATA_Z:XDATA:NOROOT(0)
        DATA8
//   91 uint8 value_addr_L;
value_addr_L:
        DS 1
        REQUIRE __INIT_XDATA_Z

        RSEG XDATA_Z:XDATA:NOROOT(0)
        DATA8
//   92 uint8 value_addr_H;
value_addr_H:
        DS 1
        REQUIRE __INIT_XDATA_Z
//   93 /*********************************************************************
//   94  * LOCAL FUNCTIONS
//   95  */
//   96 static void EndNodeApp_HeartBeatEvent(void);
//   97 static void Data_Analysis(uint8 *data, uint16 length);
//   98 #ifdef RS485_DEV
//   99 static void RS485_Analysis(uint8 *data, uint16 length);
//  100 
//  101 #endif
//  102 /*********************************************************************
//  103  * NETWORK LAYER CALLBACKS
//  104  */
//  105 
//  106 /*********************************************************************
//  107  * PUBLIC FUNCTIONS
//  108  */
//  109 
//  110 /*********************************************************************
//  111  * @fn      CommonApp_InitConfirm
//  112  *
//  113  * @brief   Initialization function for the End Node App Task.
//  114  *          This is called during initialization and should contain
//  115  *          any application specific initialization (ie. hardware
//  116  *          initialization/setup, table initialization, power up
//  117  *          notificaiton ... ).
//  118  *
//  119  * @param   task_id - the ID assigned by OSAL.  This ID should be
//  120  *                    used to send messages and set timers.
//  121  *
//  122  * @return  none
//  123  */
//  124 

        RSEG BANKED_CODE:CODE:NOROOT(0)
//  125 void CommonApp_InitConfirm( uint8 task_id )
CommonApp_InitConfirm:
        CFI Block cfiBlock0 Using cfiCommon0
        CFI Function CommonApp_InitConfirm
        CODE
//  126 {
        FUNCALL CommonApp_InitConfirm, CommonApp_PermitJoiningRequest
        LOCFRAME ISTACK, 2, STACK
        LOCFRAME PSTACK, 0, STACK
        LOCFRAME XSTACK, 0, STACK
        LOCFRAME IOVERLAY, 0, STATIC
        LOCFRAME DOVERLAY, 0, STATIC
        ARGFRAME ISTACK, 2, STACK
        ARGFRAME PSTACK, 0, STACK
        ARGFRAME XSTACK, 0, STACK
        ARGFRAME IOVERLAY, 0, STATIC
        ARGFRAME DOVERLAY, 0, STATIC
        FUNCALL CommonApp_InitConfirm, ZDOInitDevice
        LOCFRAME ISTACK, 2, STACK
        LOCFRAME PSTACK, 0, STACK
        LOCFRAME XSTACK, 0, STACK
        LOCFRAME IOVERLAY, 0, STATIC
        LOCFRAME DOVERLAY, 0, STATIC
        ARGFRAME ISTACK, 2, STACK
        ARGFRAME PSTACK, 0, STACK
        ARGFRAME XSTACK, 0, STACK
        ARGFRAME IOVERLAY, 0, STATIC
        ARGFRAME DOVERLAY, 0, STATIC
        FUNCALL CommonApp_InitConfirm, SerialTx_Handler
        LOCFRAME ISTACK, 2, STACK
        LOCFRAME PSTACK, 0, STACK
        LOCFRAME XSTACK, 0, STACK
        LOCFRAME IOVERLAY, 0, STATIC
        LOCFRAME DOVERLAY, 0, STATIC
        ARGFRAME ISTACK, 2, STACK
        ARGFRAME PSTACK, 0, STACK
        ARGFRAME XSTACK, 0, STACK
        ARGFRAME IOVERLAY, 0, STATIC
        ARGFRAME DOVERLAY, 0, STATIC
        PUSH    DPL
        CFI DPL0 Frame(CFA_SP, 4)
        CFI CFA_SP SP+-4
        PUSH    DPH
        CFI DPH0 Frame(CFA_SP, 5)
        CFI CFA_SP SP+-5
        ; Saved register size: 2
        ; Auto size: 0
//  127 
//  128   CommonApp_PermitJoiningRequest(PERMIT_JOIN_FORBID);
        ; Setup parameters for call to function CommonApp_PermitJoiningRequest
        MOV     R1,#0x0
        LCALL   ??CommonApp_PermitJoiningRequest?relay
//  129   ZDOInitDevice( 0 );
        ; Setup parameters for call to function ZDOInitDevice
        MOV     R2,#0x0
        MOV     R3,#0x0
        LCALL   ??ZDOInitDevice?relay
//  130 
//  131 #if(HAL_UART==TRUE)
//  132   SerialTx_Handler(SERIAL_COM_PORT, ConnectorApp_TxHandler);
        ; Setup parameters for call to function SerialTx_Handler
        MOV     R4,#??ConnectorApp_TxHandler?relay & 0xff
        MOV     R5,#(??ConnectorApp_TxHandler?relay >> 8) & 0xff
        MOV     R2,#0x0
        MOV     R3,#0x0
        LCALL   ??SerialTx_Handler?relay
        CFI EndBlock cfiBlock0
//  133 #endif
//  134 
//  135 }
        REQUIRE ?Subroutine0
        ; // Fall through to label ?Subroutine0

        RSEG BANKED_CODE:CODE:NOROOT(0)
?Subroutine0:
        CFI Block cfiBlock1 Using cfiCommon0
        CFI NoFunction
        CFI CFA_SP SP+-5
        CFI DPL0 Frame(CFA_SP, 4)
        CFI DPH0 Frame(CFA_SP, 5)
        POP     DPH
        CFI CFA_SP SP+-4
        CFI DPH0 SameValue
        POP     DPL
        CFI CFA_SP SP+-3
        CFI DPL0 SameValue
        LJMP    ?BRET
        CFI EndBlock cfiBlock1
//  136 
//  137 
//  138 /*********************************************************************
//  139  * LOCAL FUNCTIONS
//  140  */
//  141 
//  142 /*********************************************************************
//  143  * @fn      CommonApp_MessageMSGCB
//  144  *
//  145  * @brief   Data message processor callback.  This function processes
//  146  *          any incoming data - probably from other devices.  So, based
//  147  *          on cluster ID, perform the intended action.
//  148  *
//  149  * @param   none
//  150  *
//  151  * @return  none
//  152  */
//  153 

        RSEG BANKED_CODE:CODE:NOROOT(0)
//  154 void CommonApp_MessageMSGCB( afIncomingMSGPacket_t *pkt )
CommonApp_MessageMSGCB:
        CFI Block cfiBlock2 Using cfiCommon0
        CFI Function CommonApp_MessageMSGCB
        CODE
//  155 {
        FUNCALL CommonApp_MessageMSGCB, RS485_Analysis
        LOCFRAME ISTACK, 2, STACK
        LOCFRAME PSTACK, 0, STACK
        LOCFRAME XSTACK, 0, STACK
        LOCFRAME IOVERLAY, 0, STATIC
        LOCFRAME DOVERLAY, 0, STATIC
        ARGFRAME ISTACK, 2, STACK
        ARGFRAME PSTACK, 0, STACK
        ARGFRAME XSTACK, 0, STACK
        ARGFRAME IOVERLAY, 0, STATIC
        ARGFRAME DOVERLAY, 0, STATIC
        PUSH    DPL
        CFI DPL0 Frame(CFA_SP, 4)
        CFI CFA_SP SP+-4
        PUSH    DPH
        CFI DPH0 Frame(CFA_SP, 5)
        CFI CFA_SP SP+-5
        ; Saved register size: 2
        ; Auto size: 0
//  156   switch ( pkt->clusterId )
        MOV     DPL,R2
        MOV     DPH,R3
        INC     DPTR
        INC     DPTR
        INC     DPTR
        INC     DPTR
        MOVX    A,@DPTR
        XRL     A,#0x1
        JNZ     ??CommonApp_MessageMSGCB_0
        INC     DPTR
        MOVX    A,@DPTR
??CommonApp_MessageMSGCB_0:
        JNZ     ??CommonApp_MessageMSGCB_1
//  157   {
//  158     case COMMONAPP_CLUSTERID:
//  159 #ifndef RS485_DEV
//  160       Data_Analysis(pkt->cmd.Data, pkt->cmd.DataLength);
//  161 #else
//  162       RS485_Analysis(pkt->cmd.Data, pkt->cmd.DataLength);
        ; Setup parameters for call to function RS485_Analysis
        MOV     A,R2
        ADD     A,#0x20
        MOV     DPL,A
        MOV     A,R3
        ADDC    A,#0x0
        MOV     DPH,A
        MOVX    A,@DPTR
        MOV     R4,A
        INC     DPTR
        MOVX    A,@DPTR
        MOV     R5,A
        MOV     A,R2
        ADD     A,#0x22
        MOV     DPL,A
        MOV     A,R3
        ADDC    A,#0x0
        MOV     DPH,A
        MOVX    A,@DPTR
        MOV     R2,A
        INC     DPTR
        MOVX    A,@DPTR
        MOV     R3,A
        LCALL   ??RS485_Analysis?relay
//  163 #endif
//  164       break;
//  165     default:
//  166     break;
//  167   }
//  168 }
??CommonApp_MessageMSGCB_1:
        SJMP    ?Subroutine0
        CFI EndBlock cfiBlock2
//  169 
//  170 #ifdef RS485_DEV

        RSEG BANKED_CODE:CODE:NOROOT(0)
//  171 void RS485_Analysis(uint8 *data, uint16 length)
RS485_Analysis:
        CFI Block cfiBlock3 Using cfiCommon0
        CFI Function RS485_Analysis
        CODE
//  172 {
        FUNCALL RS485_Analysis, memcpy
        LOCFRAME ISTACK, 0, STACK
        LOCFRAME PSTACK, 0, STACK
        LOCFRAME XSTACK, 16, STACK
        LOCFRAME IOVERLAY, 0, STATIC
        LOCFRAME DOVERLAY, 0, STATIC
        ARGFRAME ISTACK, 0, STACK
        ARGFRAME PSTACK, 0, STACK
        ARGFRAME XSTACK, 16, STACK
        ARGFRAME IOVERLAY, 0, STATIC
        ARGFRAME DOVERLAY, 0, STATIC
        FUNCALL RS485_Analysis, memcpy
        LOCFRAME ISTACK, 0, STACK
        LOCFRAME PSTACK, 0, STACK
        LOCFRAME XSTACK, 16, STACK
        LOCFRAME IOVERLAY, 0, STATIC
        LOCFRAME DOVERLAY, 0, STATIC
        ARGFRAME ISTACK, 0, STACK
        ARGFRAME PSTACK, 0, STACK
        ARGFRAME XSTACK, 16, STACK
        ARGFRAME IOVERLAY, 0, STATIC
        ARGFRAME DOVERLAY, 0, STATIC
        FUNCALL RS485_Analysis, CommonApp_GetDevDataSend
        LOCFRAME ISTACK, 0, STACK
        LOCFRAME PSTACK, 0, STACK
        LOCFRAME XSTACK, 14, STACK
        LOCFRAME IOVERLAY, 0, STATIC
        LOCFRAME DOVERLAY, 0, STATIC
        ARGFRAME ISTACK, 0, STACK
        ARGFRAME PSTACK, 0, STACK
        ARGFRAME XSTACK, 14, STACK
        ARGFRAME IOVERLAY, 0, STATIC
        ARGFRAME DOVERLAY, 0, STATIC
        FUNCALL RS485_Analysis, crc_confirm
        LOCFRAME ISTACK, 0, STACK
        LOCFRAME PSTACK, 0, STACK
        LOCFRAME XSTACK, 14, STACK
        LOCFRAME IOVERLAY, 0, STATIC
        LOCFRAME DOVERLAY, 0, STATIC
        ARGFRAME ISTACK, 0, STACK
        ARGFRAME PSTACK, 0, STACK
        ARGFRAME XSTACK, 14, STACK
        ARGFRAME IOVERLAY, 0, STATIC
        ARGFRAME DOVERLAY, 0, STATIC
        FUNCALL RS485_Analysis, rs485_state
        LOCFRAME ISTACK, 0, STACK
        LOCFRAME PSTACK, 0, STACK
        LOCFRAME XSTACK, 14, STACK
        LOCFRAME IOVERLAY, 0, STATIC
        LOCFRAME DOVERLAY, 0, STATIC
        ARGFRAME ISTACK, 0, STACK
        ARGFRAME PSTACK, 0, STACK
        ARGFRAME XSTACK, 14, STACK
        ARGFRAME IOVERLAY, 0, STATIC
        ARGFRAME DOVERLAY, 0, STATIC
        FUNCALL RS485_Analysis, rs485_control
        LOCFRAME ISTACK, 0, STACK
        LOCFRAME PSTACK, 0, STACK
        LOCFRAME XSTACK, 14, STACK
        LOCFRAME IOVERLAY, 0, STATIC
        LOCFRAME DOVERLAY, 0, STATIC
        ARGFRAME ISTACK, 0, STACK
        ARGFRAME PSTACK, 0, STACK
        ARGFRAME XSTACK, 14, STACK
        ARGFRAME IOVERLAY, 0, STATIC
        ARGFRAME DOVERLAY, 0, STATIC
        FUNCALL RS485_Analysis, rs485_changeAddr
        LOCFRAME ISTACK, 0, STACK
        LOCFRAME PSTACK, 0, STACK
        LOCFRAME XSTACK, 14, STACK
        LOCFRAME IOVERLAY, 0, STATIC
        LOCFRAME DOVERLAY, 0, STATIC
        ARGFRAME ISTACK, 0, STACK
        ARGFRAME PSTACK, 0, STACK
        ARGFRAME XSTACK, 14, STACK
        ARGFRAME IOVERLAY, 0, STATIC
        ARGFRAME DOVERLAY, 0, STATIC
        FUNCALL RS485_Analysis, rs485_address
        LOCFRAME ISTACK, 0, STACK
        LOCFRAME PSTACK, 0, STACK
        LOCFRAME XSTACK, 14, STACK
        LOCFRAME IOVERLAY, 0, STATIC
        LOCFRAME DOVERLAY, 0, STATIC
        ARGFRAME ISTACK, 0, STACK
        ARGFRAME PSTACK, 0, STACK
        ARGFRAME XSTACK, 14, STACK
        ARGFRAME IOVERLAY, 0, STATIC
        ARGFRAME DOVERLAY, 0, STATIC
        MOV     A,#-0xe
        LCALL   ?BANKED_ENTER_XDATA
        CFI DPH0 load(1, XDATA, add(CFA_XSP16, literal(-1)))
        CFI DPL0 load(1, XDATA, add(CFA_XSP16, literal(-2)))
        CFI ?BRET_EXT load(1, XDATA, add(CFA_XSP16, literal(-3)))
        CFI ?RET_HIGH load(1, XDATA, add(CFA_XSP16, literal(-4)))
        CFI ?RET_LOW load(1, XDATA, add(CFA_XSP16, literal(-5)))
        CFI R7 load(1, XDATA, add(CFA_XSP16, literal(-6)))
        CFI V5 load(1, XDATA, add(CFA_XSP16, literal(-7)))
        CFI V4 load(1, XDATA, add(CFA_XSP16, literal(-8)))
        CFI V3 load(1, XDATA, add(CFA_XSP16, literal(-9)))
        CFI V2 load(1, XDATA, add(CFA_XSP16, literal(-10)))
        CFI V1 load(1, XDATA, add(CFA_XSP16, literal(-11)))
        CFI V0 load(1, XDATA, add(CFA_XSP16, literal(-12)))
        CFI VB load(1, XDATA, add(CFA_XSP16, literal(-13)))
        CFI R6 load(1, XDATA, add(CFA_XSP16, literal(-14)))
        CFI CFA_SP SP+0
        CFI CFA_XSP16 add(XSP16, 14)
        ; Saved register size: 14
        ; Auto size: 0
        MOV     A,R2
        MOV     R6,A
        MOV     A,R3
        MOV     R7,A
        MOV     ?V0 + 0,R4
        MOV     ?V0 + 1,R5
//  173 
//  174   uint8 len=length;
        MOV     A,R4
        MOV     ?V0 + 2,A
//  175   memcpy(rs485_rsData->head,data,1);
        ; Setup parameters for call to function memcpy
        MOV     ?V0 + 4,#0x1
        MOV     ?V0 + 5,#0x0
        MOV     R0,#?V0 + 4
        LCALL   ?PUSH_XSTACK_I_TWO
        CFI CFA_XSP16 add(XSP16, 16)
        MOV     A,R6
        MOV     R4,A
        MOV     A,R7
        MOV     R5,A
        MOV     DPTR,#rs485_rsData
        MOVX    A,@DPTR
        MOV     R2,A
        INC     DPTR
        MOVX    A,@DPTR
        MOV     R3,A
        LCALL   ??memcpy?relay
        MOV     A,#0x2
        LCALL   ?DEALLOC_XSTACK8
        CFI CFA_XSP16 add(XSP16, 14)
//  176   memcpy(rs485_rsData->cmdId,data+1,1);
        ; Setup parameters for call to function memcpy
        MOV     R0,#?V0 + 4
        LCALL   ?PUSH_XSTACK_I_TWO
        CFI CFA_XSP16 add(XSP16, 16)
        MOV     DPL,R6
        MOV     DPH,R7
        INC     DPTR
        MOV     R4,DPL
        MOV     R5,DPH
        MOV     DPTR,#rs485_rsData
        MOVX    A,@DPTR
        ADD     A,#0x1
        MOV     R2,A
        INC     DPTR
        MOVX    A,@DPTR
        ADDC    A,#0x0
        MOV     R3,A
        LCALL   ??memcpy?relay
        MOV     A,#0x2
        LCALL   ?DEALLOC_XSTACK8
        CFI CFA_XSP16 add(XSP16, 14)
//  177   CommonApp_GetDevDataSend(data,length);
        ; Setup parameters for call to function CommonApp_GetDevDataSend
        MOV     R4,?V0 + 0
        MOV     R5,?V0 + 1
        MOV     A,R6
        MOV     R2,A
        MOV     A,R7
        MOV     R3,A
        LCALL   ??CommonApp_GetDevDataSend?relay
//  178   if(crc_confirm(data,length))
        ; Setup parameters for call to function crc_confirm
        MOV     R1,?V0 + 0
        MOV     A,R6
        MOV     R2,A
        MOV     A,R7
        MOV     R3,A
        LCALL   ??crc_confirm?relay
        MOV     A,R1
        JZ      ??RS485_Analysis_0
//  179   {
//  180     //判断是否是该设备命令
//  181   switch(rs485_rsData->cmdId[0])
        MOV     DPTR,#rs485_rsData
        MOVX    A,@DPTR
        MOV     R0,A
        INC     DPTR
        MOVX    A,@DPTR
        MOV     DPH,A
        MOV     DPL,R0
        INC     DPTR
        MOVX    A,@DPTR
        ADD     A,#-0x3
        JZ      ??RS485_Analysis_1
        DEC     A
        JZ      ??RS485_Analysis_2
        ADD     A,#-0x2
        JZ      ??RS485_Analysis_3
        ADD     A,#-0x1f
        JZ      ??RS485_Analysis_4
        SJMP    ??RS485_Analysis_0
//  182     {
//  183      case CT_CMD_CX:
//  184       //查询状态 0x03
//  185        if(rs485_rsData->head[0]==Address_dev)
??RS485_Analysis_1:
        LCALL   ?Subroutine2 & 0xFFFF
??CrossCallReturnLabel_0:
        JNZ     ??RS485_Analysis_0
//  186        {
//  187        rs485_state(data,len);
        ; Setup parameters for call to function rs485_state
        MOV     R4,?V0 + 2
        MOV     R5,#0x0
        MOV     A,R6
        MOV     R2,A
        MOV     A,R7
        MOV     R3,A
        LCALL   ??rs485_state?relay
        SJMP    ??RS485_Analysis_0
//  188        }
//  189       break;
//  190     case CT_CMD_KZ:
//  191       //控制设备 0x04
//  192       if(rs485_rsData->head[0]==Address_dev)
??RS485_Analysis_2:
        LCALL   ?Subroutine2 & 0xFFFF
??CrossCallReturnLabel_1:
        JNZ     ??RS485_Analysis_0
//  193       {
//  194        rs485_control(data,len);
        ; Setup parameters for call to function rs485_control
        MOV     R4,?V0 + 2
        MOV     R5,#0x0
        MOV     A,R6
        MOV     R2,A
        MOV     A,R7
        MOV     R3,A
        LCALL   ??rs485_control?relay
        SJMP    ??RS485_Analysis_0
//  195       }
//  196       break;
//  197     case CT_CMD_XG:
//  198       //修改地址 0x06
//  199       if(rs485_rsData->head[0]==Address_dev)
??RS485_Analysis_3:
        LCALL   ?Subroutine2 & 0xFFFF
??CrossCallReturnLabel_2:
        JNZ     ??RS485_Analysis_0
//  200       {
//  201        rs485_changeAddr(data,len);
        ; Setup parameters for call to function rs485_changeAddr
        MOV     R4,?V0 + 0
        MOV     R5,#0x0
        MOV     A,R6
        MOV     R2,A
        MOV     A,R7
        MOV     R3,A
        LCALL   ??rs485_changeAddr?relay
        SJMP    ??RS485_Analysis_0
//  202       }
//  203       break;
//  204     case CT_CMD_DI:
//  205       //查询地址 0x25
//  206       rs485_address();
??RS485_Analysis_4:
        ; Setup parameters for call to function rs485_address
        LCALL   ??rs485_address?relay
//  207       break;
//  208     default:
//  209       break;
//  210     } 
//  211   }
//  212 }
??RS485_Analysis_0:
        MOV     R7,#0x6
        LJMP    ?BANKED_LEAVE_XDATA
        CFI EndBlock cfiBlock3

        RSEG BANKED_CODE:CODE:NOROOT(0)
?Subroutine2:
        CFI Block cfiCond4 Using cfiCommon0
        CFI NoFunction
        CFI Conditional ??CrossCallReturnLabel_0
        CFI R6 load(1, XDATA, add(CFA_XSP16, literal(-14)))
        CFI VB load(1, XDATA, add(CFA_XSP16, literal(-13)))
        CFI V0 load(1, XDATA, add(CFA_XSP16, literal(-12)))
        CFI V1 load(1, XDATA, add(CFA_XSP16, literal(-11)))
        CFI V2 load(1, XDATA, add(CFA_XSP16, literal(-10)))
        CFI V3 load(1, XDATA, add(CFA_XSP16, literal(-9)))
        CFI V4 load(1, XDATA, add(CFA_XSP16, literal(-8)))
        CFI V5 load(1, XDATA, add(CFA_XSP16, literal(-7)))
        CFI R7 load(1, XDATA, add(CFA_XSP16, literal(-6)))
        CFI ?RET_LOW load(1, XDATA, add(CFA_XSP16, literal(-5)))
        CFI ?RET_HIGH load(1, XDATA, add(CFA_XSP16, literal(-4)))
        CFI ?BRET_EXT load(1, XDATA, add(CFA_XSP16, literal(-3)))
        CFI DPL0 load(1, XDATA, add(CFA_XSP16, literal(-2)))
        CFI DPH0 load(1, XDATA, add(CFA_XSP16, literal(-1)))
        CFI CFA_SP SP+0
        CFI CFA_XSP16 add(XSP16, 14)
        CFI Block cfiCond5 Using cfiCommon0
        CFI (cfiCond5) NoFunction
        CFI (cfiCond5) Conditional ??CrossCallReturnLabel_1
        CFI (cfiCond5) R6 load(1, XDATA, add(CFA_XSP16, literal(-14)))
        CFI (cfiCond5) VB load(1, XDATA, add(CFA_XSP16, literal(-13)))
        CFI (cfiCond5) V0 load(1, XDATA, add(CFA_XSP16, literal(-12)))
        CFI (cfiCond5) V1 load(1, XDATA, add(CFA_XSP16, literal(-11)))
        CFI (cfiCond5) V2 load(1, XDATA, add(CFA_XSP16, literal(-10)))
        CFI (cfiCond5) V3 load(1, XDATA, add(CFA_XSP16, literal(-9)))
        CFI (cfiCond5) V4 load(1, XDATA, add(CFA_XSP16, literal(-8)))
        CFI (cfiCond5) V5 load(1, XDATA, add(CFA_XSP16, literal(-7)))
        CFI (cfiCond5) R7 load(1, XDATA, add(CFA_XSP16, literal(-6)))
        CFI (cfiCond5) ?RET_LOW load(1, XDATA, add(CFA_XSP16, literal(-5)))
        CFI (cfiCond5) ?RET_HIGH load(1, XDATA, add(CFA_XSP16, literal(-4)))
        CFI (cfiCond5) ?BRET_EXT load(1, XDATA, add(CFA_XSP16, literal(-3)))
        CFI (cfiCond5) DPL0 load(1, XDATA, add(CFA_XSP16, literal(-2)))
        CFI (cfiCond5) DPH0 load(1, XDATA, add(CFA_XSP16, literal(-1)))
        CFI (cfiCond5) CFA_SP SP+0
        CFI (cfiCond5) CFA_XSP16 add(XSP16, 14)
        CFI Block cfiCond6 Using cfiCommon0
        CFI (cfiCond6) NoFunction
        CFI (cfiCond6) Conditional ??CrossCallReturnLabel_2
        CFI (cfiCond6) R6 load(1, XDATA, add(CFA_XSP16, literal(-14)))
        CFI (cfiCond6) VB load(1, XDATA, add(CFA_XSP16, literal(-13)))
        CFI (cfiCond6) V0 load(1, XDATA, add(CFA_XSP16, literal(-12)))
        CFI (cfiCond6) V1 load(1, XDATA, add(CFA_XSP16, literal(-11)))
        CFI (cfiCond6) V2 load(1, XDATA, add(CFA_XSP16, literal(-10)))
        CFI (cfiCond6) V3 load(1, XDATA, add(CFA_XSP16, literal(-9)))
        CFI (cfiCond6) V4 load(1, XDATA, add(CFA_XSP16, literal(-8)))
        CFI (cfiCond6) V5 load(1, XDATA, add(CFA_XSP16, literal(-7)))
        CFI (cfiCond6) R7 load(1, XDATA, add(CFA_XSP16, literal(-6)))
        CFI (cfiCond6) ?RET_LOW load(1, XDATA, add(CFA_XSP16, literal(-5)))
        CFI (cfiCond6) ?RET_HIGH load(1, XDATA, add(CFA_XSP16, literal(-4)))
        CFI (cfiCond6) ?BRET_EXT load(1, XDATA, add(CFA_XSP16, literal(-3)))
        CFI (cfiCond6) DPL0 load(1, XDATA, add(CFA_XSP16, literal(-2)))
        CFI (cfiCond6) DPH0 load(1, XDATA, add(CFA_XSP16, literal(-1)))
        CFI (cfiCond6) CFA_SP SP+0
        CFI (cfiCond6) CFA_XSP16 add(XSP16, 14)
        CFI Block cfiPicker7 Using cfiCommon1
        CFI (cfiPicker7) NoFunction
        CFI (cfiPicker7) Picker
        MOV     DPTR,#rs485_rsData + 1
        MOVX    A,@DPTR
        MOV     DPH,A
        MOV     DPL,R0
        MOVX    A,@DPTR
        MOV     R0,A
        MOV     DPTR,#Address_dev
        MOVX    A,@DPTR
        XRL     A,R0
        RET
        CFI EndBlock cfiCond4
        CFI EndBlock cfiCond5
        CFI EndBlock cfiCond6
        CFI EndBlock cfiPicker7
//  213 #endif
//  214 
//  215 void Data_Analysis(uint8 *data, uint16 length)
//  216 {
//  217   DE_t *mdeFrame;
//  218 
//  219   uint8 buf[FRAME_DATA_SIZE] = {0};
//  220   uint8 len = 0;
//  221   
//  222   //uint8 rslength=length;
//  223   //sprintf(buf, "data:%s, len:%d\n", data, length);
//  224   //CommonApp_GetDevDataSend(&rslength, 1);
//  225   
//  226   
//  227   mdeFrame = (DE_t *)SSAFrame_Analysis(HEAD_DE, data, length);
//  228 
//  229   //处理控制命令
//  230   if(mdeFrame)
//  231   {
//  232 //#ifdef __DEBUG__
//  233     //HalUARTWrite(SERIAL_COM_PORT, data, length);
//  234 //#endif
//  235 
//  236     if(!memcmp(mdeFrame->cmd, FR_CMD_BROCAST_REFRESH, 4)
//  237        || !memcmp(mdeFrame->cmd, FR_CMD_SINGLE_REFRESH, 4))
//  238     {
//  239       UO_t mFrame;
//  240 			
//  241       memcpy(mFrame.head, FR_HEAD_UO, 3);
//  242 #ifdef RTR_NWK
//  243       mFrame.type = FR_DEV_ROUTER;
//  244 #else
//  245       mFrame.type = FR_DEV_ENDDEV;
//  246 #endif
//  247       memcpy(mFrame.ed_type, FR_APP_DEV, 2);
//  248       memcpy(mFrame.short_addr, SHORT_ADDR_G, 4);
//  249       memcpy(mFrame.ext_addr, EXT_ADDR_G, 16);
//  250       mFrame.data = buf;
//  251       CommonDevice_GetData(mFrame.data, &mFrame.data_len);
//  252       memcpy(mFrame.tail, f_tail, 4);
//  253 
//  254       if(!SSAFrame_Package(HEAD_UO, &mFrame, &fBuf, &fLen))
//  255       {
//  256         CommonApp_SendTheMessage(COORDINATOR_ADDR, fBuf, fLen);
//  257       }
//  258     }
//  259     else if(!memcmp(mdeFrame->cmd, FR_CMD_SINGLE_EXCUTE, 4))
//  260     {
//  261       DataCmd_Ctrl(mdeFrame->data, mdeFrame->data_len);
//  262 
//  263       if(!CommonDevice_GetData(buf, &len))
//  264         Update_Refresh(buf, len);
//  265     }
//  266     else if(!memcmp(mdeFrame->cmd, FR_CMD_PEROID_EXCUTE, 4))
//  267     {
//  268       DataCmd_Ctrl(mdeFrame->data, mdeFrame->data_len);
//  269 
//  270 	  if(!CommonDevice_GetData(buf, &len))
//  271         Update_Refresh(buf, len);
//  272 	  
//  273       update_user_event(CommonApp_TaskID, CMD_PEROID_EVT, CommonApp_CmdPeroidCB, 
//  274 	  	CMD_PEROID_TIMEOUT, TIMER_LOOP_EXECUTION|TIMER_EVENT_RESIDENTS, NULL);
//  275     }
//  276     else if(!memcmp(mdeFrame->cmd, FR_CMD_PEROID_STOP, 4))
//  277     {
//  278       update_user_event(CommonApp_TaskID, CMD_PEROID_EVT, 
//  279 	  	NULL, TIMER_NO_LIMIT, TIMER_CLEAR_EXECUTION, NULL);
//  280 			
//  281       Update_Refresh(mdeFrame->data, mdeFrame->data_len);
//  282     }
//  283 #ifdef RTR_NWK
//  284     else if(!memcmp(mdeFrame->cmd, FR_CMD_JOIN_CTRL, 4))
//  285     {
//  286       if(!memcmp(mdeFrame->short_addr, SHORT_ADDR_G, 4))
//  287       {
//  288         uint8 cmdData, ret;
//  289         uint8 retData[2] = {0};
//  290 			
//  291         cmdData = atox(mdeFrame->data, mdeFrame->data_len);
//  292 
//  293         if(!cmdData)
//  294           ret = !CommonApp_PermitJoiningRequest(PERMIT_JOIN_FORBID);
//  295         else if(cmdData == 1)
//  296           ret = !CommonApp_PermitJoiningRequest(PERMIT_JOIN_TIMEOUT);
//  297 
//  298         incode_2_to_16(retData, &ret, 1);
//  299         PermitJoin_Refresh(retData, 2);
//  300       }
//  301     }
//  302 #endif
//  303   }
//  304 }
//  305 
//  306 
//  307 /*********************************************************************
//  308  * @fn      CommonApp_ProcessZDOStates
//  309  *
//  310  * @brief   Process when network change
//  311  *
//  312  * @param   network status
//  313  *
//  314  * @return  none
//  315  */

        RSEG BANKED_CODE:CODE:NOROOT(0)
//  316 void CommonApp_ProcessZDOStates(devStates_t status)
CommonApp_ProcessZDOStates:
        CFI Block cfiBlock8 Using cfiCommon0
        CFI Function CommonApp_ProcessZDOStates
        CODE
//  317 {
        FUNCALL CommonApp_ProcessZDOStates, osal_nv_item_init
        LOCFRAME ISTACK, 0, STACK
        LOCFRAME PSTACK, 0, STACK
        LOCFRAME XSTACK, 12, STACK
        LOCFRAME IOVERLAY, 0, STATIC
        LOCFRAME DOVERLAY, 0, STATIC
        ARGFRAME ISTACK, 0, STACK
        ARGFRAME PSTACK, 0, STACK
        ARGFRAME XSTACK, 12, STACK
        ARGFRAME IOVERLAY, 0, STATIC
        ARGFRAME DOVERLAY, 0, STATIC
        FUNCALL CommonApp_ProcessZDOStates, osal_nv_read
        LOCFRAME ISTACK, 0, STACK
        LOCFRAME PSTACK, 0, STACK
        LOCFRAME XSTACK, 14, STACK
        LOCFRAME IOVERLAY, 0, STATIC
        LOCFRAME DOVERLAY, 0, STATIC
        ARGFRAME ISTACK, 0, STACK
        ARGFRAME PSTACK, 0, STACK
        ARGFRAME XSTACK, 14, STACK
        ARGFRAME IOVERLAY, 0, STATIC
        ARGFRAME DOVERLAY, 0, STATIC
        FUNCALL CommonApp_ProcessZDOStates, NLME_GetShortAddr
        LOCFRAME ISTACK, 0, STACK
        LOCFRAME PSTACK, 0, STACK
        LOCFRAME XSTACK, 10, STACK
        LOCFRAME IOVERLAY, 0, STATIC
        LOCFRAME DOVERLAY, 0, STATIC
        ARGFRAME ISTACK, 0, STACK
        ARGFRAME PSTACK, 0, STACK
        ARGFRAME XSTACK, 10, STACK
        ARGFRAME IOVERLAY, 0, STATIC
        ARGFRAME DOVERLAY, 0, STATIC
        FUNCALL CommonApp_ProcessZDOStates, RS485_HeartBeatCB
        LOCFRAME ISTACK, 0, STACK
        LOCFRAME PSTACK, 0, STACK
        LOCFRAME XSTACK, 12, STACK
        LOCFRAME IOVERLAY, 0, STATIC
        LOCFRAME DOVERLAY, 0, STATIC
        ARGFRAME ISTACK, 0, STACK
        ARGFRAME PSTACK, 0, STACK
        ARGFRAME XSTACK, 12, STACK
        ARGFRAME IOVERLAY, 0, STATIC
        ARGFRAME DOVERLAY, 0, STATIC
        FUNCALL CommonApp_ProcessZDOStates, set_user_event
        LOCFRAME ISTACK, 0, STACK
        LOCFRAME PSTACK, 0, STACK
        LOCFRAME XSTACK, 15, STACK
        LOCFRAME IOVERLAY, 0, STATIC
        LOCFRAME DOVERLAY, 0, STATIC
        ARGFRAME ISTACK, 0, STACK
        ARGFRAME PSTACK, 0, STACK
        ARGFRAME XSTACK, 15, STACK
        ARGFRAME IOVERLAY, 0, STATIC
        ARGFRAME DOVERLAY, 0, STATIC
        FUNCALL CommonApp_ProcessZDOStates, HalStatesInit
        LOCFRAME ISTACK, 0, STACK
        LOCFRAME PSTACK, 0, STACK
        LOCFRAME XSTACK, 10, STACK
        LOCFRAME IOVERLAY, 0, STATIC
        LOCFRAME DOVERLAY, 0, STATIC
        ARGFRAME ISTACK, 0, STACK
        ARGFRAME PSTACK, 0, STACK
        ARGFRAME XSTACK, 10, STACK
        ARGFRAME IOVERLAY, 0, STATIC
        ARGFRAME DOVERLAY, 0, STATIC
        MOV     A,#-0xa
        LCALL   ?BANKED_ENTER_XDATA
        CFI DPH0 load(1, XDATA, add(CFA_XSP16, literal(-1)))
        CFI DPL0 load(1, XDATA, add(CFA_XSP16, literal(-2)))
        CFI ?BRET_EXT load(1, XDATA, add(CFA_XSP16, literal(-3)))
        CFI ?RET_HIGH load(1, XDATA, add(CFA_XSP16, literal(-4)))
        CFI ?RET_LOW load(1, XDATA, add(CFA_XSP16, literal(-5)))
        CFI R7 load(1, XDATA, add(CFA_XSP16, literal(-6)))
        CFI V1 load(1, XDATA, add(CFA_XSP16, literal(-7)))
        CFI V0 load(1, XDATA, add(CFA_XSP16, literal(-8)))
        CFI VB load(1, XDATA, add(CFA_XSP16, literal(-9)))
        CFI R6 load(1, XDATA, add(CFA_XSP16, literal(-10)))
        CFI CFA_SP SP+0
        CFI CFA_XSP16 add(XSP16, 10)
        ; Saved register size: 10
        ; Auto size: 0
        MOV     A,R1
        MOV     R6,A
//  318 #ifndef RS485_DEV
//  319   UO_t mFrame;
//  320   uint8 buf[FRAME_DATA_SIZE] = {0};
//  321   
//  322   if( status == DEV_ROUTER || status == DEV_END_DEVICE)
//  323   {
//  324     nwkAddr = NLME_GetShortAddr();
//  325     incode_2_to_16(SHORT_ADDR_G, (uint8 *)&nwkAddr, 2);
//  326     memcpy(macAddr, NLME_GetExtAddr(), sizeof(ZLongAddr_t));
//  327     incode_2_to_16(EXT_ADDR_G, macAddr, 8);
//  328 
//  329     memcpy(mFrame.head, FR_HEAD_UO, 3);
//  330 #ifdef RTR_NWK
//  331     mFrame.type = FR_DEV_ROUTER;
//  332 #else
//  333     mFrame.type = FR_DEV_ENDDEV;
//  334 #endif
//  335     memcpy(mFrame.ed_type, FR_APP_DEV, 2);
//  336     memcpy(mFrame.short_addr, SHORT_ADDR_G, 4);
//  337     memcpy(mFrame.ext_addr, EXT_ADDR_G, 16);
//  338     mFrame.data = buf;
//  339     CommonDevice_GetData(mFrame.data, &mFrame.data_len);
//  340     memcpy(mFrame.tail, f_tail, 4);
//  341 
//  342     if(!SSAFrame_Package(HEAD_UO, &mFrame, &fBuf, &fLen))
//  343     {
//  344       CommonApp_SendTheMessage(0x0000, fBuf, fLen);
//  345     }
//  346 
//  347 	EndNodeApp_HeartBeatEvent();
//  348 	HalStatesInit(status);
//  349   }
//  350 #else
//  351   if( status == DEV_ROUTER || status == DEV_END_DEVICE)
        MOV     A,#0x7
        XRL     A,R6
        JZ      ??CommonApp_ProcessZDOStates_0
        MOV     A,#0x6
        XRL     A,R6
        JZ      $+5
        LJMP    ??CommonApp_ProcessZDOStates_1 & 0xFFFF
//  352   {
//  353   //读取NV地址值到存储空间
//  354     osal_nv_item_init(ZCD_DEV_ADDRESS, 1, NULL);
??CommonApp_ProcessZDOStates_0:
        ; Setup parameters for call to function osal_nv_item_init
        CLR     A
        MOV     ?V0 + 0,A
        MOV     ?V0 + 1,A
        MOV     R0,#?V0 + 0
        LCALL   ?PUSH_XSTACK_I_TWO
        CFI CFA_XSP16 add(XSP16, 12)
        MOV     R4,#0x1
        MOV     R5,#0x0
        MOV     R2,#0x2
        MOV     R3,#0x2
        LCALL   ??osal_nv_item_init?relay
        MOV     A,#0x2
        LCALL   ?DEALLOC_XSTACK8
        CFI CFA_XSP16 add(XSP16, 10)
//  355     osal_nv_read(ZCD_DEV_ADDRESS, 0, 1, &Address_dev);
        ; Setup parameters for call to function osal_nv_read
        MOV     ?V0 + 0,#Address_dev & 0xff
        MOV     ?V0 + 1,#(Address_dev >> 8) & 0xff
        MOV     R0,#?V0 + 0
        LCALL   ?PUSH_XSTACK_I_TWO
        CFI CFA_XSP16 add(XSP16, 12)
        MOV     ?V0 + 0,#0x1
        MOV     ?V0 + 1,#0x0
        MOV     R0,#?V0 + 0
        LCALL   ?PUSH_XSTACK_I_TWO
        CFI CFA_XSP16 add(XSP16, 14)
        MOV     R4,#0x0
        MOV     R5,#0x0
        MOV     R2,#0x2
        MOV     R3,#0x2
        LCALL   ??osal_nv_read?relay
        MOV     A,#0x4
        LCALL   ?DEALLOC_XSTACK8
        CFI CFA_XSP16 add(XSP16, 10)
//  356     nwkAddr = NLME_GetShortAddr();
        ; Setup parameters for call to function NLME_GetShortAddr
        LCALL   ??NLME_GetShortAddr?relay
        MOV     DPTR,#nwkAddr
        MOV     A,R2
        MOVX    @DPTR,A
        INC     DPTR
        MOV     A,R3
        MOVX    @DPTR,A
//  357     value_addr_L=nwkAddr>>8;
        MOV     DPTR,#value_addr_L
        MOVX    @DPTR,A
//  358     value_addr_H=nwkAddr&0x00ff;
        MOV     DPTR,#nwkAddr
        MOVX    A,@DPTR
        MOV     DPTR,#value_addr_H
        MOVX    @DPTR,A
//  359       
//  360     //正常字节序，高位在前，低位在后.上电发送设备地址
//  361     //设置心跳事件
//  362     EndNodeApp_HeartBeatEvent();
        ; Setup parameters for call to function RS485_HeartBeatCB
        CLR     A
        MOV     ?V0 + 0,A
        MOV     R0,#?V0 + 0
        LCALL   ?PUSH_XSTACK_I_TWO
        CFI CFA_XSP16 add(XSP16, 12)
        MOV     R4,#0x0
        MOV     R5,#0x0
        MOV     R2,#0x0
        MOV     R3,#0x0
        LCALL   ??RS485_HeartBeatCB?relay
        MOV     A,#0x2
        LCALL   ?DEALLOC_XSTACK8
        CFI CFA_XSP16 add(XSP16, 10)
        ; Setup parameters for call to function set_user_event
        MOV     R0,#?V0 + 0
        LCALL   ?PUSH_XSTACK_I_TWO
        CFI CFA_XSP16 add(XSP16, 12)
        MOV     ?V0 + 0,#-0x1
        MOV     R0,#?V0 + 0
        LCALL   ?PUSH_XSTACK_I_ONE
        CFI CFA_XSP16 add(XSP16, 13)
        MOV     ?V0 + 0,#0x30
        MOV     ?V0 + 1,#0x75
        MOV     R0,#?V0 + 0
        LCALL   ?PUSH_XSTACK_I_TWO
        CFI CFA_XSP16 add(XSP16, 15)
        MOV     R4,#??RS485_HeartBeatCB?relay & 0xff
        MOV     R5,#(??RS485_HeartBeatCB?relay >> 8) & 0xff
        MOV     R2,#0x1
        MOV     R3,#0x0
        MOV     DPTR,#CommonApp_TaskID
        MOVX    A,@DPTR
        MOV     R1,A
        LCALL   ??set_user_event?relay
        MOV     A,#0x5
        LCALL   ?DEALLOC_XSTACK8
        CFI CFA_XSP16 add(XSP16, 10)
//  363     HalStatesInit(status);
        ; Setup parameters for call to function HalStatesInit
        MOV     A,R6
        MOV     R1,A
        LCALL   ??HalStatesInit?relay
        CFI EndBlock cfiBlock8
//  364   }
//  365 #endif
//  366 }
??CommonApp_ProcessZDOStates_1:
        REQUIRE ?Subroutine1
        ; // Fall through to label ?Subroutine1

        RSEG BANKED_CODE:CODE:NOROOT(0)
?Subroutine1:
        CFI Block cfiBlock9 Using cfiCommon0
        CFI NoFunction
        CFI CFA_SP SP+0
        CFI CFA_XSP16 add(XSP16, 10)
        CFI VB load(1, XDATA, add(CFA_XSP16, literal(-9)))
        CFI DPL0 load(1, XDATA, add(CFA_XSP16, literal(-2)))
        CFI DPH0 load(1, XDATA, add(CFA_XSP16, literal(-1)))
        CFI R6 load(1, XDATA, add(CFA_XSP16, literal(-10)))
        CFI R7 load(1, XDATA, add(CFA_XSP16, literal(-6)))
        CFI V0 load(1, XDATA, add(CFA_XSP16, literal(-8)))
        CFI V1 load(1, XDATA, add(CFA_XSP16, literal(-7)))
        CFI ?BRET_EXT load(1, XDATA, add(CFA_XSP16, literal(-3)))
        CFI ?RET_HIGH load(1, XDATA, add(CFA_XSP16, literal(-4)))
        CFI ?RET_LOW load(1, XDATA, add(CFA_XSP16, literal(-5)))
        MOV     R7,#0x2
        LJMP    ?BANKED_LEAVE_XDATA
        CFI EndBlock cfiBlock9
//  367 
//  368 #ifndef HAL_KEY_LONG_SHORT_DISTINGUISH

        RSEG BANKED_CODE:CODE:NOROOT(0)
//  369 void CommonApp_HandleCombineKeys(uint16 keys, uint8 keyCounts)
CommonApp_HandleCombineKeys:
        CFI Block cfiBlock10 Using cfiCommon0
        CFI Function CommonApp_HandleCombineKeys
        CODE
//  370 {
        FUNCALL CommonApp_HandleCombineKeys, HalLedBlink
        LOCFRAME ISTACK, 0, STACK
        LOCFRAME PSTACK, 0, STACK
        LOCFRAME XSTACK, 11, STACK
        LOCFRAME IOVERLAY, 0, STATIC
        LOCFRAME DOVERLAY, 0, STATIC
        ARGFRAME ISTACK, 0, STACK
        ARGFRAME PSTACK, 0, STACK
        ARGFRAME XSTACK, 11, STACK
        ARGFRAME IOVERLAY, 0, STATIC
        ARGFRAME DOVERLAY, 0, STATIC
        FUNCALL CommonApp_HandleCombineKeys, osal_nv_item_init
        LOCFRAME ISTACK, 0, STACK
        LOCFRAME PSTACK, 0, STACK
        LOCFRAME XSTACK, 13, STACK
        LOCFRAME IOVERLAY, 0, STATIC
        LOCFRAME DOVERLAY, 0, STATIC
        ARGFRAME ISTACK, 0, STACK
        ARGFRAME PSTACK, 0, STACK
        ARGFRAME XSTACK, 13, STACK
        ARGFRAME IOVERLAY, 0, STATIC
        ARGFRAME DOVERLAY, 0, STATIC
        FUNCALL CommonApp_HandleCombineKeys, osal_nv_write
        LOCFRAME ISTACK, 0, STACK
        LOCFRAME PSTACK, 0, STACK
        LOCFRAME XSTACK, 15, STACK
        LOCFRAME IOVERLAY, 0, STATIC
        LOCFRAME DOVERLAY, 0, STATIC
        ARGFRAME ISTACK, 0, STACK
        ARGFRAME PSTACK, 0, STACK
        ARGFRAME XSTACK, 15, STACK
        ARGFRAME IOVERLAY, 0, STATIC
        ARGFRAME DOVERLAY, 0, STATIC
        FUNCALL CommonApp_HandleCombineKeys, zgWriteStartupOptions
        LOCFRAME ISTACK, 0, STACK
        LOCFRAME PSTACK, 0, STACK
        LOCFRAME XSTACK, 11, STACK
        LOCFRAME IOVERLAY, 0, STATIC
        LOCFRAME DOVERLAY, 0, STATIC
        ARGFRAME ISTACK, 0, STACK
        ARGFRAME PSTACK, 0, STACK
        ARGFRAME XSTACK, 11, STACK
        ARGFRAME IOVERLAY, 0, STATIC
        ARGFRAME DOVERLAY, 0, STATIC
        FUNCALL CommonApp_HandleCombineKeys, ZDOInitDevice
        LOCFRAME ISTACK, 0, STACK
        LOCFRAME PSTACK, 0, STACK
        LOCFRAME XSTACK, 11, STACK
        LOCFRAME IOVERLAY, 0, STATIC
        LOCFRAME DOVERLAY, 0, STATIC
        ARGFRAME ISTACK, 0, STACK
        ARGFRAME PSTACK, 0, STACK
        ARGFRAME XSTACK, 11, STACK
        ARGFRAME IOVERLAY, 0, STATIC
        ARGFRAME DOVERLAY, 0, STATIC
        FUNCALL CommonApp_HandleCombineKeys, CommonApp_PermitJoiningRequest
        LOCFRAME ISTACK, 0, STACK
        LOCFRAME PSTACK, 0, STACK
        LOCFRAME XSTACK, 11, STACK
        LOCFRAME IOVERLAY, 0, STATIC
        LOCFRAME DOVERLAY, 0, STATIC
        ARGFRAME ISTACK, 0, STACK
        ARGFRAME PSTACK, 0, STACK
        ARGFRAME XSTACK, 11, STACK
        ARGFRAME IOVERLAY, 0, STATIC
        ARGFRAME DOVERLAY, 0, STATIC
        FUNCALL CommonApp_HandleCombineKeys, CommonApp_PermitJoiningRequest
        LOCFRAME ISTACK, 0, STACK
        LOCFRAME PSTACK, 0, STACK
        LOCFRAME XSTACK, 11, STACK
        LOCFRAME IOVERLAY, 0, STATIC
        LOCFRAME DOVERLAY, 0, STATIC
        ARGFRAME ISTACK, 0, STACK
        ARGFRAME PSTACK, 0, STACK
        ARGFRAME XSTACK, 11, STACK
        ARGFRAME IOVERLAY, 0, STATIC
        ARGFRAME DOVERLAY, 0, STATIC
        MOV     A,#-0xa
        LCALL   ?BANKED_ENTER_XDATA
        CFI DPH0 load(1, XDATA, add(CFA_XSP16, literal(-1)))
        CFI DPL0 load(1, XDATA, add(CFA_XSP16, literal(-2)))
        CFI ?BRET_EXT load(1, XDATA, add(CFA_XSP16, literal(-3)))
        CFI ?RET_HIGH load(1, XDATA, add(CFA_XSP16, literal(-4)))
        CFI ?RET_LOW load(1, XDATA, add(CFA_XSP16, literal(-5)))
        CFI R7 load(1, XDATA, add(CFA_XSP16, literal(-6)))
        CFI V1 load(1, XDATA, add(CFA_XSP16, literal(-7)))
        CFI V0 load(1, XDATA, add(CFA_XSP16, literal(-8)))
        CFI VB load(1, XDATA, add(CFA_XSP16, literal(-9)))
        CFI R6 load(1, XDATA, add(CFA_XSP16, literal(-10)))
        CFI CFA_SP SP+0
        CFI CFA_XSP16 add(XSP16, 10)
        ; Saved register size: 10
        ; Auto size: 1
        MOV     A,#-0x1
        LCALL   ?ALLOC_XSTACK8
        CFI CFA_XSP16 add(XSP16, 11)
        MOV     A,R1
        MOV     R6,A
//  371   if(keys & HAL_KEY_SW_6)
        MOV     A,R2
        ANL     A,#0x20
        JNZ     $+5
        LJMP    ??CommonApp_HandleCombineKeys_0 & 0xFFFF
//  372   {
//  373   	switch( keyCounts)
        MOV     A,R6
        JZ      ??CommonApp_HandleCombineKeys_1
        ADD     A,#-0x3
        JZ      ??CommonApp_HandleCombineKeys_2
        LJMP    ??CommonApp_HandleCombineKeys_0 & 0xFFFF
//  374   	{
//  375   	case 0:	//长按事件
//  376 #if defined(HOLD_INIT_AUTHENTICATION)
//  377       if(devState != DEV_HOLD)
??CommonApp_HandleCombineKeys_1:
        MOV     DPTR,#devState
        MOVX    A,@DPTR
        JNZ     $+5
        LJMP    ??CommonApp_HandleCombineKeys_0 & 0xFFFF
//  378       {
//  379       	HalLedBlink ( HAL_LED_4, 0, 50, 100 );
        ; Setup parameters for call to function HalLedBlink
        MOV     R4,#0x64
        MOV     R5,#0x0
        MOV     R3,#0x32
        MOV     R2,#0x0
        MOV     R1,#0x8
        LCALL   ??HalLedBlink?relay
//  380       	devStates_t tStates;
//  381 
//  382 #if (DEVICE_TYPE_ID==14) || (DEVICE_TYPE_ID==0xF0)
//  383 		SetThresHold(AIRCONTROL_PM25_THRESMODE_UP, AIRCONTROL_PM25_DEFAULT_TRESHOLD);
//  384 #endif
//  385 		
//  386       	if (ZSUCCESS == osal_nv_item_init( 
//  387                                         ZCD_NV_NWK_HOLD_STARTUP, sizeof(tStates),  &tStates))
        ; Setup parameters for call to function osal_nv_item_init
        MOV     DPL,?XSP + 0
        MOV     DPH,?XSP + 1
        MOV     ?V0 + 0,DPL
        MOV     ?V0 + 1,DPH
        MOV     R0,#?V0 + 0
        LCALL   ?PUSH_XSTACK_I_TWO
        CFI CFA_XSP16 add(XSP16, 13)
        MOV     R4,#0x1
        MOV     R5,#0x0
        MOV     R2,#0x11
        MOV     R3,#0x4
        LCALL   ??osal_nv_item_init?relay
        MOV     A,#0x2
        LCALL   ?DEALLOC_XSTACK8
        CFI CFA_XSP16 add(XSP16, 11)
        MOV     A,R1
        JNZ     ??CommonApp_HandleCombineKeys_3
//  388       	{
//  389           tStates = DEV_HOLD;
        MOV     DPL,?XSP + 0
        MOV     DPH,?XSP + 1
        CLR     A
        MOVX    @DPTR,A
//  390           osal_nv_write(ZCD_NV_NWK_HOLD_STARTUP, 0, sizeof(tStates),  &tStates);
        ; Setup parameters for call to function osal_nv_write
        MOV     R0,#?V0 + 0
        LCALL   ?PUSH_XSTACK_I_TWO
        CFI CFA_XSP16 add(XSP16, 13)
        MOV     ?V0 + 0,#0x1
        MOV     ?V0 + 1,#0x0
        MOV     R0,#?V0 + 0
        LCALL   ?PUSH_XSTACK_I_TWO
        CFI CFA_XSP16 add(XSP16, 15)
        MOV     R4,#0x0
        MOV     R5,#0x0
        MOV     R2,#0x11
        MOV     R3,#0x4
        LCALL   ??osal_nv_write?relay
        MOV     A,#0x4
        LCALL   ?DEALLOC_XSTACK8
        CFI CFA_XSP16 add(XSP16, 11)
//  391       	}
//  392 
//  393       	zgWriteStartupOptions(ZG_STARTUP_SET, ZCD_STARTOPT_DEFAULT_NETWORK_STATE);
??CommonApp_HandleCombineKeys_3:
        ; Setup parameters for call to function zgWriteStartupOptions
        MOV     R2,#0x2
        MOV     R1,#-0x1
        LCALL   ??zgWriteStartupOptions?relay
//  394       	WatchDogEnable( WDTIMX );
        MOV     0xc9,#-0x58
        MOV     0xc9,#0x58
        SJMP    ??CommonApp_HandleCombineKeys_0
//  395       }
//  396 #endif
//  397       break;
//  398 	
//  399     case 3:
//  400       //转发器允许/禁止入网,入网认证
//  401       if(devState == DEV_HOLD)
??CommonApp_HandleCombineKeys_2:
        MOV     DPTR,#devState
        MOVX    A,@DPTR
        JNZ     ??CommonApp_HandleCombineKeys_4
//  402       {
//  403         ZDOInitDevice( 0 );
        ; Setup parameters for call to function ZDOInitDevice
        MOV     R2,#0x0
        MOV     R3,#0x0
        LCALL   ??ZDOInitDevice?relay
        SJMP    ??CommonApp_HandleCombineKeys_0
//  404       }
//  405       else
//  406       {
//  407         if(isPermitJoining)
??CommonApp_HandleCombineKeys_4:
        MOV     DPTR,#isPermitJoining
        MOVX    A,@DPTR
        JZ      ??CommonApp_HandleCombineKeys_5
//  408         {
//  409           CommonApp_PermitJoiningRequest(PERMIT_JOIN_FORBID);
        ; Setup parameters for call to function CommonApp_PermitJoiningRequest
        MOV     R1,#0x0
        SJMP    ??CommonApp_HandleCombineKeys_6
//  410         }
//  411         else
//  412         {
//  413           CommonApp_PermitJoiningRequest(PERMIT_JOIN_TIMEOUT);
??CommonApp_HandleCombineKeys_5:
        ; Setup parameters for call to function CommonApp_PermitJoiningRequest
        MOV     R1,#0x1e
??CommonApp_HandleCombineKeys_6:
        LCALL   ??CommonApp_PermitJoiningRequest?relay
//  414         }
//  415       }
//  416       break;
//  417 
//  418     default: break;
//  419     }
//  420   }
//  421 
//  422 #ifdef KEY_PUSH_PORT_1_BUTTON
//  423   DeviceCtrl_HandlePort1Keys(keys, keyCounts);
//  424 #endif
//  425 }
??CommonApp_HandleCombineKeys_0:
        MOV     A,#0x1
        LCALL   ?DEALLOC_XSTACK8
        CFI CFA_XSP16 add(XSP16, 10)
        LJMP    ?Subroutine1 & 0xFFFF
        CFI EndBlock cfiBlock10
        REQUIRE WDCTL
//  426 #else
//  427 void CommonApp_HandleCombineKeys(uint16 keys, uint8 keyCounts)
//  428 {
//  429   uint8 *keysID = get_keys_id();
//  430   uint8 *keysPush = get_keys_push();
//  431 
//  432   if (keysPush[0] == HAL_KEY_LONG_PUSH)
//  433   {
//  434 	if(keyCounts == 6 &&(osal_memcmp(keysID, "333333", keyCounts)
//  435 		|| osal_memcmp(keysID, "444444", keyCounts)
//  436 		|| osal_memcmp(keysID, "555555", keyCounts)))
//  437     { 
//  438 #if defined(HOLD_INIT_AUTHENTICATION)
//  439       if(devState != DEV_HOLD)
//  440       {
//  441       	HalLedBlink ( HAL_LED_4, 0, 50, 100 );
//  442         devStates_t tStates;
//  443         if (ZSUCCESS == osal_nv_item_init( 
//  444                   ZCD_NV_NWK_HOLD_STARTUP, sizeof(tStates),  &tStates))
//  445         {
//  446            tStates = DEV_HOLD;
//  447           osal_nv_write(
//  448                 ZCD_NV_NWK_HOLD_STARTUP, 0, sizeof(tStates),  &tStates);
//  449         }
//  450 
//  451         zgWriteStartupOptions(ZG_STARTUP_SET, ZCD_STARTOPT_DEFAULT_NETWORK_STATE);
//  452         WatchDogEnable( WDTIMX );
//  453       }
//  454 #endif
//  455     }
//  456 	else if((keysID[0]=='3' || keysID[0]=='4' || keysID[0]=='5')
//  457 		&& keyCounts == 1)
//  458     {
//  459       //转发器允许/禁止入网,入网认证
//  460       if(devState == DEV_HOLD)
//  461       {
//  462         ZDOInitDevice( 0 );
//  463       }
//  464       else
//  465       {
//  466         if(isPermitJoining)
//  467         {
//  468           CommonApp_PermitJoiningRequest(PERMIT_JOIN_FORBID);
//  469         }
//  470         else
//  471         {
//  472           CommonApp_PermitJoiningRequest(PERMIT_JOIN_TIMEOUT);
//  473         }
//  474       }
//  475     }
//  476   }
//  477   else if (keysPush[0] == HAL_KEY_SHORT_PUSH)
//  478   {
//  479 #ifdef KEY_PUSH_PORT_1_BUTTON
//  480     DeviceCtrl_HandlePort1Keys(keys, keyCounts);
//  481 #endif
//  482   }
//  483 }
//  484 #endif
//  485 
//  486 void EndNodeApp_HeartBeatEvent(void)
//  487 {
//  488 #ifndef RS485_DEV
//  489   CommonApp_HeartBeatCB(NULL, NULL, NULL);
//  490 
//  491   set_user_event(CommonApp_TaskID, HEARTBERAT_EVT, CommonApp_HeartBeatCB, 
//  492   	HEARTBEAT_TIMEOUT, TIMER_LOOP_EXECUTION|TIMER_EVENT_RESIDENTS, NULL);
//  493 #else
//  494   RS485_HeartBeatCB(NULL, NULL, NULL);
//  495 
//  496   set_user_event(CommonApp_TaskID, HEARTBERAT_EVT, RS485_HeartBeatCB, 
//  497   	HEARTBEAT_TIMEOUT, TIMER_LOOP_EXECUTION|TIMER_EVENT_RESIDENTS, NULL);
//  498 #endif
//  499 }
//  500 

        RSEG BANKED_CODE:CODE:NOROOT(0)
//  501 void ConnectorApp_TxHandler(uint8 txBuf[], uint8 txLen)
ConnectorApp_TxHandler:
        CFI Block cfiBlock11 Using cfiCommon0
        CFI Function ConnectorApp_TxHandler
        CODE
//  502 {
        ; Saved register size: 0
        ; Auto size: 0
//  503   
//  504 }
        LJMP    ?BRET
        CFI EndBlock cfiBlock11

        RSEG BANK_RELAYS:CODE:REORDER:NOROOT(0)
??CommonApp_InitConfirm?relay:
        LCALL   ?BDISPATCH
        DATA
        DC24    CommonApp_InitConfirm

        RSEG BANK_RELAYS:CODE:REORDER:NOROOT(0)
??CommonApp_MessageMSGCB?relay:
        LCALL   ?BDISPATCH
        DATA
        DC24    CommonApp_MessageMSGCB

        RSEG BANK_RELAYS:CODE:REORDER:NOROOT(0)
??RS485_Analysis?relay:
        LCALL   ?BDISPATCH
        DATA
        DC24    RS485_Analysis

        RSEG BANK_RELAYS:CODE:REORDER:NOROOT(0)
??CommonApp_ProcessZDOStates?relay:
        LCALL   ?BDISPATCH
        DATA
        DC24    CommonApp_ProcessZDOStates

        RSEG BANK_RELAYS:CODE:REORDER:NOROOT(0)
??CommonApp_HandleCombineKeys?relay:
        LCALL   ?BDISPATCH
        DATA
        DC24    CommonApp_HandleCombineKeys

        RSEG BANK_RELAYS:CODE:REORDER:NOROOT(0)
??ConnectorApp_TxHandler?relay:
        LCALL   ?BDISPATCH
        DATA
        DC24    ConnectorApp_TxHandler

        END
// 
// 672 bytes in segment BANKED_CODE
//  36 bytes in segment BANK_RELAYS
//   1 byte  in segment SFR_AN
//   4 bytes in segment XDATA_Z
// 
// 708 bytes of CODE  memory
//   0 bytes of DATA  memory (+ 1 byte shared)
//   4 bytes of XDATA memory
//
//Errors: none
//Warnings: 1
