###############################################################################
#                                                                             #
# IAR C/C++ Compiler V8.10.1.10194/W32 for 8051         24/Nov/2016  15:08:48 #
# Copyright 2004-2011 IAR Systems AB.                                         #
#                                                                             #
#    Core               =  plain                                              #
#    Code model         =  banked                                             #
#    Data model         =  large                                              #
#    Calling convention =  xdata reentrant                                    #
#    Constant location  =  data_rom                                           #
#    Dptr setup         =  1,16                                               #
#    Source file        =  E:\work\zigbee\ZStack-Smart-2.5.2b\Projects\zstack #
#                          \Applications\SmartApp\Source\Manage\frame-analysi #
#                          s.c                                                #
#    Command line       =  -f E:\work\zigbee\ZStack-Smart-2.5.2b\Projects\zst #
#                          ack\Applications\SmartApp\CC2530DB\Devices\..\..\. #
#                          .\..\Tools\CC2530DB\f8wEndev.cfg (-DCPU32MHZ       #
#                          -DROOT=__near_func -DMAC_CFG_TX_DATA_MAX=3         #
#                          -DMAC_CFG_TX_MAX=6 -DMAC_CFG_RX_MAX=3              #
#                          -DSSA_ENDNODE) -f E:\work\zigbee\ZStack-Smart-2.5. #
#                          2b\Projects\zstack\Applications\SmartApp\CC2530DB\ #
#                          Devices\..\..\..\..\Tools\CC2530DB\f8wConfig.cfg   #
#                          (-DZIGBEEPRO -DSECURE=1 -DZG_SECURE_DYNAMIC=1      #
#                          -DREFLECTOR -DDEFAULT_CHANLIST=0x00000800          #
#                          -DZDAPP_CONFIG_PAN_ID=0xFFFF                       #
#                          -DNWK_START_DELAY=100 -DEXTENDED_JOINING_RANDOM_MA #
#                          SK=0x007F -DBEACON_REQUEST_DELAY=100               #
#                          -DBEACON_REQ_DELAY_MASK=0x00FF                     #
#                          -DLINK_STATUS_JITTER_MASK=0x007F                   #
#                          -DROUTE_EXPIRY_TIME=30 -DAPSC_ACK_WAIT_DURATION_PO #
#                          LLED=3000 -DNWK_INDIRECT_MSG_TIMEOUT=7             #
#                          -DMAX_RREQ_ENTRIES=8 -DAPSC_MAX_FRAME_RETRIES=3    #
#                          -DNWK_MAX_DATA_RETRIES=2                           #
#                          -DMAX_POLL_FAILURE_RETRIES=2 -DMAX_BCAST=9         #
#                          -DAPS_MAX_GROUPS=16 -DMAX_RTG_ENTRIES=40           #
#                          -DNWK_MAX_BINDING_ENTRIES=4                        #
#                          -DMAX_BINDING_CLUSTER_IDS=4 "-DDEFAULT_KEY={0x01,  #
#                          0x03, 0x05, 0x07, 0x09, 0x0B, 0x0D, 0x0F, 0x00,    #
#                          0x02, 0x04, 0x06, 0x08, 0x0A, 0x0C, 0x0D}"         #
#                          -DMAC_MAX_FRAME_SIZE=116                           #
#                          -DZDNWKMGR_MIN_TRANSMISSIONS=20 "-DCONST=const     #
#                          __code" -DGENERIC=__generic                        #
#                          -DRFD_RCVC_ALWAYS_ON=FALSE -DPOLL_RATE=600         #
#                          -DQUEUED_POLL_RATE=100 -DRESPONSE_POLL_RATE=100)   #
#                          -DREJOIN_POLL_RATE=440 E:\work\zigbee\ZStack-Smart #
#                          -2.5.2b\Projects\zstack\Applications\SmartApp\Sour #
#                          ce\Manage\frame-analysis.c -D SECURE=1 -D          #
#                          ZTOOL_P1 -D DEVICE_TYPE_ID=0xFE -D                 #
#                          SIGNAL_AMPLIFIER_SETTING -D xNWK_AUTO_POLL -D      #
#                          xHAL_UART_DMA=2 -D xHAL_UART_DMA_ALT1 -D           #
#                          xJIAJU_BUILDIN -D MT_TASK -D MT_SYS_FUNC -D        #
#                          MT_ZDO_FUNC -D NV_INIT -D NV_RESTORE -lC           #
#                          E:\work\zigbee\ZStack-Smart-2.5.2b\Projects\zstack #
#                          \Applications\SmartApp\CC2530DB\bin\DemoBaseZD\Lis #
#                          t\ -lA E:\work\zigbee\ZStack-Smart-2.5.2b\Projects #
#                          \zstack\Applications\SmartApp\CC2530DB\bin\DemoBas #
#                          eZD\List\ --diag_suppress Pe001,Pa010 -o           #
#                          E:\work\zigbee\ZStack-Smart-2.5.2b\Projects\zstack #
#                          \Applications\SmartApp\CC2530DB\bin\DemoBaseZD\Obj #
#                          \ -e --debug --core=plain --dptr=16,1              #
#                          --data_model=large --code_model=banked             #
#                          --calling_convention=xdata_reentrant               #
#                          --place_constants=data_rom --nr_virtual_regs 16    #
#                          -I E:\work\zigbee\ZStack-Smart-2.5.2b\Projects\zst #
#                          ack\Applications\SmartApp\CC2530DB\Devices\ -I     #
#                          E:\work\zigbee\ZStack-Smart-2.5.2b\Projects\zstack #
#                          \Applications\SmartApp\CC2530DB\Devices\..\..\Sour #
#                          ce\Common\ -I E:\work\zigbee\ZStack-Smart-2.5.2b\P #
#                          rojects\zstack\Applications\SmartApp\CC2530DB\Devi #
#                          ces\..\..\Source\Connector\ -I                     #
#                          E:\work\zigbee\ZStack-Smart-2.5.2b\Projects\zstack #
#                          \Applications\SmartApp\CC2530DB\Devices\..\..\Sour #
#                          ce\\EndNode\ -I E:\work\zigbee\ZStack-Smart-2.5.2b #
#                          \Projects\zstack\Applications\SmartApp\CC2530DB\De #
#                          vices\..\..\Source\Board\ -I                       #
#                          E:\work\zigbee\ZStack-Smart-2.5.2b\Projects\zstack #
#                          \Applications\SmartApp\CC2530DB\Devices\..\..\Sour #
#                          ce\Manage\ -I E:\work\zigbee\ZStack-Smart-2.5.2b\P #
#                          rojects\zstack\Applications\SmartApp\CC2530DB\Devi #
#                          ces\..\..\Source\Manage\Callbacks\ -I              #
#                          E:\work\zigbee\ZStack-Smart-2.5.2b\Projects\zstack #
#                          \Applications\SmartApp\CC2530DB\Devices\..\..\Sour #
#                          ce\Manage\debug\ -I E:\work\zigbee\ZStack-Smart-2. #
#                          5.2b\Projects\zstack\Applications\SmartApp\CC2530D #
#                          B\Devices\..\..\Source\Manage\HeartBeat\ -I        #
#                          E:\work\zigbee\ZStack-Smart-2.5.2b\Projects\zstack #
#                          \Applications\SmartApp\CC2530DB\Devices\..\..\Sour #
#                          ce\Manage\incode\ -I E:\work\zigbee\ZStack-Smart-2 #
#                          .5.2b\Projects\zstack\Applications\SmartApp\CC2530 #
#                          DB\Devices\..\..\..\..\ZMain\TI2530DB\ -I          #
#                          E:\work\zigbee\ZStack-Smart-2.5.2b\Projects\zstack #
#                          \Applications\SmartApp\CC2530DB\Devices\..\..\..\. #
#                          .\..\..\Components\hal\include\ -I                 #
#                          E:\work\zigbee\ZStack-Smart-2.5.2b\Projects\zstack #
#                          \Applications\SmartApp\CC2530DB\Devices\..\..\..\. #
#                          .\..\..\Components\hal\target\CC2530EB\ -I         #
#                          E:\work\zigbee\ZStack-Smart-2.5.2b\Projects\zstack #
#                          \Applications\SmartApp\CC2530DB\Devices\..\..\..\. #
#                          .\..\..\Components\mac\include\ -I                 #
#                          E:\work\zigbee\ZStack-Smart-2.5.2b\Projects\zstack #
#                          \Applications\SmartApp\CC2530DB\Devices\..\..\..\. #
#                          .\..\..\Components\mac\high_level\ -I              #
#                          E:\work\zigbee\ZStack-Smart-2.5.2b\Projects\zstack #
#                          \Applications\SmartApp\CC2530DB\Devices\..\..\..\. #
#                          .\..\..\Components\mac\low_level\srf04\ -I         #
#                          E:\work\zigbee\ZStack-Smart-2.5.2b\Projects\zstack #
#                          \Applications\SmartApp\CC2530DB\Devices\..\..\..\. #
#                          .\..\..\Components\mac\low_level\srf04\single_chip #
#                          \ -I E:\work\zigbee\ZStack-Smart-2.5.2b\Projects\z #
#                          stack\Applications\SmartApp\CC2530DB\Devices\..\.. #
#                          \..\..\..\..\Components\mt\ -I                     #
#                          E:\work\zigbee\ZStack-Smart-2.5.2b\Projects\zstack #
#                          \Applications\SmartApp\CC2530DB\Devices\..\..\..\. #
#                          .\..\..\Components\osal\include\ -I                #
#                          E:\work\zigbee\ZStack-Smart-2.5.2b\Projects\zstack #
#                          \Applications\SmartApp\CC2530DB\Devices\..\..\..\. #
#                          .\..\..\Components\services\saddr\ -I              #
#                          E:\work\zigbee\ZStack-Smart-2.5.2b\Projects\zstack #
#                          \Applications\SmartApp\CC2530DB\Devices\..\..\..\. #
#                          .\..\..\Components\services\sdata\ -I              #
#                          E:\work\zigbee\ZStack-Smart-2.5.2b\Projects\zstack #
#                          \Applications\SmartApp\CC2530DB\Devices\..\..\..\. #
#                          .\..\..\Components\stack\af\ -I                    #
#                          E:\work\zigbee\ZStack-Smart-2.5.2b\Projects\zstack #
#                          \Applications\SmartApp\CC2530DB\Devices\..\..\..\. #
#                          .\..\..\Components\stack\nwk\ -I                   #
#                          E:\work\zigbee\ZStack-Smart-2.5.2b\Projects\zstack #
#                          \Applications\SmartApp\CC2530DB\Devices\..\..\..\. #
#                          .\..\..\Components\stack\sapi\ -I                  #
#                          E:\work\zigbee\ZStack-Smart-2.5.2b\Projects\zstack #
#                          \Applications\SmartApp\CC2530DB\Devices\..\..\..\. #
#                          .\..\..\Components\stack\sec\ -I                   #
#                          E:\work\zigbee\ZStack-Smart-2.5.2b\Projects\zstack #
#                          \Applications\SmartApp\CC2530DB\Devices\..\..\..\. #
#                          .\..\..\Components\stack\sys\ -I                   #
#                          E:\work\zigbee\ZStack-Smart-2.5.2b\Projects\zstack #
#                          \Applications\SmartApp\CC2530DB\Devices\..\..\..\. #
#                          .\..\..\Components\stack\zdo\ -I                   #
#                          E:\work\zigbee\ZStack-Smart-2.5.2b\Projects\zstack #
#                          \Applications\SmartApp\CC2530DB\Devices\..\..\..\. #
#                          .\..\..\Components\zmac\ -I                        #
#                          E:\work\zigbee\ZStack-Smart-2.5.2b\Projects\zstack #
#                          \Applications\SmartApp\CC2530DB\Devices\..\..\..\. #
#                          .\..\..\Components\zmac\f8w\ -Oh                   #
#                          --require_prototypes                               #
#    List file          =  E:\work\zigbee\ZStack-Smart-2.5.2b\Projects\zstack #
#                          \Applications\SmartApp\CC2530DB\bin\DemoBaseZD\Lis #
#                          t\frame-analysis.lst                               #
#    Object file        =  E:\work\zigbee\ZStack-Smart-2.5.2b\Projects\zstack #
#                          \Applications\SmartApp\CC2530DB\bin\DemoBaseZD\Obj #
#                          \frame-analysis.r51                                #
#                                                                             #
#                                                                             #
###############################################################################

E:\work\zigbee\ZStack-Smart-2.5.2b\Projects\zstack\Applications\SmartApp\Source\Manage\frame-analysis.c
      1          
      2          /**************************************************************************************************
      3            Filename:       frame-analysis.c
      4            Revised:        $Date: 2014-04-25 17:16:57 -0800 (Wed, 25 Apr 2014) $
      5            Revision:       $Revision: 29217 $
      6          
      7            Description:    Analysis frame format.
      8          **************************************************************************************************/
      9          
     10          /**************************************************************************************************
     11          Modify by Sam_Chen
     12          Date:2015-07-31
     13          **************************************************************************************************/
     14          
     15          
     16          /*********************************************************************
     17           * INCLUDES
     18           */
     19          #include "serial-comm.h"
     20          #include "frame-analysis.h"
     21          
     22          #include "hal_adc.h"
     23          #include "hal_led.h"
     24          #include "hal_timer.h"
     25          #include "OSAL_Nv.h"
     26          #include "sht10.h"
     27          #include "bh1750.h"
     28          #include "list.h"
     29          #include "CommonApp.h"
     30          
     31          /*********************************************************************
     32           * MACROS
     33           */
     34          
     35          /*********************************************************************
     36           * CONSTANTS
     37           */
     38          
     39          /*********************************************************************
     40           * TYPEDEFS
     41           */
     42          
     43          /*********************************************************************
     44           * GLOBAL VARIABLES
     45           */  

   \                                 In  segment XDATA_Z, align 1, keep-with-next
     46          static UC_t ucFrame;
   \                     ucFrame:
   \   000000                DS 41
   \   000029                REQUIRE __INIT_XDATA_Z

   \                                 In  segment XDATA_Z, align 1, keep-with-next
     47          static UO_t uoFrame;
   \                     uoFrame:
   \   000000                DS 33
   \   000021                REQUIRE __INIT_XDATA_Z

   \                                 In  segment XDATA_Z, align 1, keep-with-next
     48          static UH_t uhFrame;
   \                     uhFrame:
   \   000000                DS 11
   \   00000B                REQUIRE __INIT_XDATA_Z

   \                                 In  segment XDATA_Z, align 1, keep-with-next
     49          static UR_t urFrame;
   \                     urFrame:
   \   000000                DS 17
   \   000011                REQUIRE __INIT_XDATA_Z

   \                                 In  segment XDATA_Z, align 1, keep-with-next
     50          static DE_t deFrame;
   \                     deFrame:
   \   000000                DS 17
   \   000011                REQUIRE __INIT_XDATA_Z
     51          

   \                                 In  segment XDATA_Z, align 1, keep-with-next
     52          static uint8 pFrameBuffer[FRAME_BUFFER_SIZE] = {0};
   \                     pFrameBuffer:
   \   000000                DS 256
   \   000100                REQUIRE __INIT_XDATA_Z

   \                                 In  segment XDATA_Z, align 1, keep-with-next
     53          static uint8 pFrameLen = 0;
   \                     pFrameLen:
   \   000000                DS 1
   \   000001                REQUIRE __INIT_XDATA_Z
     54          

   \                                 In  segment XDATA_Z, align 1, keep-with-next
     55          static uint8 aDataBuffer[FRAME_DATA_SIZE] = {0};
   \                     aDataBuffer:
   \   000000                DS 128
   \   000080                REQUIRE __INIT_XDATA_Z

   \                                 In  segment XDATA_Z, align 1, keep-with-next
     56          static uint8 aDataLen = 0;
   \                     aDataLen:
   \   000000                DS 1
   \   000001                REQUIRE __INIT_XDATA_Z
     57          

   \                                 In  segment XDATA_ROM_C, align 1
     58          const uint8 f_tail[4] = {0x3A, 0x4F, 0x0D, 0x0A}; 
   \                     f_tail:
   \   000000   3A           DB 58
   \   000001   4F           DB 79
   \   000002   0D           DB 13
   \   000003   0A           DB 10
     59          

   \                                 In  segment XDATA_Z, align 1, keep-with-next
     60          uint8 Address_dev;//设备地址
   \                     Address_dev:
   \   000000                DS 1
   \   000001                REQUIRE __INIT_XDATA_Z

   \                                 In  segment XDATA_Z, align 1, keep-with-next
     61          uint8 Device_state[4];//开关状态
   \                     Device_state:
   \   000000                DS 4
   \   000004                REQUIRE __INIT_XDATA_Z
     62          /*********************************************************************
     63           * EXTERNAL VARIABLES
     64           */
     65          
     66          /*********************************************************************
     67           * EXTERNAL FUNCTIONS
     68           */
     69          
     70          /*********************************************************************
     71           * LOCAL VARIABLES
     72           */
     73          
     74          /*********************************************************************
     75           * FUNCTION DECLARATION
     76           */
     77          
     78          /*********************************************************************
     79           * NETWORK LAYER CALLBACKS
     80           */
     81          
     82          /*********************************************************************
     83           * PUBLIC FUNCTIONS
     84           */
     85          
     86          /*********************************************************************
     87           * @fn      SSAFrame_Analysis()
     88           *
     89           * @brief   analysis frame
     90           *
     91           * @param none
     92           *
     93           * @return  none
     94           */

   \                                 In  segment BANKED_CODE, align 1, keep-with-next
     95          void *SSAFrame_Analysis(frHeadType_t hType, uint8 SrcBuf[], uint8 SrcLen)
   \                     SSAFrame_Analysis:
     96          { 
   \   000000   74F0         MOV     A,#-0x10
   \   000002   12....       LCALL   ?BANKED_ENTER_XDATA
   \   000005                ; Saved register size: 16
   \   000005                ; Auto size: 0
   \   000005   EA           MOV     A,R2
   \   000006   FE           MOV     R6,A
   \   000007   EB           MOV     A,R3
   \   000008   FF           MOV     R7,A
   \   000009   8C..         MOV     ?V0 + 2,R4
     97           	switch(hType)
   \   00000B   E9           MOV     A,R1
   \   00000C   601B         JZ      ??SSAFrame_Analysis_0
   \   00000E   14           DEC     A
   \   00000F   7003         JNZ     $+5
   \   000011   02....       LJMP    ??SSAFrame_Analysis_1 & 0xFFFF
   \   000014   14           DEC     A
   \   000015   7003         JNZ     $+5
   \   000017   02....       LJMP    ??SSAFrame_Analysis_2 & 0xFFFF
   \   00001A   14           DEC     A
   \   00001B   7003         JNZ     $+5
   \   00001D   02....       LJMP    ??SSAFrame_Analysis_3 & 0xFFFF
   \   000020   14           DEC     A
   \   000021   7003         JNZ     $+5
   \   000023   02....       LJMP    ??SSAFrame_Analysis_4 & 0xFFFF
   \   000026   02....       LJMP    ??SSAFrame_Analysis_5 & 0xFFFF
     98          	{
     99          	case HEAD_UC: 
    100          		if(SrcLen>=FR_UC_DATA_FIX_LEN && !memcmp(SrcBuf, FR_HEAD_UC, 3)
    101          			&& SrcBuf[3] == FR_DEV_COORD && !memcmp(SrcBuf+34, f_tail, 4))
   \                     ??SSAFrame_Analysis_0:
   \   000029   EC           MOV     A,R4
   \   00002A   C3           CLR     C
   \   00002B   9426         SUBB    A,#0x26
   \   00002D   5003         JNC     $+5
   \   00002F   02....       LJMP    ??SSAFrame_Analysis_5 & 0xFFFF
   \   000032                ; Setup parameters for call to function memcmp
   \   000032   75..03       MOV     ?V0 + 0,#0x3
   \   000035   75..00       MOV     ?V0 + 1,#0x0
   \   000038   78..         MOV     R0,#?V0 + 0
   \   00003A   12....       LCALL   ?PUSH_XSTACK_I_TWO
   \   00003D   7C..         MOV     R4,#`?<Constant "UC:">` & 0xff
   \   00003F   7D..         MOV     R5,#(`?<Constant "UC:">` >> 8) & 0xff
   \   000041   12....       LCALL   ??Subroutine32_0 & 0xFFFF
   \                     ??CrossCallReturnLabel_66:
   \   000044   12....       LCALL   ?DEALLOC_XSTACK8
   \   000047   8B..         MOV     ?V0 + 1,R3
   \   000049   EA           MOV     A,R2
   \   00004A   45..         ORL     A,?V0 + 1
   \   00004C   6003         JZ      $+5
   \   00004E   02....       LJMP    ??SSAFrame_Analysis_5 & 0xFFFF
   \   000051   EE           MOV     A,R6
   \   000052   2403         ADD     A,#0x3
   \   000054   12....       LCALL   ?Subroutine27 & 0xFFFF
   \                     ??CrossCallReturnLabel_51:
   \   000057   6430         XRL     A,#0x30
   \   000059   6003         JZ      $+5
   \   00005B   02....       LJMP    ??SSAFrame_Analysis_5 & 0xFFFF
   \   00005E   EE           MOV     A,R6
   \   00005F   2422         ADD     A,#0x22
   \   000061   F5..         MOV     ?V0 + 4,A
   \   000063   EF           MOV     A,R7
   \   000064   3400         ADDC    A,#0x0
   \   000066   F5..         MOV     ?V0 + 5,A
   \   000068                ; Setup parameters for call to function memcmp
   \   000068   75..04       MOV     ?V0 + 6,#0x4
   \   00006B   75..00       MOV     ?V0 + 7,#0x0
   \   00006E   78..         MOV     R0,#?V0 + 6
   \   000070   12....       LCALL   ?PUSH_XSTACK_I_TWO
   \   000073   12....       LCALL   ?Subroutine6 & 0xFFFF
   \                     ??CrossCallReturnLabel_62:
   \   000076   12....       LCALL   ?DEALLOC_XSTACK8
   \   000079   8B..         MOV     ?V0 + 7,R3
   \   00007B   EA           MOV     A,R2
   \   00007C   45..         ORL     A,?V0 + 7
   \   00007E   6003         JZ      $+5
   \   000080   02....       LJMP    ??SSAFrame_Analysis_5 & 0xFFFF
    102          		{
    103          			memcpy(ucFrame.head, SrcBuf, 3);
   \   000083                ; Setup parameters for call to function memcpy
   \   000083   75..03       MOV     ?V0 + 6,#0x3
   \   000086   75..00       MOV     ?V0 + 7,#0x0
   \   000089   78..         MOV     R0,#?V0 + 6
   \   00008B   12....       LCALL   ?PUSH_XSTACK_I_TWO
   \   00008E   EE           MOV     A,R6
   \   00008F   FC           MOV     R4,A
   \   000090   EF           MOV     A,R7
   \   000091   FD           MOV     R5,A
   \   000092   7A..         MOV     R2,#ucFrame & 0xff
   \   000094   7B..         MOV     R3,#(ucFrame >> 8) & 0xff
   \   000096   12....       LCALL   ??Subroutine34_0 & 0xFFFF
   \                     ??CrossCallReturnLabel_85:
   \   000099   12....       LCALL   ?DEALLOC_XSTACK8
    104          			ucFrame.type = SrcBuf[3];
   \   00009C   85..82       MOV     DPL,?V0 + 0
   \   00009F   85..83       MOV     DPH,?V0 + 1
   \   0000A2   E0           MOVX    A,@DPTR
   \   0000A3   90....       MOV     DPTR,#ucFrame + 3
   \   0000A6   F0           MOVX    @DPTR,A
    105          			memcpy(ucFrame.ed_type, SrcBuf+4, 2);
   \   0000A7                ; Setup parameters for call to function memcpy
   \   0000A7   75..02       MOV     ?V0 + 0,#0x2
   \   0000AA   75..00       MOV     ?V0 + 1,#0x0
   \   0000AD   78..         MOV     R0,#?V0 + 0
   \   0000AF   12....       LCALL   ?PUSH_XSTACK_I_TWO
   \   0000B2   12....       LCALL   ?Subroutine21 & 0xFFFF
   \                     ??CrossCallReturnLabel_42:
   \   0000B5   7A..         MOV     R2,#(ucFrame + 4) & 0xff
   \   0000B7   7B..         MOV     R3,#((ucFrame + 4) >> 8) & 0xff
   \   0000B9   12....       LCALL   ??Subroutine34_0 & 0xFFFF
   \                     ??CrossCallReturnLabel_86:
   \   0000BC   12....       LCALL   ?DEALLOC_XSTACK8
    106          			memcpy(ucFrame.short_addr, SrcBuf+6, 4);
   \   0000BF                ; Setup parameters for call to function memcpy
   \   0000BF   75..04       MOV     ?V0 + 0,#0x4
   \   0000C2   78..         MOV     R0,#?V0 + 0
   \   0000C4   12....       LCALL   ?PUSH_XSTACK_I_TWO
   \   0000C7   12....       LCALL   ?Subroutine19 & 0xFFFF
   \                     ??CrossCallReturnLabel_36:
   \   0000CA   7A..         MOV     R2,#(ucFrame + 6) & 0xff
   \   0000CC   7B..         MOV     R3,#((ucFrame + 6) >> 8) & 0xff
   \   0000CE   12....       LCALL   ??Subroutine34_0 & 0xFFFF
   \                     ??CrossCallReturnLabel_87:
   \   0000D1   12....       LCALL   ?DEALLOC_XSTACK8
    107          			memcpy(ucFrame.ext_addr, SrcBuf+10, 16);
   \   0000D4                ; Setup parameters for call to function memcpy
   \   0000D4   75..10       MOV     ?V0 + 0,#0x10
   \   0000D7   78..         MOV     R0,#?V0 + 0
   \   0000D9   12....       LCALL   ?PUSH_XSTACK_I_TWO
   \   0000DC   12....       LCALL   ?Subroutine29 & 0xFFFF
   \                     ??CrossCallReturnLabel_53:
   \   0000DF   7A..         MOV     R2,#(ucFrame + 10) & 0xff
   \   0000E1   7B..         MOV     R3,#((ucFrame + 10) >> 8) & 0xff
   \   0000E3   12....       LCALL   ??Subroutine34_0 & 0xFFFF
   \                     ??CrossCallReturnLabel_88:
   \   0000E6   12....       LCALL   ?DEALLOC_XSTACK8
    108          			memcpy(ucFrame.panid, SrcBuf+26, 4);
   \   0000E9                ; Setup parameters for call to function memcpy
   \   0000E9   75..04       MOV     ?V0 + 0,#0x4
   \   0000EC   78..         MOV     R0,#?V0 + 0
   \   0000EE   12....       LCALL   ?PUSH_XSTACK_I_TWO
   \   0000F1   EE           MOV     A,R6
   \   0000F2   241A         ADD     A,#0x1a
   \   0000F4   FC           MOV     R4,A
   \   0000F5   EF           MOV     A,R7
   \   0000F6   3400         ADDC    A,#0x0
   \   0000F8   FD           MOV     R5,A
   \   0000F9   7A..         MOV     R2,#(ucFrame + 26) & 0xff
   \   0000FB   7B..         MOV     R3,#((ucFrame + 26) >> 8) & 0xff
   \   0000FD   12....       LCALL   ??Subroutine34_0 & 0xFFFF
   \                     ??CrossCallReturnLabel_89:
   \   000100   12....       LCALL   ?DEALLOC_XSTACK8
    109          			memcpy(ucFrame.channel, SrcBuf+30, 4);
   \   000103                ; Setup parameters for call to function memcpy
   \   000103   78..         MOV     R0,#?V0 + 0
   \   000105   12....       LCALL   ?PUSH_XSTACK_I_TWO
   \   000108   EE           MOV     A,R6
   \   000109   241E         ADD     A,#0x1e
   \   00010B   FC           MOV     R4,A
   \   00010C   EF           MOV     A,R7
   \   00010D   3400         ADDC    A,#0x0
   \   00010F   FD           MOV     R5,A
   \   000110   7A..         MOV     R2,#(ucFrame + 30) & 0xff
   \   000112   7B..         MOV     R3,#((ucFrame + 30) >> 8) & 0xff
   \   000114   12....       LCALL   ??Subroutine34_0 & 0xFFFF
   \                     ??CrossCallReturnLabel_90:
   \   000117   12....       LCALL   ?DEALLOC_XSTACK8
    110          			memcpy(ucFrame.tail, SrcBuf+34, 4);
   \   00011A                ; Setup parameters for call to function memcpy
   \   00011A   78..         MOV     R0,#?V0 + 0
   \   00011C   12....       LCALL   ?PUSH_XSTACK_I_TWO
   \   00011F   AC..         MOV     R4,?V0 + 4
   \   000121   AD..         MOV     R5,?V0 + 5
   \   000123   7A..         MOV     R2,#(ucFrame + 37) & 0xff
   \   000125   7B..         MOV     R3,#((ucFrame + 37) >> 8) & 0xff
   \   000127   12....       LCALL   ??Subroutine34_0 & 0xFFFF
   \                     ??CrossCallReturnLabel_91:
   \   00012A   12....       LCALL   ?DEALLOC_XSTACK8
    111          
    112          			return (void *)&ucFrame;
   \   00012D   7A..         MOV     R2,#ucFrame & 0xff
   \   00012F   7B..         MOV     R3,#(ucFrame >> 8) & 0xff
   \   000131   02....       LJMP    ??SSAFrame_Analysis_6 & 0xFFFF
    113          		}
    114          		else { goto  FR_Analysis_err;}
    115          		
    116          	case HEAD_UO: 
    117          		if(SrcLen>=FR_UO_DATA_FIX_LEN && !memcmp(SrcBuf, FR_HEAD_UO, 3)
    118          			&& !memcmp(SrcBuf+SrcLen-4, f_tail, 4))
   \                     ??SSAFrame_Analysis_1:
   \   000134   EC           MOV     A,R4
   \   000135   C3           CLR     C
   \   000136   941E         SUBB    A,#0x1e
   \   000138   5003         JNC     $+5
   \   00013A   02....       LJMP    ??SSAFrame_Analysis_5 & 0xFFFF
   \   00013D                ; Setup parameters for call to function memcmp
   \   00013D   75..03       MOV     ?V0 + 0,#0x3
   \   000140   75..00       MOV     ?V0 + 1,#0x0
   \   000143   78..         MOV     R0,#?V0 + 0
   \   000145   12....       LCALL   ?PUSH_XSTACK_I_TWO
   \   000148   7C..         MOV     R4,#`?<Constant "UO:">` & 0xff
   \   00014A   7D..         MOV     R5,#(`?<Constant "UO:">` >> 8) & 0xff
   \   00014C   12....       LCALL   ??Subroutine32_0 & 0xFFFF
   \                     ??CrossCallReturnLabel_67:
   \   00014F   12....       LCALL   ?DEALLOC_XSTACK8
   \   000152   8B..         MOV     ?V0 + 1,R3
   \   000154   EA           MOV     A,R2
   \   000155   45..         ORL     A,?V0 + 1
   \   000157   6003         JZ      $+5
   \   000159   02....       LJMP    ??SSAFrame_Analysis_5 & 0xFFFF
   \   00015C   12....       LCALL   ?Subroutine4 & 0xFFFF
   \                     ??CrossCallReturnLabel_0:
   \   00015F   12....       LCALL   ?PUSH_XSTACK_I_TWO
   \   000162   12....       LCALL   ?Subroutine6 & 0xFFFF
   \                     ??CrossCallReturnLabel_63:
   \   000165   12....       LCALL   ?DEALLOC_XSTACK8
   \   000168   8B..         MOV     ?V0 + 7,R3
   \   00016A   EA           MOV     A,R2
   \   00016B   45..         ORL     A,?V0 + 7
   \   00016D   6003         JZ      $+5
   \   00016F   02....       LJMP    ??SSAFrame_Analysis_5 & 0xFFFF
    119          		{
    120          			memcpy(uoFrame.head, SrcBuf, 3);
   \   000172                ; Setup parameters for call to function memcpy
   \   000172   75..03       MOV     ?V0 + 6,#0x3
   \   000175   75..00       MOV     ?V0 + 7,#0x0
   \   000178   78..         MOV     R0,#?V0 + 6
   \   00017A   12....       LCALL   ?PUSH_XSTACK_I_TWO
   \   00017D   EE           MOV     A,R6
   \   00017E   FC           MOV     R4,A
   \   00017F   EF           MOV     A,R7
   \   000180   FD           MOV     R5,A
   \   000181   7A..         MOV     R2,#uoFrame & 0xff
   \   000183   7B..         MOV     R3,#(uoFrame >> 8) & 0xff
   \   000185   12....       LCALL   ??Subroutine34_0 & 0xFFFF
   \                     ??CrossCallReturnLabel_92:
   \   000188   12....       LCALL   ?DEALLOC_XSTACK8
    121          			uoFrame.type = SrcBuf[3];
   \   00018B   8E82         MOV     DPL,R6
   \   00018D   8F83         MOV     DPH,R7
   \   00018F   A3           INC     DPTR
   \   000190   A3           INC     DPTR
   \   000191   A3           INC     DPTR
   \   000192   E0           MOVX    A,@DPTR
   \   000193   90....       MOV     DPTR,#uoFrame + 3
   \   000196   F0           MOVX    @DPTR,A
    122          			memcpy(uoFrame.ed_type, SrcBuf+4, 2);
   \   000197                ; Setup parameters for call to function memcpy
   \   000197   75..02       MOV     ?V0 + 6,#0x2
   \   00019A   78..         MOV     R0,#?V0 + 6
   \   00019C   12....       LCALL   ?PUSH_XSTACK_I_TWO
   \   00019F   12....       LCALL   ?Subroutine21 & 0xFFFF
   \                     ??CrossCallReturnLabel_43:
   \   0001A2   7A..         MOV     R2,#(uoFrame + 4) & 0xff
   \   0001A4   7B..         MOV     R3,#((uoFrame + 4) >> 8) & 0xff
   \   0001A6   12....       LCALL   ??Subroutine34_0 & 0xFFFF
   \                     ??CrossCallReturnLabel_93:
   \   0001A9   12....       LCALL   ?DEALLOC_XSTACK8
    123          			memcpy(uoFrame.short_addr, SrcBuf+6, 4);
   \   0001AC                ; Setup parameters for call to function memcpy
   \   0001AC   75..04       MOV     ?V0 + 6,#0x4
   \   0001AF   78..         MOV     R0,#?V0 + 6
   \   0001B1   12....       LCALL   ?PUSH_XSTACK_I_TWO
   \   0001B4   12....       LCALL   ?Subroutine19 & 0xFFFF
   \                     ??CrossCallReturnLabel_37:
   \   0001B7   7A..         MOV     R2,#(uoFrame + 6) & 0xff
   \   0001B9   7B..         MOV     R3,#((uoFrame + 6) >> 8) & 0xff
   \   0001BB   12....       LCALL   ??Subroutine34_0 & 0xFFFF
   \                     ??CrossCallReturnLabel_94:
   \   0001BE   12....       LCALL   ?DEALLOC_XSTACK8
    124          			memcpy(uoFrame.ext_addr, SrcBuf+10, 16);
   \   0001C1                ; Setup parameters for call to function memcpy
   \   0001C1   75..10       MOV     ?V0 + 6,#0x10
   \   0001C4   78..         MOV     R0,#?V0 + 6
   \   0001C6   12....       LCALL   ?PUSH_XSTACK_I_TWO
   \   0001C9   12....       LCALL   ?Subroutine29 & 0xFFFF
   \                     ??CrossCallReturnLabel_54:
   \   0001CC   7A..         MOV     R2,#(uoFrame + 10) & 0xff
   \   0001CE   7B..         MOV     R3,#((uoFrame + 10) >> 8) & 0xff
   \   0001D0   12....       LCALL   ??Subroutine34_0 & 0xFFFF
   \                     ??CrossCallReturnLabel_95:
   \   0001D3   12....       LCALL   ?DEALLOC_XSTACK8
    125          			
    126          			memset(aDataBuffer, 0, sizeof(aDataBuffer));
   \   0001D6                ; Setup parameters for call to function memset
   \   0001D6   75..80       MOV     ?V0 + 6,#-0x80
   \   0001D9   78..         MOV     R0,#?V0 + 6
   \   0001DB   12....       LCALL   ?PUSH_XSTACK_I_TWO
   \   0001DE   7C00         MOV     R4,#0x0
   \   0001E0   7D00         MOV     R5,#0x0
   \   0001E2   7A..         MOV     R2,#aDataBuffer & 0xff
   \   0001E4   7B..         MOV     R3,#(aDataBuffer >> 8) & 0xff
   \   0001E6   12....       LCALL   ??Subroutine33_0 & 0xFFFF
   \                     ??CrossCallReturnLabel_77:
   \   0001E9   12....       LCALL   ?DEALLOC_XSTACK8
    127          			memcpy(aDataBuffer, SrcBuf+26, SrcLen-FR_UO_DATA_FIX_LEN);
   \   0001EC                ; Setup parameters for call to function memcpy
   \   0001EC   E5..         MOV     A,?V0 + 0
   \   0001EE   24E2         ADD     A,#-0x1e
   \   0001F0   F5..         MOV     ?V0 + 0,A
   \   0001F2   E4           CLR     A
   \   0001F3   34FF         ADDC    A,#-0x1
   \   0001F5   F5..         MOV     ?V0 + 1,A
   \   0001F7   78..         MOV     R0,#?V0 + 0
   \   0001F9   12....       LCALL   ?PUSH_XSTACK_I_TWO
   \   0001FC   EE           MOV     A,R6
   \   0001FD   241A         ADD     A,#0x1a
   \   0001FF   12....       LCALL   ??Subroutine31_0 & 0xFFFF
   \                     ??CrossCallReturnLabel_61:
   \   000202   12....       LCALL   ?DEALLOC_XSTACK8
    128          			aDataLen = SrcLen-FR_UO_DATA_FIX_LEN;
   \   000205   74E2         MOV     A,#-0x1e
   \   000207   12....       LCALL   ??Subroutine30_0 & 0xFFFF
    129          			uoFrame.data_len = aDataLen;
   \                     ??CrossCallReturnLabel_56:
   \   00020A   90....       MOV     DPTR,#uoFrame + 26
   \   00020D   12....       LCALL   ?Subroutine18 & 0xFFFF
    130          			uoFrame.data = aDataBuffer;
    131          			
    132          			memcpy(uoFrame.tail, SrcBuf+SrcLen-4, 4);
   \                     ??CrossCallReturnLabel_33:
   \   000210   12....       LCALL   ?PUSH_XSTACK_I_TWO
   \   000213   AC..         MOV     R4,?V0 + 4
   \   000215   AD..         MOV     R5,?V0 + 5
   \   000217   7A..         MOV     R2,#(uoFrame + 29) & 0xff
   \   000219   7B..         MOV     R3,#((uoFrame + 29) >> 8) & 0xff
   \   00021B   12....       LCALL   ??Subroutine34_0 & 0xFFFF
   \                     ??CrossCallReturnLabel_96:
   \   00021E   12....       LCALL   ?DEALLOC_XSTACK8
    133          
    134          			return (void *)&uoFrame;
   \   000221   7A..         MOV     R2,#uoFrame & 0xff
   \   000223   7B..         MOV     R3,#(uoFrame >> 8) & 0xff
   \   000225   02....       LJMP    ??SSAFrame_Analysis_6 & 0xFFFF
    135          		}
    136          		else { goto  FR_Analysis_err;}
    137          		
    138          	case HEAD_UH: 
    139          		if(SrcLen>=FR_UH_DATA_FIX_LEN && !memcmp(SrcBuf, FR_HEAD_UH, 3)
    140          			&& !memcmp(SrcBuf+7, f_tail, 4))
   \                     ??SSAFrame_Analysis_2:
   \   000228   EC           MOV     A,R4
   \   000229   C3           CLR     C
   \   00022A   940B         SUBB    A,#0xb
   \   00022C   5003         JNC     $+5
   \   00022E   02....       LJMP    ??SSAFrame_Analysis_5 & 0xFFFF
   \   000231                ; Setup parameters for call to function memcmp
   \   000231   75..03       MOV     ?V0 + 0,#0x3
   \   000234   75..00       MOV     ?V0 + 1,#0x0
   \   000237   78..         MOV     R0,#?V0 + 0
   \   000239   12....       LCALL   ?PUSH_XSTACK_I_TWO
   \   00023C   7C..         MOV     R4,#`?<Constant "UH:">` & 0xff
   \   00023E   7D..         MOV     R5,#(`?<Constant "UH:">` >> 8) & 0xff
   \   000240   12....       LCALL   ??Subroutine32_0 & 0xFFFF
   \                     ??CrossCallReturnLabel_68:
   \   000243   12....       LCALL   ?DEALLOC_XSTACK8
   \   000246   8B..         MOV     ?V0 + 1,R3
   \   000248   EA           MOV     A,R2
   \   000249   45..         ORL     A,?V0 + 1
   \   00024B   6003         JZ      $+5
   \   00024D   02....       LJMP    ??SSAFrame_Analysis_5 & 0xFFFF
   \   000250   EE           MOV     A,R6
   \   000251   2407         ADD     A,#0x7
   \   000253   F5..         MOV     ?V0 + 0,A
   \   000255   EF           MOV     A,R7
   \   000256   3400         ADDC    A,#0x0
   \   000258   F5..         MOV     ?V0 + 1,A
   \   00025A                ; Setup parameters for call to function memcmp
   \   00025A   75..04       MOV     ?V0 + 4,#0x4
   \   00025D   75..00       MOV     ?V0 + 5,#0x0
   \   000260   78..         MOV     R0,#?V0 + 4
   \   000262   12....       LCALL   ?PUSH_XSTACK_I_TWO
   \   000265   7C..         MOV     R4,#f_tail & 0xff
   \   000267   7D..         MOV     R5,#(f_tail >> 8) & 0xff
   \   000269   AA..         MOV     R2,?V0 + 0
   \   00026B   AB..         MOV     R3,?V0 + 1
   \   00026D   12....       LCALL   ??Subroutine32_0 & 0xFFFF
   \                     ??CrossCallReturnLabel_69:
   \   000270   12....       LCALL   ?DEALLOC_XSTACK8
   \   000273   8B..         MOV     ?V0 + 5,R3
   \   000275   EA           MOV     A,R2
   \   000276   45..         ORL     A,?V0 + 5
   \   000278   6003         JZ      $+5
   \   00027A   02....       LJMP    ??SSAFrame_Analysis_5 & 0xFFFF
    141          		{
    142          			memcpy(uhFrame.head, SrcBuf, 3);
   \   00027D                ; Setup parameters for call to function memcpy
   \   00027D   75..03       MOV     ?V0 + 4,#0x3
   \   000280   75..00       MOV     ?V0 + 5,#0x0
   \   000283   78..         MOV     R0,#?V0 + 4
   \   000285   12....       LCALL   ?PUSH_XSTACK_I_TWO
   \   000288   EE           MOV     A,R6
   \   000289   FC           MOV     R4,A
   \   00028A   EF           MOV     A,R7
   \   00028B   FD           MOV     R5,A
   \   00028C   7A..         MOV     R2,#uhFrame & 0xff
   \   00028E   7B..         MOV     R3,#(uhFrame >> 8) & 0xff
   \   000290   12....       LCALL   ??Subroutine34_0 & 0xFFFF
   \                     ??CrossCallReturnLabel_97:
   \   000293   12....       LCALL   ?DEALLOC_XSTACK8
    143          			memcpy(uhFrame.short_addr, SrcBuf+3, 4);
   \   000296                ; Setup parameters for call to function memcpy
   \   000296   75..04       MOV     ?V0 + 4,#0x4
   \   000299   78..         MOV     R0,#?V0 + 4
   \   00029B   12....       LCALL   ?PUSH_XSTACK_I_TWO
   \   00029E   EE           MOV     A,R6
   \   00029F   2403         ADD     A,#0x3
   \   0002A1   FC           MOV     R4,A
   \   0002A2   EF           MOV     A,R7
   \   0002A3   3400         ADDC    A,#0x0
   \   0002A5   FD           MOV     R5,A
   \   0002A6   7A..         MOV     R2,#(uhFrame + 3) & 0xff
   \   0002A8   7B..         MOV     R3,#((uhFrame + 3) >> 8) & 0xff
   \   0002AA   12....       LCALL   ??Subroutine34_0 & 0xFFFF
   \                     ??CrossCallReturnLabel_98:
   \   0002AD   12....       LCALL   ?DEALLOC_XSTACK8
    144          			memcpy(uhFrame.tail, SrcBuf+7, 4);;
   \   0002B0                ; Setup parameters for call to function memcpy
   \   0002B0   78..         MOV     R0,#?V0 + 4
   \   0002B2   12....       LCALL   ?PUSH_XSTACK_I_TWO
   \   0002B5   AC..         MOV     R4,?V0 + 0
   \   0002B7   AD..         MOV     R5,?V0 + 1
   \   0002B9   7A..         MOV     R2,#(uhFrame + 7) & 0xff
   \   0002BB   7B..         MOV     R3,#((uhFrame + 7) >> 8) & 0xff
   \   0002BD   12....       LCALL   ??Subroutine34_0 & 0xFFFF
   \                     ??CrossCallReturnLabel_99:
   \   0002C0   12....       LCALL   ?DEALLOC_XSTACK8
    145          
    146          			return (void *)&uhFrame;
   \   0002C3   7A..         MOV     R2,#uhFrame & 0xff
   \   0002C5   7B..         MOV     R3,#(uhFrame >> 8) & 0xff
   \   0002C7   02....       LJMP    ??SSAFrame_Analysis_6 & 0xFFFF
    147          		}
    148          		else { goto  FR_Analysis_err;}
    149          		
    150          	case HEAD_UR: 
    151          		if(SrcLen>=FR_HR_DATA_FIX_LEN && !memcmp(SrcBuf, FR_HEAD_UR, 3)
    152          			&& !memcmp(SrcBuf+SrcLen-4, f_tail, 4))
   \                     ??SSAFrame_Analysis_3:
   \   0002CA   EC           MOV     A,R4
   \   0002CB   C3           CLR     C
   \   0002CC   940E         SUBB    A,#0xe
   \   0002CE   5003         JNC     $+5
   \   0002D0   02....       LJMP    ??SSAFrame_Analysis_5 & 0xFFFF
   \   0002D3                ; Setup parameters for call to function memcmp
   \   0002D3   75..03       MOV     ?V0 + 0,#0x3
   \   0002D6   75..00       MOV     ?V0 + 1,#0x0
   \   0002D9   78..         MOV     R0,#?V0 + 0
   \   0002DB   12....       LCALL   ?PUSH_XSTACK_I_TWO
   \   0002DE   7C..         MOV     R4,#`?<Constant "UR:">` & 0xff
   \   0002E0   7D..         MOV     R5,#(`?<Constant "UR:">` >> 8) & 0xff
   \   0002E2   12....       LCALL   ??Subroutine32_0 & 0xFFFF
   \                     ??CrossCallReturnLabel_70:
   \   0002E5   12....       LCALL   ?DEALLOC_XSTACK8
   \   0002E8   8B..         MOV     ?V0 + 1,R3
   \   0002EA   EA           MOV     A,R2
   \   0002EB   45..         ORL     A,?V0 + 1
   \   0002ED   6003         JZ      $+5
   \   0002EF   02....       LJMP    ??SSAFrame_Analysis_5 & 0xFFFF
   \   0002F2   12....       LCALL   ?Subroutine4 & 0xFFFF
   \                     ??CrossCallReturnLabel_1:
   \   0002F5   12....       LCALL   ?PUSH_XSTACK_I_TWO
   \   0002F8   12....       LCALL   ?Subroutine6 & 0xFFFF
   \                     ??CrossCallReturnLabel_64:
   \   0002FB   12....       LCALL   ?DEALLOC_XSTACK8
   \   0002FE   8B..         MOV     ?V0 + 7,R3
   \   000300   EA           MOV     A,R2
   \   000301   45..         ORL     A,?V0 + 7
   \   000303   6003         JZ      $+5
   \   000305   02....       LJMP    ??SSAFrame_Analysis_5 & 0xFFFF
    153          		{
    154          			memcpy(urFrame.head, SrcBuf, 3);
   \   000308                ; Setup parameters for call to function memcpy
   \   000308   75..03       MOV     ?V0 + 6,#0x3
   \   00030B   75..00       MOV     ?V0 + 7,#0x0
   \   00030E   78..         MOV     R0,#?V0 + 6
   \   000310   12....       LCALL   ?PUSH_XSTACK_I_TWO
   \   000313   EE           MOV     A,R6
   \   000314   FC           MOV     R4,A
   \   000315   EF           MOV     A,R7
   \   000316   FD           MOV     R5,A
   \   000317   7A..         MOV     R2,#urFrame & 0xff
   \   000319   7B..         MOV     R3,#(urFrame >> 8) & 0xff
   \   00031B   12....       LCALL   ??Subroutine34_0 & 0xFFFF
   \                     ??CrossCallReturnLabel_100:
   \   00031E   12....       LCALL   ?DEALLOC_XSTACK8
    155          			urFrame.type = SrcBuf[3];
   \   000321   8E82         MOV     DPL,R6
   \   000323   8F83         MOV     DPH,R7
   \   000325   A3           INC     DPTR
   \   000326   A3           INC     DPTR
   \   000327   A3           INC     DPTR
   \   000328   E0           MOVX    A,@DPTR
   \   000329   90....       MOV     DPTR,#urFrame + 3
   \   00032C   F0           MOVX    @DPTR,A
    156          			memcpy(urFrame.ed_type, SrcBuf+4, 2);
   \   00032D                ; Setup parameters for call to function memcpy
   \   00032D   75..02       MOV     ?V0 + 6,#0x2
   \   000330   78..         MOV     R0,#?V0 + 6
   \   000332   12....       LCALL   ?PUSH_XSTACK_I_TWO
   \   000335   12....       LCALL   ?Subroutine21 & 0xFFFF
   \                     ??CrossCallReturnLabel_44:
   \   000338   7A..         MOV     R2,#(urFrame + 4) & 0xff
   \   00033A   7B..         MOV     R3,#((urFrame + 4) >> 8) & 0xff
   \   00033C   12....       LCALL   ??Subroutine34_0 & 0xFFFF
   \                     ??CrossCallReturnLabel_101:
   \   00033F   12....       LCALL   ?DEALLOC_XSTACK8
    157          			memcpy(urFrame.short_addr, SrcBuf+6, 4);
   \   000342                ; Setup parameters for call to function memcpy
   \   000342   75..04       MOV     ?V0 + 6,#0x4
   \   000345   78..         MOV     R0,#?V0 + 6
   \   000347   12....       LCALL   ?PUSH_XSTACK_I_TWO
   \   00034A   12....       LCALL   ?Subroutine19 & 0xFFFF
   \                     ??CrossCallReturnLabel_38:
   \   00034D   7A..         MOV     R2,#(urFrame + 6) & 0xff
   \   00034F   7B..         MOV     R3,#((urFrame + 6) >> 8) & 0xff
   \   000351   12....       LCALL   ??Subroutine34_0 & 0xFFFF
   \                     ??CrossCallReturnLabel_102:
   \   000354   12....       LCALL   ?DEALLOC_XSTACK8
    158          			
    159          			memset(aDataBuffer, 0, sizeof(aDataBuffer));
   \   000357                ; Setup parameters for call to function memset
   \   000357   75..80       MOV     ?V0 + 6,#-0x80
   \   00035A   78..         MOV     R0,#?V0 + 6
   \   00035C   12....       LCALL   ?PUSH_XSTACK_I_TWO
   \   00035F   7C00         MOV     R4,#0x0
   \   000361   7D00         MOV     R5,#0x0
   \   000363   7A..         MOV     R2,#aDataBuffer & 0xff
   \   000365   7B..         MOV     R3,#(aDataBuffer >> 8) & 0xff
   \   000367   12....       LCALL   ??Subroutine33_0 & 0xFFFF
   \                     ??CrossCallReturnLabel_78:
   \   00036A   12....       LCALL   ?DEALLOC_XSTACK8
    160          			memcpy(aDataBuffer, SrcBuf+10, SrcLen-FR_HR_DATA_FIX_LEN);
   \   00036D                ; Setup parameters for call to function memcpy
   \   00036D   12....       LCALL   ?Subroutine24 & 0xFFFF
   \                     ??CrossCallReturnLabel_47:
   \   000370   12....       LCALL   ?PUSH_XSTACK_I_TWO
   \   000373   12....       LCALL   ?Subroutine7 & 0xFFFF
   \                     ??CrossCallReturnLabel_59:
   \   000376   12....       LCALL   ?DEALLOC_XSTACK8
    161          			aDataLen = SrcLen-FR_HR_DATA_FIX_LEN;
   \   000379   12....       LCALL   ?Subroutine25 & 0xFFFF
    162          			urFrame.data_len = aDataLen;
   \                     ??CrossCallReturnLabel_57:
   \   00037C   90....       MOV     DPTR,#urFrame + 10
   \   00037F   12....       LCALL   ?Subroutine18 & 0xFFFF
    163          			urFrame.data = aDataBuffer;
    164          			
    165          			memcpy(urFrame.tail, SrcBuf+SrcLen-4, 4);
   \                     ??CrossCallReturnLabel_34:
   \   000382   12....       LCALL   ?PUSH_XSTACK_I_TWO
   \   000385   AC..         MOV     R4,?V0 + 4
   \   000387   AD..         MOV     R5,?V0 + 5
   \   000389   7A..         MOV     R2,#(urFrame + 13) & 0xff
   \   00038B   7B..         MOV     R3,#((urFrame + 13) >> 8) & 0xff
   \   00038D   12....       LCALL   ??Subroutine34_0 & 0xFFFF
   \                     ??CrossCallReturnLabel_103:
   \   000390   12....       LCALL   ?DEALLOC_XSTACK8
    166          
    167          			return (void *)&urFrame;
   \   000393   7A..         MOV     R2,#urFrame & 0xff
   \   000395   7B..         MOV     R3,#(urFrame >> 8) & 0xff
   \   000397   02....       LJMP    ??SSAFrame_Analysis_6 & 0xFFFF
    168          		}
    169          		else { goto  FR_Analysis_err;}
    170          	
    171          	case HEAD_DE: 
    172          		if(SrcLen>=FR_DE_DATA_FIX_LEN && !memcmp(SrcBuf, FR_HEAD_DE, 2)
    173          			&& !memcmp(SrcBuf+SrcLen-4, f_tail, 4))
   \                     ??SSAFrame_Analysis_4:
   \   00039A   EC           MOV     A,R4
   \   00039B   C3           CLR     C
   \   00039C   940E         SUBB    A,#0xe
   \   00039E   5003         JNC     $+5
   \   0003A0   02....       LJMP    ??SSAFrame_Analysis_5 & 0xFFFF
   \   0003A3                ; Setup parameters for call to function memcmp
   \   0003A3   75..02       MOV     ?V0 + 0,#0x2
   \   0003A6   75..00       MOV     ?V0 + 1,#0x0
   \   0003A9   78..         MOV     R0,#?V0 + 0
   \   0003AB   12....       LCALL   ?PUSH_XSTACK_I_TWO
   \   0003AE   7C..         MOV     R4,#`?<Constant "D:">` & 0xff
   \   0003B0   7D..         MOV     R5,#(`?<Constant "D:">` >> 8) & 0xff
   \   0003B2   12....       LCALL   ??Subroutine32_0 & 0xFFFF
   \                     ??CrossCallReturnLabel_71:
   \   0003B5   12....       LCALL   ?DEALLOC_XSTACK8
   \   0003B8   8B..         MOV     ?V0 + 1,R3
   \   0003BA   EA           MOV     A,R2
   \   0003BB   45..         ORL     A,?V0 + 1
   \   0003BD   6003         JZ      $+5
   \   0003BF   02....       LJMP    ??SSAFrame_Analysis_5 & 0xFFFF
   \   0003C2   12....       LCALL   ?Subroutine4 & 0xFFFF
   \                     ??CrossCallReturnLabel_2:
   \   0003C5   12....       LCALL   ?PUSH_XSTACK_I_TWO
   \   0003C8   12....       LCALL   ?Subroutine6 & 0xFFFF
   \                     ??CrossCallReturnLabel_65:
   \   0003CB   12....       LCALL   ?DEALLOC_XSTACK8
   \   0003CE   8B..         MOV     ?V0 + 7,R3
   \   0003D0   EA           MOV     A,R2
   \   0003D1   45..         ORL     A,?V0 + 7
   \   0003D3   6003         JZ      $+5
   \   0003D5   02....       LJMP    ??SSAFrame_Analysis_5 & 0xFFFF
    174          		{
    175          			memcpy(deFrame.head, SrcBuf, 2);
   \   0003D8                ; Setup parameters for call to function memcpy
   \   0003D8   75..02       MOV     ?V0 + 6,#0x2
   \   0003DB   75..00       MOV     ?V0 + 7,#0x0
   \   0003DE   78..         MOV     R0,#?V0 + 6
   \   0003E0   12....       LCALL   ?PUSH_XSTACK_I_TWO
   \   0003E3   EE           MOV     A,R6
   \   0003E4   FC           MOV     R4,A
   \   0003E5   EF           MOV     A,R7
   \   0003E6   FD           MOV     R5,A
   \   0003E7   7A..         MOV     R2,#deFrame & 0xff
   \   0003E9   7B..         MOV     R3,#(deFrame >> 8) & 0xff
   \   0003EB   12....       LCALL   ??Subroutine34_0 & 0xFFFF
   \                     ??CrossCallReturnLabel_104:
   \   0003EE   12....       LCALL   ?DEALLOC_XSTACK8
    176          			memcpy(deFrame.cmd, SrcBuf+2, 4);
   \   0003F1                ; Setup parameters for call to function memcpy
   \   0003F1   75..04       MOV     ?V0 + 6,#0x4
   \   0003F4   78..         MOV     R0,#?V0 + 6
   \   0003F6   12....       LCALL   ?PUSH_XSTACK_I_TWO
   \   0003F9   EE           MOV     A,R6
   \   0003FA   2402         ADD     A,#0x2
   \   0003FC   FC           MOV     R4,A
   \   0003FD   EF           MOV     A,R7
   \   0003FE   3400         ADDC    A,#0x0
   \   000400   FD           MOV     R5,A
   \   000401   7A..         MOV     R2,#(deFrame + 2) & 0xff
   \   000403   7B..         MOV     R3,#((deFrame + 2) >> 8) & 0xff
   \   000405   12....       LCALL   ??Subroutine34_0 & 0xFFFF
   \                     ??CrossCallReturnLabel_105:
   \   000408   12....       LCALL   ?DEALLOC_XSTACK8
    177          			memcpy(deFrame.short_addr, SrcBuf+6, 4);
   \   00040B                ; Setup parameters for call to function memcpy
   \   00040B   78..         MOV     R0,#?V0 + 6
   \   00040D   12....       LCALL   ?PUSH_XSTACK_I_TWO
   \   000410   12....       LCALL   ?Subroutine19 & 0xFFFF
   \                     ??CrossCallReturnLabel_39:
   \   000413   7A..         MOV     R2,#(deFrame + 6) & 0xff
   \   000415   7B..         MOV     R3,#((deFrame + 6) >> 8) & 0xff
   \   000417   12....       LCALL   ??Subroutine34_0 & 0xFFFF
   \                     ??CrossCallReturnLabel_106:
   \   00041A   12....       LCALL   ?DEALLOC_XSTACK8
    178          			
    179          			memset(aDataBuffer, 0, sizeof(aDataBuffer));
   \   00041D                ; Setup parameters for call to function memset
   \   00041D   75..80       MOV     ?V0 + 6,#-0x80
   \   000420   78..         MOV     R0,#?V0 + 6
   \   000422   12....       LCALL   ?PUSH_XSTACK_I_TWO
   \   000425   7C00         MOV     R4,#0x0
   \   000427   7D00         MOV     R5,#0x0
   \   000429   7A..         MOV     R2,#aDataBuffer & 0xff
   \   00042B   7B..         MOV     R3,#(aDataBuffer >> 8) & 0xff
   \   00042D   12....       LCALL   ??Subroutine33_0 & 0xFFFF
   \                     ??CrossCallReturnLabel_79:
   \   000430   12....       LCALL   ?DEALLOC_XSTACK8
    180          			memcpy(aDataBuffer, SrcBuf+10, SrcLen-FR_DE_DATA_FIX_LEN);
   \   000433                ; Setup parameters for call to function memcpy
   \   000433   12....       LCALL   ?Subroutine24 & 0xFFFF
   \                     ??CrossCallReturnLabel_48:
   \   000436   12....       LCALL   ?PUSH_XSTACK_I_TWO
   \   000439   12....       LCALL   ?Subroutine7 & 0xFFFF
   \                     ??CrossCallReturnLabel_60:
   \   00043C   12....       LCALL   ?DEALLOC_XSTACK8
    181          			aDataLen = SrcLen-FR_DE_DATA_FIX_LEN;
   \   00043F   12....       LCALL   ?Subroutine25 & 0xFFFF
    182          			deFrame.data_len = aDataLen;
   \                     ??CrossCallReturnLabel_58:
   \   000442   90....       MOV     DPTR,#deFrame + 10
   \   000445   12....       LCALL   ?Subroutine18 & 0xFFFF
    183          			deFrame.data = aDataBuffer;
    184          			
    185          			memcpy(deFrame.tail, SrcBuf+SrcLen-4, 4);
   \                     ??CrossCallReturnLabel_35:
   \   000448   12....       LCALL   ?PUSH_XSTACK_I_TWO
   \   00044B   AC..         MOV     R4,?V0 + 4
   \   00044D   AD..         MOV     R5,?V0 + 5
   \   00044F   7A..         MOV     R2,#(deFrame + 13) & 0xff
   \   000451   7B..         MOV     R3,#((deFrame + 13) >> 8) & 0xff
   \   000453   12....       LCALL   ??Subroutine34_0 & 0xFFFF
   \                     ??CrossCallReturnLabel_107:
   \   000456   12....       LCALL   ?DEALLOC_XSTACK8
    186          
    187          			return (void *)&deFrame;
   \   000459   7A..         MOV     R2,#deFrame & 0xff
   \   00045B   7B..         MOV     R3,#(deFrame >> 8) & 0xff
   \   00045D   8004         SJMP    ??SSAFrame_Analysis_6
    188          		}
    189          		else { goto  FR_Analysis_err;}
    190          
    191          	default: goto  FR_Analysis_err;
    192          	}
    193          
    194          FR_Analysis_err:
    195          	return NULL;
   \                     ??SSAFrame_Analysis_5:
   \   00045F   7A00         MOV     R2,#0x0
   \   000461   7B00         MOV     R3,#0x0
   \                     ??SSAFrame_Analysis_6:
   \   000463   7F08         MOV     R7,#0x8
   \   000465   02....       LJMP    ?BANKED_LEAVE_XDATA
    196          }

   \                                 In  segment BANKED_CODE, align 1, keep-with-next
   \                     ?Subroutine25:
   \   000000   74F2         MOV     A,#-0xe
   \   000002                REQUIRE ??Subroutine30_0
   \   000002                ; // Fall through to label ??Subroutine30_0

   \                                 In  segment BANKED_CODE, align 1, keep-with-next
   \                     ??Subroutine30_0:
   \   000000   25..         ADD     A,?V0 + 2
   \   000002   90....       MOV     DPTR,#aDataLen
   \   000005   F0           MOVX    @DPTR,A
   \   000006   22           RET

   \                                 In  segment BANKED_CODE, align 1, keep-with-next
   \                     ?Subroutine24:
   \   000000   E5..         MOV     A,?V0 + 0
   \   000002   24F2         ADD     A,#-0xe
   \   000004   F5..         MOV     ?V0 + 0,A
   \   000006   E4           CLR     A
   \   000007   34FF         ADDC    A,#-0x1
   \   000009   F5..         MOV     ?V0 + 1,A
   \   00000B   78..         MOV     R0,#?V0 + 0
   \   00000D   22           RET

   \                                 In  segment BANKED_CODE, align 1, keep-with-next
   \                     ?Subroutine21:
   \   000000   EE           MOV     A,R6
   \   000001   2404         ADD     A,#0x4
   \   000003   FC           MOV     R4,A
   \   000004   EF           MOV     A,R7
   \   000005   3400         ADDC    A,#0x0
   \   000007   FD           MOV     R5,A
   \   000008   22           RET

   \                                 In  segment BANKED_CODE, align 1, keep-with-next
   \                     ?Subroutine19:
   \   000000   EE           MOV     A,R6
   \   000001   2406         ADD     A,#0x6
   \   000003   FC           MOV     R4,A
   \   000004   EF           MOV     A,R7
   \   000005   3400         ADDC    A,#0x0
   \   000007   FD           MOV     R5,A
   \   000008   22           RET

   \                                 In  segment BANKED_CODE, align 1, keep-with-next
   \                     ?Subroutine18:
   \   000000   F0           MOVX    @DPTR,A
   \   000001   A3           INC     DPTR
   \   000002   74..         MOV     A,#aDataBuffer & 0xff
   \   000004   F0           MOVX    @DPTR,A
   \   000005   A3           INC     DPTR
   \   000006   74..         MOV     A,#(aDataBuffer >> 8) & 0xff
   \   000008   F0           MOVX    @DPTR,A
   \   000009                ; Setup parameters for call to function memcpy
   \   000009                ; Setup parameters for call to function memcpy
   \   000009                ; Setup parameters for call to function memcpy
   \   000009   75..04       MOV     ?V0 + 0,#0x4
   \   00000C   75..00       MOV     ?V0 + 1,#0x0
   \   00000F   78..         MOV     R0,#?V0 + 0
   \   000011   22           RET

   \                                 In  segment BANKED_CODE, align 1, keep-with-next
   \                     ?Subroutine7:
   \   000000   EE           MOV     A,R6
   \   000001   240A         ADD     A,#0xa
   \   000003                REQUIRE ??Subroutine31_0
   \   000003                ; // Fall through to label ??Subroutine31_0

   \                                 In  segment BANKED_CODE, align 1, keep-with-next
   \                     ??Subroutine31_0:
   \   000000   FC           MOV     R4,A
   \   000001   EF           MOV     A,R7
   \   000002   3400         ADDC    A,#0x0
   \   000004   FD           MOV     R5,A
   \   000005   7A..         MOV     R2,#aDataBuffer & 0xff
   \   000007   7B..         MOV     R3,#(aDataBuffer >> 8) & 0xff
   \   000009   12....       LCALL   ?Subroutine28 & 0xFFFF
   \                     ??CrossCallReturnLabel_114:
   \   00000C   22           RET

   \                                 In  segment BANKED_CODE, align 1, keep-with-next
   \                     ?Subroutine6:
   \   000000   7C..         MOV     R4,#f_tail & 0xff
   \   000002   7D..         MOV     R5,#(f_tail >> 8) & 0xff
   \   000004   AA..         MOV     R2,?V0 + 4
   \   000006   AB..         MOV     R3,?V0 + 5
   \   000008                REQUIRE ??Subroutine32_0
   \   000008                ; // Fall through to label ??Subroutine32_0

   \                                 In  segment BANKED_CODE, align 1, keep-with-next
   \                     ??Subroutine32_0:
   \   000000   12....       LCALL   ??memcmp?relay
   \   000003   7402         MOV     A,#0x2
   \   000005   22           RET

   \                                 In  segment BANKED_CODE, align 1, keep-with-next
   \                     ?Subroutine4:
   \   000000   85..82       MOV     DPL,?V0 + 2
   \   000003   8582..       MOV     ?V0 + 0,DPL
   \   000006   EE           MOV     A,R6
   \   000007   25..         ADD     A,?V0 + 0
   \   000009   F8           MOV     R0,A
   \   00000A   EF           MOV     A,R7
   \   00000B   3400         ADDC    A,#0x0
   \   00000D   F9           MOV     R1,A
   \   00000E   E8           MOV     A,R0
   \   00000F   24FC         ADD     A,#-0x4
   \   000011   F5..         MOV     ?V0 + 4,A
   \   000013   E9           MOV     A,R1
   \   000014   34FF         ADDC    A,#-0x1
   \   000016   F5..         MOV     ?V0 + 5,A
   \   000018                ; Setup parameters for call to function memcmp
   \   000018                ; Setup parameters for call to function memcmp
   \   000018                ; Setup parameters for call to function memcmp
   \   000018   75..04       MOV     ?V0 + 6,#0x4
   \   00001B   75..00       MOV     ?V0 + 7,#0x0
   \   00001E   78..         MOV     R0,#?V0 + 6
   \   000020   22           RET

   \                                 In  segment BANKED_CODE, align 1, keep-with-next
   \                     ??Subroutine33_0:
   \   000000   12....       LCALL   ??memset?relay
   \   000003   7402         MOV     A,#0x2
   \   000005   22           RET

   \                                 In  segment BANKED_CODE, align 1, keep-with-next
   \                     ??Subroutine34_0:
   \   000000   12....       LCALL   ?Subroutine28 & 0xFFFF
   \                     ??CrossCallReturnLabel_115:
   \   000003   22           RET

   \                                 In  segment BANKED_CODE, align 1, keep-with-next
   \                     ?Subroutine29:
   \   000000   EE           MOV     A,R6
   \   000001   240A         ADD     A,#0xa
   \   000003   FC           MOV     R4,A
   \   000004   EF           MOV     A,R7
   \   000005   3400         ADDC    A,#0x0
   \   000007   FD           MOV     R5,A
   \   000008   22           RET

   \                                 In  segment BANKED_CODE, align 1, keep-with-next
   \                     ?Subroutine28:
   \   000000   12....       LCALL   ??memcpy?relay
   \   000003   7402         MOV     A,#0x2
   \   000005   22           RET

   \                                 In  segment BANKED_CODE, align 1, keep-with-next
   \                     ?Subroutine27:
   \   000000   F5..         MOV     ?V0 + 0,A
   \   000002   EF           MOV     A,R7
   \   000003   3400         ADDC    A,#0x0
   \   000005   F5..         MOV     ?V0 + 1,A
   \   000007                ; Setup parameters for call to function memcpy
   \   000007                ; Setup parameters for call to function memcpy
   \   000007                ; Setup parameters for call to function memcpy
   \   000007   85..82       MOV     DPL,?V0 + 0
   \   00000A   F583         MOV     DPH,A
   \   00000C   E0           MOVX    A,@DPTR
   \   00000D   22           RET
    197          
    198          
    199          /*********************************************************************
    200           * @fn      SSAFrame_Package()
    201           *
    202           * @brief   packet frame
    203           *
    204           * @param none
    205           *
    206           * @return  none
    207           */

   \                                 In  segment BANKED_CODE, align 1, keep-with-next
    208          int8 SSAFrame_Package(frHeadType_t hType, void *data, uint8 **DstBuf, uint16 *DstLen)
   \                     SSAFrame_Package:
    209          {
   \   000000   74EE         MOV     A,#-0x12
   \   000002   12....       LCALL   ?BANKED_ENTER_XDATA
   \   000005                ; Saved register size: 18
   \   000005                ; Auto size: 0
   \   000005   EA           MOV     A,R2
   \   000006   FE           MOV     R6,A
   \   000007   EB           MOV     A,R3
   \   000008   FF           MOV     R7,A
   \   000009   8C..         MOV     ?V0 + 4,R4
   \   00000B   8D..         MOV     ?V0 + 5,R5
   \   00000D   7412         MOV     A,#0x12
   \   00000F   12....       LCALL   ?XSTACK_DISP0_8
   \   000012   E0           MOVX    A,@DPTR
   \   000013   F5..         MOV     ?V0 + 2,A
   \   000015   A3           INC     DPTR
   \   000016   E0           MOVX    A,@DPTR
   \   000017   F5..         MOV     ?V0 + 3,A
    210          	if(data == NULL)
   \   000019   EE           MOV     A,R6
   \   00001A   4F           ORL     A,R7
   \   00001B   7003         JNZ     $+5
   \   00001D   02....       LJMP    ??SSAFrame_Package_0 & 0xFFFF
    211          		goto  FR_Package_err;
    212          	
    213          	switch(hType)
   \   000020   E9           MOV     A,R1
   \   000021   601B         JZ      ??SSAFrame_Package_1
   \   000023   14           DEC     A
   \   000024   7003         JNZ     $+5
   \   000026   02....       LJMP    ??SSAFrame_Package_2 & 0xFFFF
   \   000029   14           DEC     A
   \   00002A   7003         JNZ     $+5
   \   00002C   02....       LJMP    ??SSAFrame_Package_3 & 0xFFFF
   \   00002F   14           DEC     A
   \   000030   7003         JNZ     $+5
   \   000032   02....       LJMP    ??SSAFrame_Package_4 & 0xFFFF
   \   000035   14           DEC     A
   \   000036   7003         JNZ     $+5
   \   000038   02....       LJMP    ??SSAFrame_Package_5 & 0xFFFF
   \   00003B   02....       LJMP    ??SSAFrame_Package_0 & 0xFFFF
    214          	{
    215          	case HEAD_UC: 
    216          	{
    217          		UC_t *p_ucFrame = (UC_t *)data;
    218          		memset(pFrameBuffer, 0, sizeof(pFrameBuffer));
   \                     ??SSAFrame_Package_1:
   \   00003E                ; Setup parameters for call to function memset
   \   00003E   75..00       MOV     ?V0 + 0,#0x0
   \   000041   75..01       MOV     ?V0 + 1,#0x1
   \   000044   78..         MOV     R0,#?V0 + 0
   \   000046   12....       LCALL   ?PUSH_XSTACK_I_TWO
   \   000049   12....       LCALL   ?Subroutine23 & 0xFFFF
   \                     ??CrossCallReturnLabel_72:
   \   00004C   12....       LCALL   ?DEALLOC_XSTACK8
    219          		memcpy(pFrameBuffer, p_ucFrame->head, 3);
   \   00004F                ; Setup parameters for call to function memcpy
   \   00004F   75..03       MOV     ?V0 + 0,#0x3
   \   000052   75..00       MOV     ?V0 + 1,#0x0
   \   000055   78..         MOV     R0,#?V0 + 0
   \   000057   12....       LCALL   ?PUSH_XSTACK_I_TWO
   \   00005A   12....       LCALL   ?Subroutine15 & 0xFFFF
   \                     ??CrossCallReturnLabel_80:
   \   00005D   12....       LCALL   ?DEALLOC_XSTACK8
    220          		pFrameBuffer[3] = p_ucFrame->type;
   \   000060   12....       LCALL   ?Subroutine17 & 0xFFFF
    221          		memcpy(pFrameBuffer+4, p_ucFrame->ed_type, 2);
   \                     ??CrossCallReturnLabel_30:
   \   000063   12....       LCALL   ?PUSH_XSTACK_I_TWO
   \   000066   12....       LCALL   ?Subroutine8 & 0xFFFF
   \                     ??CrossCallReturnLabel_6:
   \   000069   12....       LCALL   ?DEALLOC_XSTACK8
    222          		memcpy(pFrameBuffer+6, p_ucFrame->short_addr, 4);
   \   00006C                ; Setup parameters for call to function memcpy
   \   00006C   75..04       MOV     ?V0 + 0,#0x4
   \   00006F   78..         MOV     R0,#?V0 + 0
   \   000071   12....       LCALL   ?PUSH_XSTACK_I_TWO
   \   000074   12....       LCALL   ?Subroutine9 & 0xFFFF
   \                     ??CrossCallReturnLabel_9:
   \   000077   12....       LCALL   ?DEALLOC_XSTACK8
    223          		memcpy(pFrameBuffer+10, p_ucFrame->ext_addr, 16);
   \   00007A                ; Setup parameters for call to function memcpy
   \   00007A   75..10       MOV     ?V0 + 0,#0x10
   \   00007D   78..         MOV     R0,#?V0 + 0
   \   00007F   12....       LCALL   ?PUSH_XSTACK_I_TWO
   \   000082   12....       LCALL   ?Subroutine13 & 0xFFFF
   \                     ??CrossCallReturnLabel_21:
   \   000085   12....       LCALL   ?DEALLOC_XSTACK8
    224          		memcpy(pFrameBuffer+26, p_ucFrame->panid, 4);
   \   000088                ; Setup parameters for call to function memcpy
   \   000088   75..04       MOV     ?V0 + 0,#0x4
   \   00008B   78..         MOV     R0,#?V0 + 0
   \   00008D   12....       LCALL   ?PUSH_XSTACK_I_TWO
   \   000090   EE           MOV     A,R6
   \   000091   241A         ADD     A,#0x1a
   \   000093   FC           MOV     R4,A
   \   000094   EF           MOV     A,R7
   \   000095   3400         ADDC    A,#0x0
   \   000097   FD           MOV     R5,A
   \   000098   7A..         MOV     R2,#(pFrameBuffer + 26) & 0xff
   \   00009A   7B..         MOV     R3,#((pFrameBuffer + 26) >> 8) & 0xff
   \   00009C   12....       LCALL   ??Subroutine34_0 & 0xFFFF
   \                     ??CrossCallReturnLabel_108:
   \   00009F   12....       LCALL   ?DEALLOC_XSTACK8
    225          		memcpy(pFrameBuffer+30, p_ucFrame->channel, 4);
   \   0000A2                ; Setup parameters for call to function memcpy
   \   0000A2   78..         MOV     R0,#?V0 + 0
   \   0000A4   12....       LCALL   ?PUSH_XSTACK_I_TWO
   \   0000A7   EE           MOV     A,R6
   \   0000A8   241E         ADD     A,#0x1e
   \   0000AA   FC           MOV     R4,A
   \   0000AB   EF           MOV     A,R7
   \   0000AC   3400         ADDC    A,#0x0
   \   0000AE   FD           MOV     R5,A
   \   0000AF   7A..         MOV     R2,#(pFrameBuffer + 30) & 0xff
   \   0000B1   7B..         MOV     R3,#((pFrameBuffer + 30) >> 8) & 0xff
   \   0000B3   12....       LCALL   ??Subroutine34_0 & 0xFFFF
   \                     ??CrossCallReturnLabel_109:
   \   0000B6   12....       LCALL   ?DEALLOC_XSTACK8
    226          		memcpy(pFrameBuffer+34, p_ucFrame->data, p_ucFrame->data_len);
   \   0000B9   EE           MOV     A,R6
   \   0000BA   2422         ADD     A,#0x22
   \   0000BC   12....       LCALL   ?Subroutine5 & 0xFFFF
   \                     ??CrossCallReturnLabel_3:
   \   0000BF   12....       LCALL   ?PUSH_XSTACK_I_TWO
   \   0000C2   EE           MOV     A,R6
   \   0000C3   2423         ADD     A,#0x23
   \   0000C5   12....       LCALL   ?Subroutine11 & 0xFFFF
   \                     ??CrossCallReturnLabel_15:
   \   0000C8   7A..         MOV     R2,#(pFrameBuffer + 34) & 0xff
   \   0000CA   7B..         MOV     R3,#((pFrameBuffer + 34) >> 8) & 0xff
   \   0000CC   12....       LCALL   ??Subroutine34_0 & 0xFFFF
   \                     ??CrossCallReturnLabel_110:
   \   0000CF   12....       LCALL   ?DEALLOC_XSTACK8
    227          		memcpy(pFrameBuffer+34+p_ucFrame->data_len, p_ucFrame->tail, 4);
   \   0000D2                ; Setup parameters for call to function memcpy
   \   0000D2   75..04       MOV     ?V0 + 8,#0x4
   \   0000D5   78..         MOV     R0,#?V0 + 8
   \   0000D7   12....       LCALL   ?PUSH_XSTACK_I_TWO
   \   0000DA   EE           MOV     A,R6
   \   0000DB   2425         ADD     A,#0x25
   \   0000DD   12....       LCALL   ?Subroutine10 & 0xFFFF
   \                     ??CrossCallReturnLabel_12:
   \   0000E0   74..         MOV     A,#(pFrameBuffer + 34) & 0xff
   \   0000E2   28           ADD     A,R0
   \   0000E3   FA           MOV     R2,A
   \   0000E4   74..         MOV     A,#((pFrameBuffer + 34) >> 8) & 0xff
   \   0000E6   12....       LCALL   ?Subroutine12 & 0xFFFF
   \                     ??CrossCallReturnLabel_18:
   \   0000E9   12....       LCALL   ?DEALLOC_XSTACK8
    228          
    229          		pFrameLen = FR_UC_DATA_FIX_LEN+p_ucFrame->data_len;
   \   0000EC   85..82       MOV     DPL,?V0 + 0
   \   0000EF   85..83       MOV     DPH,?V0 + 1
   \   0000F2   E0           MOVX    A,@DPTR
   \   0000F3   2426         ADD     A,#0x26
   \   0000F5   02....       LJMP    ??SSAFrame_Package_6 & 0xFFFF
    230          
    231          		*DstBuf = pFrameBuffer;
    232          		*DstLen = pFrameLen;
    233          	}
    234          	break;
    235          		
    236          	case HEAD_UO: 
    237          	{
    238          		UO_t *p_uoFrame = (UO_t *)data;
    239          		memset(pFrameBuffer, 0, sizeof(pFrameBuffer));
   \                     ??SSAFrame_Package_2:
   \   0000F8                ; Setup parameters for call to function memset
   \   0000F8   75..00       MOV     ?V0 + 0,#0x0
   \   0000FB   75..01       MOV     ?V0 + 1,#0x1
   \   0000FE   78..         MOV     R0,#?V0 + 0
   \   000100   12....       LCALL   ?PUSH_XSTACK_I_TWO
   \   000103   12....       LCALL   ?Subroutine23 & 0xFFFF
   \                     ??CrossCallReturnLabel_73:
   \   000106   12....       LCALL   ?DEALLOC_XSTACK8
    240          		memcpy(pFrameBuffer, p_uoFrame->head, 3);
   \   000109                ; Setup parameters for call to function memcpy
   \   000109   75..03       MOV     ?V0 + 0,#0x3
   \   00010C   75..00       MOV     ?V0 + 1,#0x0
   \   00010F   78..         MOV     R0,#?V0 + 0
   \   000111   12....       LCALL   ?PUSH_XSTACK_I_TWO
   \   000114   12....       LCALL   ?Subroutine15 & 0xFFFF
   \                     ??CrossCallReturnLabel_81:
   \   000117   12....       LCALL   ?DEALLOC_XSTACK8
    241          		pFrameBuffer[3] = p_uoFrame->type;
   \   00011A   12....       LCALL   ?Subroutine17 & 0xFFFF
    242          		memcpy(pFrameBuffer+4, p_uoFrame->ed_type, 2);
   \                     ??CrossCallReturnLabel_31:
   \   00011D   12....       LCALL   ?PUSH_XSTACK_I_TWO
   \   000120   12....       LCALL   ?Subroutine8 & 0xFFFF
   \                     ??CrossCallReturnLabel_7:
   \   000123   12....       LCALL   ?DEALLOC_XSTACK8
    243          		memcpy(pFrameBuffer+6, p_uoFrame->short_addr, 4);
   \   000126                ; Setup parameters for call to function memcpy
   \   000126   75..04       MOV     ?V0 + 0,#0x4
   \   000129   78..         MOV     R0,#?V0 + 0
   \   00012B   12....       LCALL   ?PUSH_XSTACK_I_TWO
   \   00012E   12....       LCALL   ?Subroutine9 & 0xFFFF
   \                     ??CrossCallReturnLabel_10:
   \   000131   12....       LCALL   ?DEALLOC_XSTACK8
    244          		memcpy(pFrameBuffer+10, p_uoFrame->ext_addr, 16);
   \   000134                ; Setup parameters for call to function memcpy
   \   000134   75..10       MOV     ?V0 + 0,#0x10
   \   000137   78..         MOV     R0,#?V0 + 0
   \   000139   12....       LCALL   ?PUSH_XSTACK_I_TWO
   \   00013C   12....       LCALL   ?Subroutine13 & 0xFFFF
   \                     ??CrossCallReturnLabel_22:
   \   00013F   12....       LCALL   ?DEALLOC_XSTACK8
    245          		memcpy(pFrameBuffer+26, p_uoFrame->data, p_uoFrame->data_len);
   \   000142   EE           MOV     A,R6
   \   000143   241A         ADD     A,#0x1a
   \   000145   12....       LCALL   ?Subroutine5 & 0xFFFF
   \                     ??CrossCallReturnLabel_4:
   \   000148   12....       LCALL   ?PUSH_XSTACK_I_TWO
   \   00014B   EE           MOV     A,R6
   \   00014C   241B         ADD     A,#0x1b
   \   00014E   12....       LCALL   ?Subroutine11 & 0xFFFF
   \                     ??CrossCallReturnLabel_16:
   \   000151   7A..         MOV     R2,#(pFrameBuffer + 26) & 0xff
   \   000153   7B..         MOV     R3,#((pFrameBuffer + 26) >> 8) & 0xff
   \   000155   12....       LCALL   ??Subroutine34_0 & 0xFFFF
   \                     ??CrossCallReturnLabel_111:
   \   000158   12....       LCALL   ?DEALLOC_XSTACK8
    246          		memcpy(pFrameBuffer+26+p_uoFrame->data_len, p_uoFrame->tail, 4);
   \   00015B                ; Setup parameters for call to function memcpy
   \   00015B   75..04       MOV     ?V0 + 8,#0x4
   \   00015E   78..         MOV     R0,#?V0 + 8
   \   000160   12....       LCALL   ?PUSH_XSTACK_I_TWO
   \   000163   EE           MOV     A,R6
   \   000164   241D         ADD     A,#0x1d
   \   000166   12....       LCALL   ?Subroutine10 & 0xFFFF
   \                     ??CrossCallReturnLabel_13:
   \   000169   74..         MOV     A,#(pFrameBuffer + 26) & 0xff
   \   00016B   28           ADD     A,R0
   \   00016C   FA           MOV     R2,A
   \   00016D   74..         MOV     A,#((pFrameBuffer + 26) >> 8) & 0xff
   \   00016F   12....       LCALL   ?Subroutine12 & 0xFFFF
   \                     ??CrossCallReturnLabel_19:
   \   000172   12....       LCALL   ?DEALLOC_XSTACK8
    247          
    248          		pFrameLen = FR_UO_DATA_FIX_LEN+p_uoFrame->data_len;
   \   000175   85..82       MOV     DPL,?V0 + 0
   \   000178   85..83       MOV     DPH,?V0 + 1
   \   00017B   E0           MOVX    A,@DPTR
   \   00017C   241E         ADD     A,#0x1e
   \   00017E   02....       LJMP    ??SSAFrame_Package_6 & 0xFFFF
    249          
    250          		*DstBuf = pFrameBuffer;
    251          		*DstLen = pFrameLen;
    252          	}
    253          	break;
    254          		
    255          	case HEAD_UH: 
    256          	{
    257          		UH_t *p_uhFrame = (UH_t *)data;
    258          		memset(pFrameBuffer, 0, sizeof(pFrameBuffer));
   \                     ??SSAFrame_Package_3:
   \   000181                ; Setup parameters for call to function memset
   \   000181   75..00       MOV     ?V0 + 0,#0x0
   \   000184   75..01       MOV     ?V0 + 1,#0x1
   \   000187   78..         MOV     R0,#?V0 + 0
   \   000189   12....       LCALL   ?PUSH_XSTACK_I_TWO
   \   00018C   12....       LCALL   ?Subroutine23 & 0xFFFF
   \                     ??CrossCallReturnLabel_74:
   \   00018F   12....       LCALL   ?DEALLOC_XSTACK8
    259          		memcpy(pFrameBuffer, p_uhFrame->head, 3);
   \   000192                ; Setup parameters for call to function memcpy
   \   000192   75..03       MOV     ?V0 + 0,#0x3
   \   000195   75..00       MOV     ?V0 + 1,#0x0
   \   000198   78..         MOV     R0,#?V0 + 0
   \   00019A   12....       LCALL   ?PUSH_XSTACK_I_TWO
   \   00019D   12....       LCALL   ?Subroutine15 & 0xFFFF
   \                     ??CrossCallReturnLabel_82:
   \   0001A0   12....       LCALL   ?DEALLOC_XSTACK8
    260          		memcpy(pFrameBuffer+3, p_uhFrame->short_addr, 4);
   \   0001A3                ; Setup parameters for call to function memcpy
   \   0001A3   75..04       MOV     ?V0 + 0,#0x4
   \   0001A6   78..         MOV     R0,#?V0 + 0
   \   0001A8   12....       LCALL   ?PUSH_XSTACK_I_TWO
   \   0001AB   EE           MOV     A,R6
   \   0001AC   2403         ADD     A,#0x3
   \   0001AE   12....       LCALL   ?Subroutine14 & 0xFFFF
   \                     ??CrossCallReturnLabel_23:
   \   0001B1   12....       LCALL   ?DEALLOC_XSTACK8
    261          		memcpy(pFrameBuffer+7, p_uhFrame->tail, 4);
   \   0001B4                ; Setup parameters for call to function memcpy
   \   0001B4   78..         MOV     R0,#?V0 + 0
   \   0001B6   12....       LCALL   ?PUSH_XSTACK_I_TWO
   \   0001B9   EE           MOV     A,R6
   \   0001BA   2407         ADD     A,#0x7
   \   0001BC   FC           MOV     R4,A
   \   0001BD   EF           MOV     A,R7
   \   0001BE   3400         ADDC    A,#0x0
   \   0001C0   FD           MOV     R5,A
   \   0001C1   7A..         MOV     R2,#(pFrameBuffer + 7) & 0xff
   \   0001C3   7B..         MOV     R3,#((pFrameBuffer + 7) >> 8) & 0xff
   \   0001C5   12....       LCALL   ??Subroutine34_0 & 0xFFFF
   \                     ??CrossCallReturnLabel_112:
   \   0001C8   12....       LCALL   ?DEALLOC_XSTACK8
    262          
    263          		pFrameLen = FR_UH_DATA_FIX_LEN;
   \   0001CB   90....       MOV     DPTR,#pFrameLen
   \   0001CE   740B         MOV     A,#0xb
   \   0001D0   12....       LCALL   ?Subroutine20 & 0xFFFF
    264          
    265          		*DstBuf = pFrameBuffer;
    266          		*DstLen = pFrameLen;
   \                     ??CrossCallReturnLabel_40:
   \   0001D3   85..82       MOV     DPL,?V0 + 2
   \   0001D6   85..83       MOV     DPH,?V0 + 3
   \   0001D9   740B         MOV     A,#0xb
   \   0001DB   02....       LJMP    ??SSAFrame_Package_7 & 0xFFFF
    267          	}
    268          	break;
    269          		
    270          	case HEAD_UR: 
    271          	{
    272          		UR_t *p_urFrame = (UR_t *)data;
    273          		memset(pFrameBuffer, 0, sizeof(pFrameBuffer));
   \                     ??SSAFrame_Package_4:
   \   0001DE                ; Setup parameters for call to function memset
   \   0001DE   75..00       MOV     ?V0 + 0,#0x0
   \   0001E1   75..01       MOV     ?V0 + 1,#0x1
   \   0001E4   78..         MOV     R0,#?V0 + 0
   \   0001E6   12....       LCALL   ?PUSH_XSTACK_I_TWO
   \   0001E9   12....       LCALL   ?Subroutine23 & 0xFFFF
   \                     ??CrossCallReturnLabel_75:
   \   0001EC   12....       LCALL   ?DEALLOC_XSTACK8
    274          		memcpy(pFrameBuffer, p_urFrame->head, 3);
   \   0001EF                ; Setup parameters for call to function memcpy
   \   0001EF   75..03       MOV     ?V0 + 0,#0x3
   \   0001F2   75..00       MOV     ?V0 + 1,#0x0
   \   0001F5   78..         MOV     R0,#?V0 + 0
   \   0001F7   12....       LCALL   ?PUSH_XSTACK_I_TWO
   \   0001FA   12....       LCALL   ?Subroutine15 & 0xFFFF
   \                     ??CrossCallReturnLabel_83:
   \   0001FD   12....       LCALL   ?DEALLOC_XSTACK8
    275          		pFrameBuffer[3] = p_urFrame->type;
   \   000200   12....       LCALL   ?Subroutine17 & 0xFFFF
    276          		memcpy(pFrameBuffer+4, p_urFrame->ed_type, 2);
   \                     ??CrossCallReturnLabel_32:
   \   000203   12....       LCALL   ?PUSH_XSTACK_I_TWO
   \   000206   12....       LCALL   ?Subroutine8 & 0xFFFF
   \                     ??CrossCallReturnLabel_8:
   \   000209   12....       LCALL   ?DEALLOC_XSTACK8
    277          		memcpy(pFrameBuffer+6, p_urFrame->short_addr, 4);
   \   00020C                ; Setup parameters for call to function memcpy
   \   00020C   75..04       MOV     ?V0 + 0,#0x4
   \   00020F   8033         SJMP    ??SSAFrame_Package_8
    278          		memcpy(pFrameBuffer+10, p_urFrame->data, p_urFrame->data_len);
    279          		memcpy(pFrameBuffer+10+p_urFrame->data_len, p_urFrame->tail, 4);
    280          
    281          		pFrameLen = FR_HR_DATA_FIX_LEN+p_urFrame->data_len;
    282          
    283          		*DstBuf = pFrameBuffer;
    284          		*DstLen = pFrameLen;
    285          	}
    286          	break;
    287          	
    288          	case HEAD_DE: 
    289          	{
    290          		DE_t *p_deFrame = (DE_t *)data;
    291          		memset(pFrameBuffer, 0, sizeof(pFrameBuffer));
   \                     ??SSAFrame_Package_5:
   \   000211                ; Setup parameters for call to function memset
   \   000211   75..00       MOV     ?V0 + 0,#0x0
   \   000214   75..01       MOV     ?V0 + 1,#0x1
   \   000217   78..         MOV     R0,#?V0 + 0
   \   000219   12....       LCALL   ?PUSH_XSTACK_I_TWO
   \   00021C   12....       LCALL   ?Subroutine23 & 0xFFFF
   \                     ??CrossCallReturnLabel_76:
   \   00021F   12....       LCALL   ?DEALLOC_XSTACK8
    292          		memcpy(pFrameBuffer, p_deFrame->head, 2);
   \   000222                ; Setup parameters for call to function memcpy
   \   000222   75..02       MOV     ?V0 + 0,#0x2
   \   000225   75..00       MOV     ?V0 + 1,#0x0
   \   000228   78..         MOV     R0,#?V0 + 0
   \   00022A   12....       LCALL   ?PUSH_XSTACK_I_TWO
   \   00022D   12....       LCALL   ?Subroutine15 & 0xFFFF
   \                     ??CrossCallReturnLabel_84:
   \   000230   12....       LCALL   ?DEALLOC_XSTACK8
    293          		memcpy(pFrameBuffer+3, p_deFrame->cmd, 4);
   \   000233                ; Setup parameters for call to function memcpy
   \   000233   75..04       MOV     ?V0 + 0,#0x4
   \   000236   78..         MOV     R0,#?V0 + 0
   \   000238   12....       LCALL   ?PUSH_XSTACK_I_TWO
   \   00023B   EE           MOV     A,R6
   \   00023C   2402         ADD     A,#0x2
   \   00023E   12....       LCALL   ?Subroutine14 & 0xFFFF
   \                     ??CrossCallReturnLabel_24:
   \   000241   12....       LCALL   ?DEALLOC_XSTACK8
    294          		memcpy(pFrameBuffer+6, p_deFrame->short_addr, 4);
   \   000244                ; Setup parameters for call to function memcpy
   \                     ??SSAFrame_Package_8:
   \   000244   78..         MOV     R0,#?V0 + 0
   \   000246   12....       LCALL   ?PUSH_XSTACK_I_TWO
   \   000249   12....       LCALL   ?Subroutine9 & 0xFFFF
   \                     ??CrossCallReturnLabel_11:
   \   00024C   12....       LCALL   ?DEALLOC_XSTACK8
    295          		memcpy(pFrameBuffer+10, p_deFrame->data, p_deFrame->data_len);
   \   00024F   EE           MOV     A,R6
   \   000250   240A         ADD     A,#0xa
   \   000252   12....       LCALL   ?Subroutine5 & 0xFFFF
   \                     ??CrossCallReturnLabel_5:
   \   000255   12....       LCALL   ?PUSH_XSTACK_I_TWO
   \   000258   EE           MOV     A,R6
   \   000259   240B         ADD     A,#0xb
   \   00025B   12....       LCALL   ?Subroutine11 & 0xFFFF
   \                     ??CrossCallReturnLabel_17:
   \   00025E   7A..         MOV     R2,#(pFrameBuffer + 10) & 0xff
   \   000260   7B..         MOV     R3,#((pFrameBuffer + 10) >> 8) & 0xff
   \   000262   12....       LCALL   ??Subroutine34_0 & 0xFFFF
   \                     ??CrossCallReturnLabel_113:
   \   000265   12....       LCALL   ?DEALLOC_XSTACK8
    296          		memcpy(pFrameBuffer+10+p_deFrame->data_len, p_deFrame->tail, 4);
   \   000268                ; Setup parameters for call to function memcpy
   \   000268   75..04       MOV     ?V0 + 8,#0x4
   \   00026B   78..         MOV     R0,#?V0 + 8
   \   00026D   12....       LCALL   ?PUSH_XSTACK_I_TWO
   \   000270   EE           MOV     A,R6
   \   000271   240D         ADD     A,#0xd
   \   000273   12....       LCALL   ?Subroutine10 & 0xFFFF
   \                     ??CrossCallReturnLabel_14:
   \   000276   74..         MOV     A,#(pFrameBuffer + 10) & 0xff
   \   000278   28           ADD     A,R0
   \   000279   FA           MOV     R2,A
   \   00027A   74..         MOV     A,#((pFrameBuffer + 10) >> 8) & 0xff
   \   00027C   12....       LCALL   ?Subroutine12 & 0xFFFF
   \                     ??CrossCallReturnLabel_20:
   \   00027F   12....       LCALL   ?DEALLOC_XSTACK8
    297          
    298          		pFrameLen = FR_DE_DATA_FIX_LEN+p_deFrame->data_len;
   \   000282   85..82       MOV     DPL,?V0 + 0
   \   000285   85..83       MOV     DPH,?V0 + 1
   \   000288   E0           MOVX    A,@DPTR
   \   000289   240E         ADD     A,#0xe
   \                     ??SSAFrame_Package_6:
   \   00028B   90....       MOV     DPTR,#pFrameLen
   \   00028E   12....       LCALL   ?Subroutine20 & 0xFFFF
    299          
    300          		*DstBuf = pFrameBuffer;
    301          		*DstLen = pFrameLen;
   \                     ??CrossCallReturnLabel_41:
   \   000291   90....       MOV     DPTR,#pFrameLen
   \   000294   E0           MOVX    A,@DPTR
   \   000295   85..82       MOV     DPL,?V0 + 2
   \   000298   85..83       MOV     DPH,?V0 + 3
   \                     ??SSAFrame_Package_7:
   \   00029B   F0           MOVX    @DPTR,A
   \   00029C   A3           INC     DPTR
   \   00029D   E4           CLR     A
   \   00029E   F0           MOVX    @DPTR,A
    302          	}
    303          	break;
    304          
    305          	default: goto  FR_Package_err;
    306          	}
    307          
    308          	return 0;
   \   00029F   7900         MOV     R1,#0x0
   \   0002A1   8002         SJMP    ??SSAFrame_Package_9
    309          
    310          FR_Package_err:
    311          	return -1;
   \                     ??SSAFrame_Package_0:
   \   0002A3   79FF         MOV     R1,#-0x1
   \                     ??SSAFrame_Package_9:
   \   0002A5   7F0A         MOV     R7,#0xa
   \   0002A7   02....       LJMP    ?BANKED_LEAVE_XDATA
    312          }

   \                                 In  segment BANKED_CODE, align 1, keep-with-next
   \                     ?Subroutine23:
   \   000000   7C00         MOV     R4,#0x0
   \   000002   7D00         MOV     R5,#0x0
   \   000004   7A..         MOV     R2,#pFrameBuffer & 0xff
   \   000006   7B..         MOV     R3,#(pFrameBuffer >> 8) & 0xff
   \   000008                REQUIRE ??Subroutine33_0
   \   000008                ; // Fall through to label ??Subroutine33_0

   \                                 In  segment BANKED_CODE, align 1, keep-with-next
   \                     ?Subroutine20:
   \   000000   F0           MOVX    @DPTR,A
   \   000001   85..82       MOV     DPL,?V0 + 4
   \   000004   85..83       MOV     DPH,?V0 + 5
   \   000007   74..         MOV     A,#pFrameBuffer & 0xff
   \   000009   F0           MOVX    @DPTR,A
   \   00000A   A3           INC     DPTR
   \   00000B   74..         MOV     A,#(pFrameBuffer >> 8) & 0xff
   \   00000D   F0           MOVX    @DPTR,A
   \   00000E   22           RET

   \                                 In  segment BANKED_CODE, align 1, keep-with-next
   \                     ?Subroutine17:
   \   000000   8E82         MOV     DPL,R6
   \   000002   8F83         MOV     DPH,R7
   \   000004   A3           INC     DPTR
   \   000005   A3           INC     DPTR
   \   000006   A3           INC     DPTR
   \   000007   E0           MOVX    A,@DPTR
   \   000008   90....       MOV     DPTR,#pFrameBuffer + 3
   \   00000B   F0           MOVX    @DPTR,A
   \   00000C                ; Setup parameters for call to function memcpy
   \   00000C                ; Setup parameters for call to function memcpy
   \   00000C                ; Setup parameters for call to function memcpy
   \   00000C   75..02       MOV     ?V0 + 0,#0x2
   \   00000F   78..         MOV     R0,#?V0 + 0
   \   000011   22           RET

   \                                 In  segment BANKED_CODE, align 1, keep-with-next
   \                     ?Subroutine15:
   \   000000   EE           MOV     A,R6
   \   000001   FC           MOV     R4,A
   \   000002   EF           MOV     A,R7
   \   000003   FD           MOV     R5,A
   \   000004   7A..         MOV     R2,#pFrameBuffer & 0xff
   \   000006   7B..         MOV     R3,#(pFrameBuffer >> 8) & 0xff
   \   000008                REQUIRE ??Subroutine34_0
   \   000008                ; // Fall through to label ??Subroutine34_0

   \                                 In  segment BANKED_CODE, align 1, keep-with-next
   \                     ?Subroutine14:
   \   000000   FC           MOV     R4,A
   \   000001   EF           MOV     A,R7
   \   000002   3400         ADDC    A,#0x0
   \   000004   FD           MOV     R5,A
   \   000005   7A..         MOV     R2,#(pFrameBuffer + 3) & 0xff
   \   000007   7B..         MOV     R3,#((pFrameBuffer + 3) >> 8) & 0xff
   \   000009   12....       LCALL   ?Subroutine28 & 0xFFFF
   \                     ??CrossCallReturnLabel_116:
   \   00000C   22           RET

   \                                 In  segment BANKED_CODE, align 1, keep-with-next
   \                     ?Subroutine13:
   \   000000   12....       LCALL   ?Subroutine29 & 0xFFFF
   \                     ??CrossCallReturnLabel_55:
   \   000003   7A..         MOV     R2,#(pFrameBuffer + 10) & 0xff
   \   000005   7B..         MOV     R3,#((pFrameBuffer + 10) >> 8) & 0xff
   \   000007   12....       LCALL   ?Subroutine28 & 0xFFFF
   \                     ??CrossCallReturnLabel_117:
   \   00000A   22           RET

   \                                 In  segment BANKED_CODE, align 1, keep-with-next
   \                     ?Subroutine12:
   \   000000   3400         ADDC    A,#0x0
   \   000002   FB           MOV     R3,A
   \   000003   12....       LCALL   ?Subroutine28 & 0xFFFF
   \                     ??CrossCallReturnLabel_118:
   \   000006   22           RET

   \                                 In  segment BANKED_CODE, align 1, keep-with-next
   \                     ?Subroutine11:
   \   000000   F582         MOV     DPL,A
   \   000002   EF           MOV     A,R7
   \   000003   3400         ADDC    A,#0x0
   \   000005   F583         MOV     DPH,A
   \   000007   E0           MOVX    A,@DPTR
   \   000008   FC           MOV     R4,A
   \   000009   A3           INC     DPTR
   \   00000A   E0           MOVX    A,@DPTR
   \   00000B   FD           MOV     R5,A
   \   00000C   22           RET

   \                                 In  segment BANKED_CODE, align 1, keep-with-next
   \                     ?Subroutine10:
   \   000000   FC           MOV     R4,A
   \   000001   EF           MOV     A,R7
   \   000002   3400         ADDC    A,#0x0
   \   000004   FD           MOV     R5,A
   \   000005   85..82       MOV     DPL,?V0 + 0
   \   000008   85..83       MOV     DPH,?V0 + 1
   \   00000B   E0           MOVX    A,@DPTR
   \   00000C   F8           MOV     R0,A
   \   00000D   22           RET

   \                                 In  segment BANKED_CODE, align 1, keep-with-next
   \                     ?Subroutine9:
   \   000000   EE           MOV     A,R6
   \   000001   2406         ADD     A,#0x6
   \   000003   FC           MOV     R4,A
   \   000004   EF           MOV     A,R7
   \   000005   3400         ADDC    A,#0x0
   \   000007   FD           MOV     R5,A
   \   000008   7A..         MOV     R2,#(pFrameBuffer + 6) & 0xff
   \   00000A   7B..         MOV     R3,#((pFrameBuffer + 6) >> 8) & 0xff
   \   00000C   12....       LCALL   ?Subroutine28 & 0xFFFF
   \                     ??CrossCallReturnLabel_119:
   \   00000F   22           RET

   \                                 In  segment BANKED_CODE, align 1, keep-with-next
   \                     ?Subroutine8:
   \   000000   EE           MOV     A,R6
   \   000001   2404         ADD     A,#0x4
   \   000003   FC           MOV     R4,A
   \   000004   EF           MOV     A,R7
   \   000005   3400         ADDC    A,#0x0
   \   000007   FD           MOV     R5,A
   \   000008   7A..         MOV     R2,#(pFrameBuffer + 4) & 0xff
   \   00000A   7B..         MOV     R3,#((pFrameBuffer + 4) >> 8) & 0xff
   \   00000C   12....       LCALL   ?Subroutine28 & 0xFFFF
   \                     ??CrossCallReturnLabel_120:
   \   00000F   22           RET

   \                                 In  segment BANKED_CODE, align 1, keep-with-next
   \                     ?Subroutine5:
   \   000000   12....       LCALL   ?Subroutine27 & 0xFFFF
   \                     ??CrossCallReturnLabel_52:
   \   000003   F5..         MOV     ?V0 + 8,A
   \   000005   75..00       MOV     ?V0 + 9,#0x0
   \   000008   78..         MOV     R0,#?V0 + 8
   \   00000A   22           RET
    313          
    314          #ifdef RS485_DEV

   \                                 In  segment BANKED_CODE, align 1, keep-with-next
    315          void rs485_state(uint8 *data, uint16 length)
   \                     rs485_state:
    316          {
   \   000000   C082         PUSH    DPL
   \   000002   C083         PUSH    DPH
   \   000004                ; Saved register size: 2
   \   000004                ; Auto size: 0
    317          #ifdef SHT11_DEV
    318                  //温湿度传感器
    319                  SHT11_Finish();//获取数据并且装入结构体
    320                  Res_Inquire();
    321          #endif
    322          #ifdef IOCTL_DEV
    323                  //控制设备
    324                  Res_Ioctrl();
   \   000004                ; Setup parameters for call to function Res_Ioctrl
   \   000004   12....       LCALL   ??Res_Ioctrl?relay
    325          #endif
    326          #ifdef QTJC_DEV
    327                  //气体类检测
    328                 QT_ResInquire();
    329          #endif
    330          #ifdef LUX_DEV
    331                 //光照强度计数
    332                 LUX_ResInquire();
    333          #endif      
    334          }
   \   000007   D083         POP     DPH
   \   000009   D082         POP     DPL
   \   00000B   02....       LJMP    ?BRET
    335          

   \                                 In  segment BANKED_CODE, align 1, keep-with-next
    336          void Res_Inquire(void)
   \                     Res_Inquire:
    337          {
   \   000000   74F4         MOV     A,#-0xc
   \   000002   12....       LCALL   ?BANKED_ENTER_XDATA
   \   000005                ; Saved register size: 12
   \   000005                ; Auto size: 9
   \   000005   74F7         MOV     A,#-0x9
   \   000007   12....       LCALL   ?ALLOC_XSTACK8
    338            uint8 send_buf[9];
    339            int crcdata;
    340            send_buf[0]=Address_dev;//设备地址
   \   00000A   12....       LCALL   ?Subroutine16 & 0xFFFF
    341            send_buf[1]=0x03;
   \                     ??CrossCallReturnLabel_25:
   \   00000D   12....       LCALL   ?XSTACK_DISP0_8
   \   000010   7403         MOV     A,#0x3
   \   000012   F0           MOVX    @DPTR,A
    342            send_buf[2]=0x04;
   \   000013   14           DEC     A
   \   000014   12....       LCALL   ?XSTACK_DISP0_8
   \   000017   7404         MOV     A,#0x4
   \   000019   F0           MOVX    @DPTR,A
    343            send_buf[3]=SHT11.Temp_byte[0];//温度值
   \   00001A   90....       MOV     DPTR,#SHT11
   \   00001D   E0           MOVX    A,@DPTR
   \   00001E   C0E0         PUSH    A
   \   000020   7403         MOV     A,#0x3
   \   000022   12....       LCALL   ?XSTACK_DISP0_8
   \   000025   D0E0         POP     A
   \   000027   F0           MOVX    @DPTR,A
    344            send_buf[4]=SHT11.Temp_byte[1];
   \   000028   90....       MOV     DPTR,#SHT11 + 1
   \   00002B   E0           MOVX    A,@DPTR
   \   00002C   C0E0         PUSH    A
   \   00002E   7404         MOV     A,#0x4
   \   000030   12....       LCALL   ?XSTACK_DISP0_8
   \   000033   D0E0         POP     A
   \   000035   F0           MOVX    @DPTR,A
    345            send_buf[5]=SHT11.Humi_byte[0];//湿度值
   \   000036   90....       MOV     DPTR,#SHT11 + 2
   \   000039   E0           MOVX    A,@DPTR
   \   00003A   C0E0         PUSH    A
   \   00003C   7405         MOV     A,#0x5
   \   00003E   12....       LCALL   ?XSTACK_DISP0_8
   \   000041   D0E0         POP     A
   \   000043   F0           MOVX    @DPTR,A
    346            send_buf[6]=SHT11.Humi_byte[1];
   \   000044   90....       MOV     DPTR,#SHT11 + 3
   \   000047                REQUIRE ?Subroutine3
   \   000047                ; // Fall through to label ?Subroutine3
    347            crcdata=crc16(send_buf, 7);
    348            send_buf[7]=crcdata&0x00ff;
    349            send_buf[8]=crcdata>>8;
    350          #ifdef UART_DEBUG
    351            Data_TxHandler(send_buf, 9);
    352          #endif
    353            CommonApp_SendTheMessage(0x0000, send_buf, 9);
    354          }

   \                                 In  segment BANKED_CODE, align 1, keep-with-next
   \                     ?Subroutine3:
   \   000000   E0           MOVX    A,@DPTR
   \   000001   C0E0         PUSH    A
   \   000003   7406         MOV     A,#0x6
   \   000005   12....       LCALL   ?XSTACK_DISP0_8
   \   000008   D0E0         POP     A
   \   00000A   12....       LCALL   ?Subroutine22 & 0xFFFF
   \                     ??CrossCallReturnLabel_45:
   \   00000D   AA82         MOV     R2,DPL
   \   00000F   AB83         MOV     R3,DPH
   \   000011   12....       LCALL   ??crc16?relay
   \   000014   8A..         MOV     ?V0 + 0,R2
   \   000016   8B..         MOV     ?V0 + 1,R3
   \   000018   7407         MOV     A,#0x7
   \   00001A   12....       LCALL   ?XSTACK_DISP0_8
   \   00001D   EA           MOV     A,R2
   \   00001E   F0           MOVX    @DPTR,A
   \   00001F   7408         MOV     A,#0x8
   \   000021   78..         MOV     R0,#?V0 + 0
   \   000023   12....       LCALL   ?SS_SHR
   \   000026   7408         MOV     A,#0x8
   \   000028   12....       LCALL   ?XSTACK_DISP0_8
   \   00002B   E5..         MOV     A,?V0 + 0
   \   00002D   F0           MOVX    @DPTR,A
   \   00002E                ; Setup parameters for call to function CommonApp_SendTheMessage
   \   00002E                ; Setup parameters for call to function CommonApp_SendTheMessage
   \   00002E   7909         MOV     R1,#0x9
   \   000030   85..82       MOV     DPL,?XSP + 0
   \   000033   85..83       MOV     DPH,?XSP + 1
   \   000036   AC82         MOV     R4,DPL
   \   000038   AD83         MOV     R5,DPH
   \   00003A   7A00         MOV     R2,#0x0
   \   00003C   7B00         MOV     R3,#0x0
   \   00003E   12....       LCALL   ??CommonApp_SendTheMessage?relay
   \   000041   7409         MOV     A,#0x9
   \   000043   80..         SJMP    ??Subroutine35_0

   \                                 In  segment BANKED_CODE, align 1, keep-with-next
   \                     ??Subroutine35_0:
   \   000000   12....       LCALL   ?DEALLOC_XSTACK8
   \   000003   7F04         MOV     R7,#0x4
   \   000005   02....       LJMP    ?BANKED_LEAVE_XDATA

   \                                 In  segment BANKED_CODE, align 1, keep-with-next
   \                     ?Subroutine22:
   \   000000   F0           MOVX    @DPTR,A
   \   000001                ; Setup parameters for call to function crc16
   \   000001                ; Setup parameters for call to function crc16
   \   000001                ; Setup parameters for call to function CommonApp_SendTheMessage
   \   000001                ; Setup parameters for call to function CommonApp_SendTheMessage
   \   000001   7907         MOV     R1,#0x7
   \   000003   85..82       MOV     DPL,?XSP + 0
   \   000006   85..83       MOV     DPH,?XSP + 1
   \   000009   22           RET

   \                                 In  segment BANKED_CODE, align 1, keep-with-next
   \                     ?Subroutine16:
   \   000000   90....       MOV     DPTR,#Address_dev
   \   000003   E0           MOVX    A,@DPTR
   \   000004   85..82       MOV     DPL,?XSP + 0
   \   000007   85..83       MOV     DPH,?XSP + 1
   \   00000A   F0           MOVX    @DPTR,A
   \   00000B   7401         MOV     A,#0x1
   \   00000D   22           RET
    355          

   \                                 In  segment BANKED_CODE, align 1, keep-with-next
    356          void Res_Ioctrl(void)
   \                     Res_Ioctrl:
    357          {
   \   000000   74F4         MOV     A,#-0xc
   \   000002   12....       LCALL   ?BANKED_ENTER_XDATA
   \   000005                ; Saved register size: 12
   \   000005                ; Auto size: 9
   \   000005   74F7         MOV     A,#-0x9
   \   000007   12....       LCALL   ?ALLOC_XSTACK8
    358            uint8 send_buf[9];
    359            int crcdata;
    360            send_buf[0]=Address_dev;//设备地址
   \   00000A   12....       LCALL   ?Subroutine16 & 0xFFFF
    361            send_buf[1]=0x03;
   \                     ??CrossCallReturnLabel_26:
   \   00000D   12....       LCALL   ?XSTACK_DISP0_8
   \   000010   7403         MOV     A,#0x3
   \   000012   F0           MOVX    @DPTR,A
    362            send_buf[2]=0x04;
   \   000013   14           DEC     A
   \   000014   12....       LCALL   ?XSTACK_DISP0_8
   \   000017   7404         MOV     A,#0x4
   \   000019   F0           MOVX    @DPTR,A
    363            send_buf[3]=Device_state[0];
   \   00001A   90....       MOV     DPTR,#Device_state
   \   00001D   E0           MOVX    A,@DPTR
   \   00001E   C0E0         PUSH    A
   \   000020   7403         MOV     A,#0x3
   \   000022   12....       LCALL   ?XSTACK_DISP0_8
   \   000025   D0E0         POP     A
   \   000027   F0           MOVX    @DPTR,A
    364            send_buf[4]=Device_state[1];
   \   000028   90....       MOV     DPTR,#Device_state + 1
   \   00002B   E0           MOVX    A,@DPTR
   \   00002C   C0E0         PUSH    A
   \   00002E   7404         MOV     A,#0x4
   \   000030   12....       LCALL   ?XSTACK_DISP0_8
   \   000033   D0E0         POP     A
   \   000035   F0           MOVX    @DPTR,A
    365            send_buf[5]=Device_state[2];
   \   000036   90....       MOV     DPTR,#Device_state + 2
   \   000039   E0           MOVX    A,@DPTR
   \   00003A   C0E0         PUSH    A
   \   00003C   7405         MOV     A,#0x5
   \   00003E   12....       LCALL   ?XSTACK_DISP0_8
   \   000041   D0E0         POP     A
   \   000043   F0           MOVX    @DPTR,A
    366            send_buf[6]=Device_state[3];
   \   000044   90....       MOV     DPTR,#Device_state + 3
   \   000047   02....       LJMP    ?Subroutine3 & 0xFFFF
    367            crcdata=crc16(send_buf, 7);
    368            send_buf[7]=crcdata&0x00ff;
    369            send_buf[8]=crcdata>>8;
    370          #ifdef UART_DEBUG
    371            Data_TxHandler(send_buf, 9);
    372          #endif
    373            CommonApp_SendTheMessage(0x0000, send_buf, 9);
    374          }
    375          

   \                                 In  segment BANKED_CODE, align 1, keep-with-next
   \                     ?Subroutine0:
   \   000000   12....       LCALL   ?XSTACK_DISP0_8
   \   000003   EB           MOV     A,R3
   \   000004   F0           MOVX    @DPTR,A
   \   000005   7404         MOV     A,#0x4
   \   000007   12....       LCALL   ?XSTACK_DISP0_8
   \   00000A   EA           MOV     A,R2
   \   00000B   F0           MOVX    @DPTR,A
   \   00000C                ; Setup parameters for call to function crc16
   \   00000C                ; Setup parameters for call to function crc16
   \   00000C   7905         MOV     R1,#0x5
   \   00000E   85..82       MOV     DPL,?XSP + 0
   \   000011   85..83       MOV     DPH,?XSP + 1
   \   000014   AA82         MOV     R2,DPL
   \   000016   AB83         MOV     R3,DPH
   \   000018   12....       LCALL   ??crc16?relay
   \   00001B   8A..         MOV     ?V0 + 0,R2
   \   00001D   8B..         MOV     ?V0 + 1,R3
   \   00001F   7405         MOV     A,#0x5
   \   000021   12....       LCALL   ?XSTACK_DISP0_8
   \   000024   EA           MOV     A,R2
   \   000025   F0           MOVX    @DPTR,A
   \   000026   7408         MOV     A,#0x8
   \   000028   78..         MOV     R0,#?V0 + 0
   \   00002A   12....       LCALL   ?SS_SHR
   \   00002D   7406         MOV     A,#0x6
   \   00002F   12....       LCALL   ?XSTACK_DISP0_8
   \   000032   E5..         MOV     A,?V0 + 0
   \   000034   12....       LCALL   ?Subroutine22 & 0xFFFF
   \                     ??CrossCallReturnLabel_46:
   \   000037   AC82         MOV     R4,DPL
   \   000039   AD83         MOV     R5,DPH
   \   00003B   7A00         MOV     R2,#0x0
   \   00003D   7B00         MOV     R3,#0x0
   \   00003F   12....       LCALL   ??CommonApp_SendTheMessage?relay
   \   000042   7407         MOV     A,#0x7
   \   000044                REQUIRE ??Subroutine35_0
   \   000044                ; // Fall through to label ??Subroutine35_0

   \                                 In  segment BANKED_CODE, align 1, keep-with-next
    376          void QT_ResInquire(void)
   \                     QT_ResInquire:
    377          {
   \   000000   74F4         MOV     A,#-0xc
   \   000002   12....       LCALL   ?BANKED_ENTER_XDATA
   \   000005                ; Saved register size: 12
   \   000005                ; Auto size: 7
   \   000005   74F9         MOV     A,#-0x7
   \   000007   12....       LCALL   ?ALLOC_XSTACK8
    378            //气体检测
    379            uint8 send_buf[7];
    380            int crcdata;
    381            send_buf[0]=Address_dev;//设备地址
   \   00000A   12....       LCALL   ?Subroutine16 & 0xFFFF
    382            send_buf[1]=0x03;
   \                     ??CrossCallReturnLabel_27:
   \   00000D   12....       LCALL   ?XSTACK_DISP0_8
   \   000010   7403         MOV     A,#0x3
   \   000012   F0           MOVX    @DPTR,A
    383            send_buf[2]=0x02;
   \   000013   14           DEC     A
   \   000014   12....       LCALL   ?XSTACK_DISP0_8
   \   000017   7402         MOV     A,#0x2
   \   000019   F0           MOVX    @DPTR,A
    384            uint16 QT_Tmp = HalAdcRead (HAL_ADC_CHANNEL_1, HAL_ADC_RESOLUTION_12);
   \   00001A                ; Setup parameters for call to function HalAdcRead
   \   00001A   7A03         MOV     R2,#0x3
   \   00001C   7901         MOV     R1,#0x1
   \   00001E   12....       LCALL   ??HalAdcRead?relay
    385            send_buf[3]=QT_Tmp>>8;     //高位在前
   \   000021   7403         MOV     A,#0x3
   \   000023   02....       LJMP    ?Subroutine0 & 0xFFFF
    386            send_buf[4]=QT_Tmp&0x00ff; //低位在后
    387            //矫正输出
    388            crcdata=crc16(send_buf, 5);
    389            send_buf[5]=crcdata&0x00ff;
    390            send_buf[6]=crcdata>>8;
    391          #ifdef UART_DEBUG
    392            Data_TxHandler(send_buf, 7);
    393          #endif
    394            CommonApp_SendTheMessage(0x0000, send_buf, 7);
    395          }
    396          

   \                                 In  segment BANKED_CODE, align 1, keep-with-next
    397          void LUX_ResInquire(void)
   \                     LUX_ResInquire:
    398          {
   \   000000   74F4         MOV     A,#-0xc
   \   000002   12....       LCALL   ?BANKED_ENTER_XDATA
   \   000005                ; Saved register size: 12
   \   000005                ; Auto size: 7
   \   000005   74F9         MOV     A,#-0x7
   \   000007   12....       LCALL   ?ALLOC_XSTACK8
    399            //光照查询
    400            uint16 LUX_value=Light();
   \   00000A                ; Setup parameters for call to function Light
   \   00000A   12....       LCALL   ??Light?relay
    401          #ifdef DE_BUG
    402            uint8 LUX_Buf[5];
    403            conversion(LUX_value,LUX_Buf);
    404            HalUARTWrite(0,LUX_Buf,5);
    405          #endif
    406             uint8 send_buf[7];
    407             int crcdata;
    408             send_buf[0]=Address_dev;//设备地址
   \   00000D   12....       LCALL   ?Subroutine16 & 0xFFFF
    409             send_buf[1]=0x03;
   \                     ??CrossCallReturnLabel_28:
   \   000010   12....       LCALL   ?XSTACK_DISP0_8
   \   000013   7403         MOV     A,#0x3
   \   000015   F0           MOVX    @DPTR,A
    410             send_buf[2]=0x02;
   \   000016   14           DEC     A
   \   000017   12....       LCALL   ?XSTACK_DISP0_8
   \   00001A   7402         MOV     A,#0x2
   \   00001C   F0           MOVX    @DPTR,A
    411             send_buf[3]=LUX_value>>8;
   \   00001D   04           INC     A
   \   00001E   02....       LJMP    ?Subroutine0 & 0xFFFF
    412             send_buf[4]=LUX_value&0x00ff;
    413             crcdata=crc16(send_buf, 5);
    414             send_buf[5]=crcdata&0x00ff;
    415             send_buf[6]=crcdata>>8;
    416          #ifdef UART_DEBUG
    417             Data_TxHandler(send_buf, 7);
    418          #endif
    419             CommonApp_SendTheMessage(0x0000, send_buf, 7);
    420          }
    421          

   \                                 In  segment BANKED_CODE, align 1, keep-with-next
    422          void rs485_control(uint8 *data, uint16 length)
   \                     rs485_control:
    423          {
   \   000000   74F4         MOV     A,#-0xc
   \   000002   12....       LCALL   ?BANKED_ENTER_XDATA
   \   000005                ; Saved register size: 12
   \   000005                ; Auto size: 8
   \   000005   74F8         MOV     A,#-0x8
   \   000007   12....       LCALL   ?ALLOC_XSTACK8
    424            unsigned  char buf_tmp[8];
    425          	osal_memcpy(buf_tmp,data,length);
   \   00000A                ; Setup parameters for call to function osal_memcpy
   \   00000A   8A..         MOV     ?V0 + 0,R2
   \   00000C   8B..         MOV     ?V0 + 1,R3
   \   00000E   75..00       MOV     ?V0 + 2,#0x0
   \   000011   78..         MOV     R0,#?V0 + 0
   \   000013   12....       LCALL   ?PUSH_XSTACK_I_THREE
   \   000016   7403         MOV     A,#0x3
   \   000018   12....       LCALL   ?XSTACK_DISP0_8
   \   00001B   AA82         MOV     R2,DPL
   \   00001D   AB83         MOV     R3,DPH
   \   00001F   12....       LCALL   ??osal_memcpy?relay
   \   000022   7403         MOV     A,#0x3
   \   000024   12....       LCALL   ?DEALLOC_XSTACK8
    426                  int i;
    427                  for(i=0;i<4;i++)
   \   000027   75..00       MOV     ?V0 + 0,#0x0
   \   00002A   75..00       MOV     ?V0 + 1,#0x0
   \   00002D   7402         MOV     A,#0x2
   \   00002F   12....       LCALL   ?XSTACK_DISP0_8
   \   000032   AE82         MOV     R6,DPL
   \   000034   AF83         MOV     R7,DPH
    428                  {
    429                    if(buf_tmp[2+i]==0x01)
   \                     ??rs485_control_0:
   \   000036   75..01       MOV     ?V0 + 2,#0x1
   \   000039   75..00       MOV     ?V0 + 3,#0x0
   \   00003C   E5..         MOV     A,?V0 + 0
   \   00003E   78..         MOV     R0,#?V0 + 2
   \   000040   12....       LCALL   ?S_SHL
   \   000043   A9..         MOV     R1,?V0 + 2
   \   000045   74..         MOV     A,#Device_state & 0xff
   \   000047   25..         ADD     A,?V0 + 0
   \   000049   FA           MOV     R2,A
   \   00004A   74..         MOV     A,#(Device_state >> 8) & 0xff
   \   00004C   35..         ADDC    A,?V0 + 1
   \   00004E   FB           MOV     R3,A
   \   00004F   8A..         MOV     ?V0 + 2,R2
   \   000051   8B..         MOV     ?V0 + 3,R3
   \   000053   8E82         MOV     DPL,R6
   \   000055   8F83         MOV     DPH,R7
   \   000057   E0           MOVX    A,@DPTR
   \   000058   6401         XRL     A,#0x1
   \   00005A   7009         JNZ     ??rs485_control_1
    430                    {
    431                      HalGpioSet( 1<<i, HAL_GPIO_MODE_ON );
   \   00005C                ; Setup parameters for call to function HalGpioSet
   \   00005C   7A01         MOV     R2,#0x1
   \   00005E   12....       LCALL   ?Subroutine26 & 0xFFFF
    432                      Device_state[i]=0x01;
    433                    }
   \                     ??CrossCallReturnLabel_49:
   \   000061   7401         MOV     A,#0x1
   \   000063   8006         SJMP    ??rs485_control_2
    434                    else
    435                    {
    436                      HalGpioSet( 1<<i, HAL_GPIO_MODE_OFF );
   \                     ??rs485_control_1:
   \   000065                ; Setup parameters for call to function HalGpioSet
   \   000065   7A00         MOV     R2,#0x0
   \   000067   12....       LCALL   ?Subroutine26 & 0xFFFF
    437                      Device_state[i]=0x00;
    438                    }
    439                  }
   \                     ??CrossCallReturnLabel_50:
   \   00006A   E4           CLR     A
   \                     ??rs485_control_2:
   \   00006B   F0           MOVX    @DPTR,A
   \   00006C   E5..         MOV     A,?V0 + 0
   \   00006E   2401         ADD     A,#0x1
   \   000070   F5..         MOV     ?V0 + 0,A
   \   000072   E5..         MOV     A,?V0 + 1
   \   000074   3400         ADDC    A,#0x0
   \   000076   F5..         MOV     ?V0 + 1,A
   \   000078   8E82         MOV     DPL,R6
   \   00007A   8F83         MOV     DPH,R7
   \   00007C   A3           INC     DPTR
   \   00007D   AE82         MOV     R6,DPL
   \   00007F   AF83         MOV     R7,DPH
   \   000081   C3           CLR     C
   \   000082   E5..         MOV     A,?V0 + 0
   \   000084   9404         SUBB    A,#0x4
   \   000086   E5..         MOV     A,?V0 + 1
   \   000088   9400         SUBB    A,#0x0
   \   00008A   A2D2         MOV     C,0xD0 /* PSW */.2
   \   00008C   65D0         XRL     A,PSW
   \   00008E   33           RLC     A
   \   00008F   40A5         JC      ??rs485_control_0
    440                  Res_Ioctrl();
   \   000091                ; Setup parameters for call to function Res_Ioctrl
   \   000091   12....       LCALL   ??Res_Ioctrl?relay
    441           
    442          }
   \   000094   7408         MOV     A,#0x8
   \   000096   02....       LJMP    ??Subroutine35_0 & 0xFFFF

   \                                 In  segment BANKED_CODE, align 1, keep-with-next
   \                     ?Subroutine26:
   \   000000   12....       LCALL   ??HalGpioSet?relay
   \   000003   85..82       MOV     DPL,?V0 + 2
   \   000006   85..83       MOV     DPH,?V0 + 3
   \   000009   22           RET

   \                                 In  segment BANKED_CODE, align 1, keep-with-next
    443          void rs485_changeAddr(uint8 *data, uint16 length)
   \                     rs485_changeAddr:
    444          {
   \   000000   74F5         MOV     A,#-0xb
   \   000002   12....       LCALL   ?BANKED_ENTER_XDATA
   \   000005                ; Saved register size: 11
   \   000005                ; Auto size: 8
   \   000005   74F8         MOV     A,#-0x8
   \   000007   12....       LCALL   ?ALLOC_XSTACK8
    445                  uint8 buf_tmp[8];
    446          	osal_memcpy(buf_tmp,data,length);
   \   00000A                ; Setup parameters for call to function osal_memcpy
   \   00000A   8A..         MOV     ?V0 + 0,R2
   \   00000C   8B..         MOV     ?V0 + 1,R3
   \   00000E   75..00       MOV     ?V0 + 2,#0x0
   \   000011   78..         MOV     R0,#?V0 + 0
   \   000013   12....       LCALL   ?PUSH_XSTACK_I_THREE
   \   000016   7403         MOV     A,#0x3
   \   000018   12....       LCALL   ?XSTACK_DISP0_8
   \   00001B   AA82         MOV     R2,DPL
   \   00001D   AB83         MOV     R3,DPH
   \   00001F   12....       LCALL   ??osal_memcpy?relay
   \   000022   7403         MOV     A,#0x3
   \   000024   12....       LCALL   ?DEALLOC_XSTACK8
    447             	Address_dev=buf_tmp[5];
   \   000027   7405         MOV     A,#0x5
   \   000029   12....       LCALL   ?XSTACK_DISP0_8
   \   00002C   E0           MOVX    A,@DPTR
   \   00002D   90....       MOV     DPTR,#Address_dev
   \   000030   F0           MOVX    @DPTR,A
    448          	osal_nv_item_init(ZCD_DEV_ADDRESS, 1, NULL);
   \   000031                ; Setup parameters for call to function osal_nv_item_init
   \   000031   E4           CLR     A
   \   000032   F5..         MOV     ?V0 + 0,A
   \   000034   F5..         MOV     ?V0 + 1,A
   \   000036   78..         MOV     R0,#?V0 + 0
   \   000038   12....       LCALL   ?PUSH_XSTACK_I_TWO
   \   00003B   7C01         MOV     R4,#0x1
   \   00003D   7D00         MOV     R5,#0x0
   \   00003F   7A02         MOV     R2,#0x2
   \   000041   7B02         MOV     R3,#0x2
   \   000043   12....       LCALL   ??osal_nv_item_init?relay
   \   000046   7402         MOV     A,#0x2
   \   000048   12....       LCALL   ?DEALLOC_XSTACK8
    449          	osal_nv_write(ZCD_DEV_ADDRESS, 0, 1, &Address_dev);
   \   00004B                ; Setup parameters for call to function osal_nv_write
   \   00004B   75....       MOV     ?V0 + 0,#Address_dev & 0xff
   \   00004E   75....       MOV     ?V0 + 1,#(Address_dev >> 8) & 0xff
   \   000051   78..         MOV     R0,#?V0 + 0
   \   000053   12....       LCALL   ?PUSH_XSTACK_I_TWO
   \   000056   75..01       MOV     ?V0 + 0,#0x1
   \   000059   75..00       MOV     ?V0 + 1,#0x0
   \   00005C   78..         MOV     R0,#?V0 + 0
   \   00005E   12....       LCALL   ?PUSH_XSTACK_I_TWO
   \   000061   7C00         MOV     R4,#0x0
   \   000063   7D00         MOV     R5,#0x0
   \   000065   7A02         MOV     R2,#0x2
   \   000067   7B02         MOV     R3,#0x2
   \   000069   12....       LCALL   ??osal_nv_write?relay
   \   00006C   7404         MOV     A,#0x4
   \   00006E   12....       LCALL   ?DEALLOC_XSTACK8
    450                  rs485_address();
   \   000071                ; Setup parameters for call to function rs485_address
   \   000071   12....       LCALL   ??rs485_address?relay
    451          }
   \   000074   7408         MOV     A,#0x8
   \   000076                REQUIRE ?Subroutine1
   \   000076                ; // Fall through to label ?Subroutine1

   \                                 In  segment BANKED_CODE, align 1, keep-with-next
   \                     ?Subroutine1:
   \   000000   12....       LCALL   ?DEALLOC_XSTACK8
   \   000003   7F03         MOV     R7,#0x3
   \   000005   02....       LJMP    ?BANKED_LEAVE_XDATA

   \                                 In  segment BANKED_CODE, align 1, keep-with-next
    452          void rs485_address(void)
   \                     rs485_address:
    453          {
   \   000000   74F6         MOV     A,#-0xa
   \   000002   12....       LCALL   ?BANKED_ENTER_XDATA
   \   000005                ; Saved register size: 10
   \   000005                ; Auto size: 6
   \   000005   74FA         MOV     A,#-0x6
   \   000007   12....       LCALL   ?ALLOC_XSTACK8
    454                  uint8 send_buf[6];
    455            	unsigned int Crc_data=0;
    456          	send_buf[0]=Address_dev;
   \   00000A   12....       LCALL   ?Subroutine16 & 0xFFFF
    457          	send_buf[1]=0x25;
   \                     ??CrossCallReturnLabel_29:
   \   00000D   12....       LCALL   ?XSTACK_DISP0_8
   \   000010   7425         MOV     A,#0x25
   \   000012   F0           MOVX    @DPTR,A
    458          	send_buf[2]=0x01;
   \   000013   7402         MOV     A,#0x2
   \   000015   12....       LCALL   ?XSTACK_DISP0_8
   \   000018   7401         MOV     A,#0x1
   \   00001A   F0           MOVX    @DPTR,A
    459          	send_buf[3]=0x02;
   \   00001B   7403         MOV     A,#0x3
   \   00001D   12....       LCALL   ?XSTACK_DISP0_8
   \   000020   7402         MOV     A,#0x2
   \   000022   F0           MOVX    @DPTR,A
    460          	Crc_data=crc16(send_buf, 4);
   \   000023                ; Setup parameters for call to function crc16
   \   000023   7904         MOV     R1,#0x4
   \   000025   85..82       MOV     DPL,?XSP + 0
   \   000028   85..83       MOV     DPH,?XSP + 1
   \   00002B   AA82         MOV     R2,DPL
   \   00002D   AB83         MOV     R3,DPH
   \   00002F   12....       LCALL   ??crc16?relay
    461          	send_buf[4]=Crc_data&0x00ff;
   \   000032   7404         MOV     A,#0x4
   \   000034   12....       LCALL   ?XSTACK_DISP0_8
   \   000037   EA           MOV     A,R2
   \   000038   F0           MOVX    @DPTR,A
    462          	send_buf[5]=Crc_data>>8;
   \   000039   7405         MOV     A,#0x5
   \   00003B   12....       LCALL   ?XSTACK_DISP0_8
   \   00003E   EB           MOV     A,R3
   \   00003F   F0           MOVX    @DPTR,A
    463          #ifdef   UART_DEBUG     
    464                  Data_TxHandler(send_buf, 6);
    465          #endif
    466                CommonApp_SendTheMessage(0x0000, send_buf, 6); 
   \   000040                ; Setup parameters for call to function CommonApp_SendTheMessage
   \   000040   7906         MOV     R1,#0x6
   \   000042   85..82       MOV     DPL,?XSP + 0
   \   000045   85..83       MOV     DPH,?XSP + 1
   \   000048   AC82         MOV     R4,DPL
   \   00004A   AD83         MOV     R5,DPH
   \   00004C   7A00         MOV     R2,#0x0
   \   00004E   7B00         MOV     R3,#0x0
   \   000050   12....       LCALL   ??CommonApp_SendTheMessage?relay
    467           
    468          }
   \   000053   7406         MOV     A,#0x6
   \   000055   12....       LCALL   ?DEALLOC_XSTACK8
   \   000058                REQUIRE ?Subroutine2
   \   000058                ; // Fall through to label ?Subroutine2

   \                                 In  segment BANKED_CODE, align 1, keep-with-next
   \                     ?Subroutine2:
   \   000000   7F02         MOV     R7,#0x2
   \   000002   02....       LJMP    ?BANKED_LEAVE_XDATA
    469          

   \                                 In  segment BANKED_CODE, align 1, keep-with-next
    470          bool crc_confirm(uint8 SrcBuf[],uint8 SrcLen)
   \                     crc_confirm:
    471          {
   \   000000   74F5         MOV     A,#-0xb
   \   000002   12....       LCALL   ?BANKED_ENTER_XDATA
   \   000005                ; Saved register size: 11
   \   000005                ; Auto size: 2
   \   000005   74FE         MOV     A,#-0x2
   \   000007   12....       LCALL   ?ALLOC_XSTACK8
   \   00000A   EA           MOV     A,R2
   \   00000B   FE           MOV     R6,A
   \   00000C   EB           MOV     A,R3
   \   00000D   FF           MOV     R7,A
   \   00000E   89..         MOV     ?V0 + 2,R1
    472            uint8 crcbuf[2];
    473            unsigned int crc_tmp;
    474            crc_tmp=crc16(SrcBuf,SrcLen-2);
   \   000010                ; Setup parameters for call to function crc16
   \   000010   19           DEC     R1
   \   000011   19           DEC     R1
   \   000012   12....       LCALL   ??crc16?relay
    475            crcbuf[0]=crc_tmp&0x00ff;//crc低8位
   \   000015   EA           MOV     A,R2
   \   000016   85..82       MOV     DPL,?XSP + 0
   \   000019   85..83       MOV     DPH,?XSP + 1
   \   00001C   F0           MOVX    @DPTR,A
    476            crcbuf[1]=crc_tmp>>8;//crc高8位
   \   00001D   7401         MOV     A,#0x1
   \   00001F   12....       LCALL   ?XSTACK_DISP0_8
   \   000022   EB           MOV     A,R3
   \   000023   F0           MOVX    @DPTR,A
    477            if((crcbuf[0]==SrcBuf[SrcLen-2])&&(crcbuf[1]==SrcBuf[SrcLen-1]))
   \   000024   85....       MOV     ?V0 + 0,?V0 + 2
   \   000027   EE           MOV     A,R6
   \   000028   25..         ADD     A,?V0 + 0
   \   00002A   F8           MOV     R0,A
   \   00002B   EF           MOV     A,R7
   \   00002C   3400         ADDC    A,#0x0
   \   00002E   F9           MOV     R1,A
   \   00002F   85..82       MOV     DPL,?XSP + 0
   \   000032   85..83       MOV     DPH,?XSP + 1
   \   000035   E0           MOVX    A,@DPTR
   \   000036   FA           MOV     R2,A
   \   000037   E8           MOV     A,R0
   \   000038   24FE         ADD     A,#-0x2
   \   00003A   F582         MOV     DPL,A
   \   00003C   E9           MOV     A,R1
   \   00003D   34FF         ADDC    A,#-0x1
   \   00003F   F583         MOV     DPH,A
   \   000041   E0           MOVX    A,@DPTR
   \   000042   6A           XRL     A,R2
   \   000043   7019         JNZ     ??crc_confirm_0
   \   000045   7401         MOV     A,#0x1
   \   000047   12....       LCALL   ?XSTACK_DISP0_8
   \   00004A   E0           MOVX    A,@DPTR
   \   00004B   FA           MOV     R2,A
   \   00004C   E8           MOV     A,R0
   \   00004D   24FF         ADD     A,#-0x1
   \   00004F   F582         MOV     DPL,A
   \   000051   E9           MOV     A,R1
   \   000052   34FF         ADDC    A,#-0x1
   \   000054   F583         MOV     DPH,A
   \   000056   E0           MOVX    A,@DPTR
   \   000057   6A           XRL     A,R2
   \   000058   7004         JNZ     ??crc_confirm_0
    478            {
    479              return true;
   \   00005A   7901         MOV     R1,#0x1
   \   00005C   8002         SJMP    ??crc_confirm_1
    480            }
    481            else
    482              return false;
   \                     ??crc_confirm_0:
   \   00005E   7900         MOV     R1,#0x0
   \                     ??crc_confirm_1:
   \   000060   7402         MOV     A,#0x2
   \   000062   02....       LJMP    ?Subroutine1 & 0xFFFF
    483          }
    484          

   \                                 In  segment BANKED_CODE, align 1, keep-with-next
    485          unsigned int crc16(uint8 buf[],uint8 len)
   \                     crc16:
    486          {
   \   000000   74F6         MOV     A,#-0xa
   \   000002   12....       LCALL   ?BANKED_ENTER_XDATA
   \   000005                ; Saved register size: 10
   \   000005                ; Auto size: 0
   \   000005   EA           MOV     A,R2
   \   000006   FC           MOV     R4,A
   \   000007   EB           MOV     A,R3
   \   000008   FD           MOV     R5,A
    487            unsigned int  i,j,c,crc;
    488          	crc=0xFFFF;
   \   000009   7AFF         MOV     R2,#-0x1
   \   00000B   7BFF         MOV     R3,#-0x1
    489          	for(i=0;i<len;i++)
   \   00000D   E9           MOV     A,R1
   \   00000E   6041         JZ      ??crc16_0
   \   000010   F582         MOV     DPL,A
   \   000012   AE82         MOV     R6,DPL
   \   000014   7F00         MOV     R7,#0x0
    490          		{
    491          		c=*(buf+i)&0xFF;
    492          		crc^=c;
   \                     ??crc16_1:
   \   000016   8C82         MOV     DPL,R4
   \   000018   8D83         MOV     DPH,R5
   \   00001A   E0           MOVX    A,@DPTR
   \   00001B   6A           XRL     A,R2
   \   00001C   FA           MOV     R2,A
    493          		for(j=0;j<8;j++)
   \   00001D   75..08       MOV     ?V0 + 1,#0x8
    494          			{
    495          				if(crc & 0x0001)
   \                     ??crc16_2:
   \   000020   EA           MOV     A,R2
   \   000021   F8           MOV     R0,A
   \   000022   EB           MOV     A,R3
   \   000023   C3           CLR     C
   \   000024   13           RRC     A
   \   000025   F9           MOV     R1,A
   \   000026   E8           MOV     A,R0
   \   000027   13           RRC     A
   \   000028   F8           MOV     R0,A
   \   000029   EA           MOV     A,R2
   \   00002A   A2E0         MOV     C,0xE0 /* A   */.0
   \   00002C   E8           MOV     A,R0
   \   00002D   5008         JNC     ??crc16_3
    496          					{
    497          					crc>>=1;
    498          					crc ^=0xA001;
   \   00002F   6401         XRL     A,#0x1
   \   000031   FA           MOV     R2,A
   \   000032   E9           MOV     A,R1
   \   000033   64A0         XRL     A,#0xa0
   \   000035   8002         SJMP    ??crc16_4
    499          					}
    500          				else
    501          					{
    502          					crc >>=1;
   \                     ??crc16_3:
   \   000037   FA           MOV     R2,A
   \   000038   E9           MOV     A,R1
   \                     ??crc16_4:
   \   000039   FB           MOV     R3,A
    503          					}
    504          			}
   \   00003A   15..         DEC     ?V0 + 1
   \   00003C   E5..         MOV     A,?V0 + 1
   \   00003E   70E0         JNZ     ??crc16_2
    505          		}
   \   000040   A3           INC     DPTR
   \   000041   AC82         MOV     R4,DPL
   \   000043   AD83         MOV     R5,DPH
   \   000045   EE           MOV     A,R6
   \   000046   24FF         ADD     A,#-0x1
   \   000048   1E           DEC     R6
   \   000049   EF           MOV     A,R7
   \   00004A   34FF         ADDC    A,#-0x1
   \   00004C   FF           MOV     R7,A
   \   00004D   EE           MOV     A,R6
   \   00004E   4F           ORL     A,R7
   \   00004F   70C5         JNZ     ??crc16_1
    506            return(crc);
   \                     ??crc16_0:
   \   000051   02....       LJMP    ?Subroutine2 & 0xFFFF
    507          }

   \                                 In  segment BANK_RELAYS, align 1
   \                     ??SSAFrame_Analysis?relay:
   \   000000   12....       LCALL   ?BDISPATCH
   \   000003   ......       DC24    SSAFrame_Analysis

   \                                 In  segment BANK_RELAYS, align 1
   \                     ??SSAFrame_Package?relay:
   \   000000   12....       LCALL   ?BDISPATCH
   \   000003   ......       DC24    SSAFrame_Package

   \                                 In  segment BANK_RELAYS, align 1
   \                     ??rs485_state?relay:
   \   000000   12....       LCALL   ?BDISPATCH
   \   000003   ......       DC24    rs485_state

   \                                 In  segment BANK_RELAYS, align 1
   \                     ??Res_Inquire?relay:
   \   000000   12....       LCALL   ?BDISPATCH
   \   000003   ......       DC24    Res_Inquire

   \                                 In  segment BANK_RELAYS, align 1
   \                     ??Res_Ioctrl?relay:
   \   000000   12....       LCALL   ?BDISPATCH
   \   000003   ......       DC24    Res_Ioctrl

   \                                 In  segment BANK_RELAYS, align 1
   \                     ??QT_ResInquire?relay:
   \   000000   12....       LCALL   ?BDISPATCH
   \   000003   ......       DC24    QT_ResInquire

   \                                 In  segment BANK_RELAYS, align 1
   \                     ??LUX_ResInquire?relay:
   \   000000   12....       LCALL   ?BDISPATCH
   \   000003   ......       DC24    LUX_ResInquire

   \                                 In  segment BANK_RELAYS, align 1
   \                     ??rs485_control?relay:
   \   000000   12....       LCALL   ?BDISPATCH
   \   000003   ......       DC24    rs485_control

   \                                 In  segment BANK_RELAYS, align 1
   \                     ??rs485_changeAddr?relay:
   \   000000   12....       LCALL   ?BDISPATCH
   \   000003   ......       DC24    rs485_changeAddr

   \                                 In  segment BANK_RELAYS, align 1
   \                     ??rs485_address?relay:
   \   000000   12....       LCALL   ?BDISPATCH
   \   000003   ......       DC24    rs485_address

   \                                 In  segment BANK_RELAYS, align 1
   \                     ??crc_confirm?relay:
   \   000000   12....       LCALL   ?BDISPATCH
   \   000003   ......       DC24    crc_confirm

   \                                 In  segment BANK_RELAYS, align 1
   \                     ??crc16?relay:
   \   000000   12....       LCALL   ?BDISPATCH
   \   000003   ......       DC24    crc16

   \                                 In  segment XDATA_ROM_C, align 1
   \                     `?<Constant "UC:">`:
   \   000000   55433A00     DB "UC:"

   \                                 In  segment XDATA_ROM_C, align 1
   \                     `?<Constant "UO:">`:
   \   000000   554F3A00     DB "UO:"

   \                                 In  segment XDATA_ROM_C, align 1
   \                     `?<Constant "UH:">`:
   \   000000   55483A00     DB "UH:"

   \                                 In  segment XDATA_ROM_C, align 1
   \                     `?<Constant "UR:">`:
   \   000000   55523A00     DB "UR:"

   \                                 In  segment XDATA_ROM_C, align 1
   \                     `?<Constant "D:">`:
   \   000000   443A00       DB "D:"
    508          #endif
    509          

   Maximum stack usage in bytes:

     Function                      ISTACK PSTACK XSTACK
     --------                      ------ ------ ------
     LUX_ResInquire                    1      0     19
       -> Light                        0      0     38
       -> crc16                        0      0     38
       -> CommonApp_SendTheMessage     0      0     38
     QT_ResInquire                     1      0     19
       -> HalAdcRead                   0      0     38
       -> crc16                        0      0     38
       -> CommonApp_SendTheMessage     0      0     38
     Res_Inquire                       1      0     21
       -> crc16                        0      0     42
       -> CommonApp_SendTheMessage     0      0     42
     Res_Ioctrl                        1      0     41
       -> crc16                        0      0     42
       -> CommonApp_SendTheMessage     0      0     42
     SSAFrame_Analysis                 0      0     18
       -> memcmp                       0      0     36
       -> memcmp                       0      0     36
       -> memcpy                       0      0     36
       -> memcpy                       0      0     36
       -> memcpy                       0      0     36
       -> memcpy                       0      0     36
       -> memcpy                       0      0     36
       -> memcpy                       0      0     36
       -> memcpy                       0      0     36
       -> memcmp                       0      0     36
       -> memcmp                       0      0     36
       -> memcpy                       0      0     36
       -> memcpy                       0      0     36
       -> memcpy                       0      0     36
       -> memcpy                       0      0     36
       -> memset                       0      0     36
       -> memcpy                       0      0     36
       -> memcpy                       0      0     36
       -> memcmp                       0      0     36
       -> memcmp                       0      0     36
       -> memcpy                       0      0     36
       -> memcpy                       0      0     36
       -> memcpy                       0      0     36
       -> memcmp                       0      0     36
       -> memcmp                       0      0     36
       -> memcpy                       0      0     36
       -> memcpy                       0      0     36
       -> memcpy                       0      0     36
       -> memset                       0      0     36
       -> memcpy                       0      0     36
       -> memcpy                       0      0     36
       -> memcmp                       0      0     36
       -> memcmp                       0      0     36
       -> memcpy                       0      0     36
       -> memcpy                       0      0     36
       -> memcpy                       0      0     36
       -> memset                       0      0     36
       -> memcpy                       0      0     36
       -> memcpy                       0      0     36
     SSAFrame_Package                  0      0     22
       -> memset                       0      0     40
       -> memcpy                       0      0     40
       -> memcpy                       0      0     40
       -> memcpy                       0      0     40
       -> memcpy                       0      0     40
       -> memcpy                       0      0     40
       -> memcpy                       0      0     40
       -> memcpy                       0      0     40
       -> memcpy                       0      0     40
       -> memset                       0      0     40
       -> memcpy                       0      0     40
       -> memcpy                       0      0     40
       -> memcpy                       0      0     40
       -> memcpy                       0      0     40
       -> memcpy                       0      0     40
       -> memcpy                       0      0     40
       -> memset                       0      0     40
       -> memcpy                       0      0     40
       -> memcpy                       0      0     40
       -> memcpy                       0      0     40
       -> memset                       0      0     40
       -> memcpy                       0      0     40
       -> memcpy                       0      0     40
       -> memcpy                       0      0     40
       -> memcpy                       0      0     40
       -> memcpy                       0      0     40
       -> memset                       0      0     40
       -> memcpy                       0      0     40
       -> memcpy                       0      0     40
       -> memcpy                       0      0     40
       -> memcpy                       0      0     40
       -> memcpy                       0      0     40
     crc16                             0      0     31
     crc_confirm                       1      0     13
       -> crc16                        0      0     26
     rs485_address                     1      0     35
       -> crc16                        0      0     32
       -> CommonApp_SendTheMessage     0      0     32
     rs485_changeAddr                  0      0     23
       -> osal_memcpy                  0      0     44
       -> osal_nv_item_init            0      0     42
       -> osal_nv_write                0      0     46
       -> rs485_address                0      0     38
     rs485_control                     0      0     23
       -> osal_memcpy                  0      0     46
       -> HalGpioSet                   0      0     40
       -> HalGpioSet                   0      0     40
       -> Res_Ioctrl                   0      0     40
     rs485_state                       2      0      0
       -> Res_Ioctrl                   4      0      0


   Segment part sizes:

     Function/Label            Bytes
     --------------            -----
     ucFrame                     41
     uoFrame                     33
     uhFrame                     11
     urFrame                     17
     deFrame                     17
     pFrameBuffer               256
     pFrameLen                    1
     aDataBuffer                128
     aDataLen                     1
     f_tail                       4
     Address_dev                  1
     Device_state                 4
     SSAFrame_Analysis         1128
     ?Subroutine25                2
     ??Subroutine30_0             7
     ?Subroutine24               14
     ?Subroutine21                9
     ?Subroutine19                9
     ?Subroutine18               18
     ?Subroutine7                 3
     ??Subroutine31_0            13
     ?Subroutine6                 8
     ??Subroutine32_0             6
     ?Subroutine4                33
     ??Subroutine33_0             6
     ??Subroutine34_0             4
     ?Subroutine29                9
     ?Subroutine28                6
     ?Subroutine27               14
     SSAFrame_Package           682
     ?Subroutine23                8
     ?Subroutine20               15
     ?Subroutine17               18
     ?Subroutine15                8
     ?Subroutine14               13
     ?Subroutine13               11
     ?Subroutine12                7
     ?Subroutine11               13
     ?Subroutine10               14
     ?Subroutine9                16
     ?Subroutine8                16
     ?Subroutine5                11
     rs485_state                 14
     Res_Inquire                 71
     ?Subroutine3                69
     ??Subroutine35_0             8
     ?Subroutine22               10
     ?Subroutine16               14
     Res_Ioctrl                  74
     ?Subroutine0                68
     QT_ResInquire               38
     LUX_ResInquire              33
     rs485_control              153
     ?Subroutine26               10
     rs485_changeAddr           118
     ?Subroutine1                 8
     rs485_address               88
     ?Subroutine2                 5
     crc_confirm                101
     crc16                       84
     ??SSAFrame_Analysis?relay    6
     ??SSAFrame_Package?relay     6
     ??rs485_state?relay          6
     ??Res_Inquire?relay          6
     ??Res_Ioctrl?relay           6
     ??QT_ResInquire?relay        6
     ??LUX_ResInquire?relay       6
     ??rs485_control?relay        6
     ??rs485_changeAddr?relay     6
     ??rs485_address?relay        6
     ??crc_confirm?relay          6
     ??crc16?relay                6
     ?<Constant "UC:">            4
     ?<Constant "UO:">            4
     ?<Constant "UH:">            4
     ?<Constant "UR:">            4
     ?<Constant "D:">             3

 
 3 087 bytes in segment BANKED_CODE
    72 bytes in segment BANK_RELAYS
    23 bytes in segment XDATA_ROM_C
   510 bytes in segment XDATA_Z
 
 3 159 bytes of CODE  memory
    23 bytes of CONST memory
   510 bytes of XDATA memory

Errors: none
Warnings: none
