///////////////////////////////////////////////////////////////////////////////
//                                                                            /
// IAR C/C++ Compiler V8.10.1.10194/W32 for 8051        24/Nov/2016  13:24:47 /
// Copyright 2004-2011 IAR Systems AB.                                        /
//                                                                            /
//    Core               =  plain                                             /
//    Code model         =  banked                                            /
//    Data model         =  large                                             /
//    Calling convention =  xdata reentrant                                   /
//    Constant location  =  data_rom                                          /
//    Dptr setup         =  1,16                                              /
//    Source file        =  E:\work\zigbee\ZStack-Smart-2.5.2b\Components\hal /
//                          \common\hal_drivers.c                             /
//    Command line       =  -f E:\work\zigbee\ZStack-Smart-2.5.2b\Projects\zs /
//                          tack\Applications\SmartApp\CC2530DB\Devices\..\.. /
//                          \..\..\Tools\CC2530DB\f8wEndev.cfg (-DCPU32MHZ    /
//                          -DROOT=__near_func -DMAC_CFG_TX_DATA_MAX=3        /
//                          -DMAC_CFG_TX_MAX=6 -DMAC_CFG_RX_MAX=3             /
//                          -DSSA_ENDNODE) -f E:\work\zigbee\ZStack-Smart-2.5 /
//                          .2b\Projects\zstack\Applications\SmartApp\CC2530D /
//                          B\Devices\..\..\..\..\Tools\CC2530DB\f8wConfig.cf /
//                          g (-DZIGBEEPRO -DSECURE=1 -DZG_SECURE_DYNAMIC=1   /
//                          -DREFLECTOR -DDEFAULT_CHANLIST=0x00000800         /
//                          -DZDAPP_CONFIG_PAN_ID=0xFFFF                      /
//                          -DNWK_START_DELAY=100 -DEXTENDED_JOINING_RANDOM_M /
//                          ASK=0x007F -DBEACON_REQUEST_DELAY=100             /
//                          -DBEACON_REQ_DELAY_MASK=0x00FF                    /
//                          -DLINK_STATUS_JITTER_MASK=0x007F                  /
//                          -DROUTE_EXPIRY_TIME=30 -DAPSC_ACK_WAIT_DURATION_P /
//                          OLLED=3000 -DNWK_INDIRECT_MSG_TIMEOUT=7           /
//                          -DMAX_RREQ_ENTRIES=8 -DAPSC_MAX_FRAME_RETRIES=3   /
//                          -DNWK_MAX_DATA_RETRIES=2                          /
//                          -DMAX_POLL_FAILURE_RETRIES=2 -DMAX_BCAST=9        /
//                          -DAPS_MAX_GROUPS=16 -DMAX_RTG_ENTRIES=40          /
//                          -DNWK_MAX_BINDING_ENTRIES=4                       /
//                          -DMAX_BINDING_CLUSTER_IDS=4                       /
//                          "-DDEFAULT_KEY={0x01, 0x03, 0x05, 0x07, 0x09,     /
//                          0x0B, 0x0D, 0x0F, 0x00, 0x02, 0x04, 0x06, 0x08,   /
//                          0x0A, 0x0C, 0x0D}" -DMAC_MAX_FRAME_SIZE=116       /
//                          -DZDNWKMGR_MIN_TRANSMISSIONS=20 "-DCONST=const    /
//                          __code" -DGENERIC=__generic                       /
//                          -DRFD_RCVC_ALWAYS_ON=FALSE -DPOLL_RATE=600        /
//                          -DQUEUED_POLL_RATE=100 -DRESPONSE_POLL_RATE=100)  /
//                          -DREJOIN_POLL_RATE=440 E:\work\zigbee\ZStack-Smar /
//                          t-2.5.2b\Components\hal\common\hal_drivers.c -D   /
//                          SECURE=1 -D ZTOOL_P1 -D DEVICE_TYPE_ID=0xFE -D    /
//                          SIGNAL_AMPLIFIER_SETTING -D xNWK_AUTO_POLL -D     /
//                          xHAL_UART_DMA=2 -D xHAL_UART_DMA_ALT1 -D          /
//                          xJIAJU_BUILDIN -D MT_TASK -D MT_SYS_FUNC -D       /
//                          MT_ZDO_FUNC -D NV_INIT -D NV_RESTORE -lC          /
//                          E:\work\zigbee\ZStack-Smart-2.5.2b\Projects\zstac /
//                          k\Applications\SmartApp\CC2530DB\bin\DemoBaseZD\L /
//                          ist\ -lA E:\work\zigbee\ZStack-Smart-2.5.2b\Proje /
//                          cts\zstack\Applications\SmartApp\CC2530DB\bin\Dem /
//                          oBaseZD\List\ --diag_suppress Pe001,Pa010 -o      /
//                          E:\work\zigbee\ZStack-Smart-2.5.2b\Projects\zstac /
//                          k\Applications\SmartApp\CC2530DB\bin\DemoBaseZD\O /
//                          bj\ -e --debug --core=plain --dptr=16,1           /
//                          --data_model=large --code_model=banked            /
//                          --calling_convention=xdata_reentrant              /
//                          --place_constants=data_rom --nr_virtual_regs 16   /
//                          -I E:\work\zigbee\ZStack-Smart-2.5.2b\Projects\zs /
//                          tack\Applications\SmartApp\CC2530DB\Devices\ -I   /
//                          E:\work\zigbee\ZStack-Smart-2.5.2b\Projects\zstac /
//                          k\Applications\SmartApp\CC2530DB\Devices\..\..\So /
//                          urce\Common\ -I E:\work\zigbee\ZStack-Smart-2.5.2 /
//                          b\Projects\zstack\Applications\SmartApp\CC2530DB\ /
//                          Devices\..\..\Source\Connector\ -I                /
//                          E:\work\zigbee\ZStack-Smart-2.5.2b\Projects\zstac /
//                          k\Applications\SmartApp\CC2530DB\Devices\..\..\So /
//                          urce\\EndNode\ -I E:\work\zigbee\ZStack-Smart-2.5 /
//                          .2b\Projects\zstack\Applications\SmartApp\CC2530D /
//                          B\Devices\..\..\Source\Board\ -I                  /
//                          E:\work\zigbee\ZStack-Smart-2.5.2b\Projects\zstac /
//                          k\Applications\SmartApp\CC2530DB\Devices\..\..\So /
//                          urce\Manage\ -I E:\work\zigbee\ZStack-Smart-2.5.2 /
//                          b\Projects\zstack\Applications\SmartApp\CC2530DB\ /
//                          Devices\..\..\Source\Manage\Callbacks\ -I         /
//                          E:\work\zigbee\ZStack-Smart-2.5.2b\Projects\zstac /
//                          k\Applications\SmartApp\CC2530DB\Devices\..\..\So /
//                          urce\Manage\debug\ -I E:\work\zigbee\ZStack-Smart /
//                          -2.5.2b\Projects\zstack\Applications\SmartApp\CC2 /
//                          530DB\Devices\..\..\Source\Manage\HeartBeat\ -I   /
//                          E:\work\zigbee\ZStack-Smart-2.5.2b\Projects\zstac /
//                          k\Applications\SmartApp\CC2530DB\Devices\..\..\So /
//                          urce\Manage\incode\ -I E:\work\zigbee\ZStack-Smar /
//                          t-2.5.2b\Projects\zstack\Applications\SmartApp\CC /
//                          2530DB\Devices\..\..\..\..\ZMain\TI2530DB\ -I     /
//                          E:\work\zigbee\ZStack-Smart-2.5.2b\Projects\zstac /
//                          k\Applications\SmartApp\CC2530DB\Devices\..\..\.. /
//                          \..\..\..\Components\hal\include\ -I              /
//                          E:\work\zigbee\ZStack-Smart-2.5.2b\Projects\zstac /
//                          k\Applications\SmartApp\CC2530DB\Devices\..\..\.. /
//                          \..\..\..\Components\hal\target\CC2530EB\ -I      /
//                          E:\work\zigbee\ZStack-Smart-2.5.2b\Projects\zstac /
//                          k\Applications\SmartApp\CC2530DB\Devices\..\..\.. /
//                          \..\..\..\Components\mac\include\ -I              /
//                          E:\work\zigbee\ZStack-Smart-2.5.2b\Projects\zstac /
//                          k\Applications\SmartApp\CC2530DB\Devices\..\..\.. /
//                          \..\..\..\Components\mac\high_level\ -I           /
//                          E:\work\zigbee\ZStack-Smart-2.5.2b\Projects\zstac /
//                          k\Applications\SmartApp\CC2530DB\Devices\..\..\.. /
//                          \..\..\..\Components\mac\low_level\srf04\ -I      /
//                          E:\work\zigbee\ZStack-Smart-2.5.2b\Projects\zstac /
//                          k\Applications\SmartApp\CC2530DB\Devices\..\..\.. /
//                          \..\..\..\Components\mac\low_level\srf04\single_c /
//                          hip\ -I E:\work\zigbee\ZStack-Smart-2.5.2b\Projec /
//                          ts\zstack\Applications\SmartApp\CC2530DB\Devices\ /
//                          ..\..\..\..\..\..\Components\mt\ -I               /
//                          E:\work\zigbee\ZStack-Smart-2.5.2b\Projects\zstac /
//                          k\Applications\SmartApp\CC2530DB\Devices\..\..\.. /
//                          \..\..\..\Components\osal\include\ -I             /
//                          E:\work\zigbee\ZStack-Smart-2.5.2b\Projects\zstac /
//                          k\Applications\SmartApp\CC2530DB\Devices\..\..\.. /
//                          \..\..\..\Components\services\saddr\ -I           /
//                          E:\work\zigbee\ZStack-Smart-2.5.2b\Projects\zstac /
//                          k\Applications\SmartApp\CC2530DB\Devices\..\..\.. /
//                          \..\..\..\Components\services\sdata\ -I           /
//                          E:\work\zigbee\ZStack-Smart-2.5.2b\Projects\zstac /
//                          k\Applications\SmartApp\CC2530DB\Devices\..\..\.. /
//                          \..\..\..\Components\stack\af\ -I                 /
//                          E:\work\zigbee\ZStack-Smart-2.5.2b\Projects\zstac /
//                          k\Applications\SmartApp\CC2530DB\Devices\..\..\.. /
//                          \..\..\..\Components\stack\nwk\ -I                /
//                          E:\work\zigbee\ZStack-Smart-2.5.2b\Projects\zstac /
//                          k\Applications\SmartApp\CC2530DB\Devices\..\..\.. /
//                          \..\..\..\Components\stack\sapi\ -I               /
//                          E:\work\zigbee\ZStack-Smart-2.5.2b\Projects\zstac /
//                          k\Applications\SmartApp\CC2530DB\Devices\..\..\.. /
//                          \..\..\..\Components\stack\sec\ -I                /
//                          E:\work\zigbee\ZStack-Smart-2.5.2b\Projects\zstac /
//                          k\Applications\SmartApp\CC2530DB\Devices\..\..\.. /
//                          \..\..\..\Components\stack\sys\ -I                /
//                          E:\work\zigbee\ZStack-Smart-2.5.2b\Projects\zstac /
//                          k\Applications\SmartApp\CC2530DB\Devices\..\..\.. /
//                          \..\..\..\Components\stack\zdo\ -I                /
//                          E:\work\zigbee\ZStack-Smart-2.5.2b\Projects\zstac /
//                          k\Applications\SmartApp\CC2530DB\Devices\..\..\.. /
//                          \..\..\..\Components\zmac\ -I                     /
//                          E:\work\zigbee\ZStack-Smart-2.5.2b\Projects\zstac /
//                          k\Applications\SmartApp\CC2530DB\Devices\..\..\.. /
//                          \..\..\..\Components\zmac\f8w\ -Oh                /
//                          --require_prototypes                              /
//    List file          =  E:\work\zigbee\ZStack-Smart-2.5.2b\Projects\zstac /
//                          k\Applications\SmartApp\CC2530DB\bin\DemoBaseZD\L /
//                          ist\hal_drivers.s51                               /
//                                                                            /
//                                                                            /
///////////////////////////////////////////////////////////////////////////////

        NAME hal_drivers

        RTMODEL "__SystemLibrary", "CLib"
        RTMODEL "__calling_convention", "xdata_reentrant"
        RTMODEL "__code_model", "banked"
        RTMODEL "__core", "plain"
        RTMODEL "__data_model", "large"
        RTMODEL "__dptr_size", "16"
        RTMODEL "__extended_stack", "disabled"
        RTMODEL "__location_for_constants", "data"
        RTMODEL "__number_of_dptrs", "1"
        RTMODEL "__rt_version", "1"

        RSEG DOVERLAY:DATA:NOROOT(0)
        RSEG IOVERLAY:IDATA:NOROOT(0)
        RSEG ISTACK:IDATA:NOROOT(0)
        RSEG PSTACK:XDATA:NOROOT(0)
        RSEG XSTACK:XDATA:NOROOT(0)

        EXTERN ?BANKED_ENTER_XDATA
        EXTERN ?BANKED_LEAVE_XDATA
        EXTERN ?BDISPATCH
        EXTERN ?BRET
        EXTERN __INIT_XDATA_Z

        PUBLIC ??HalDriverInit?relay
        FUNCTION ??HalDriverInit?relay,0203H
        PUBLIC ??Hal_Init?relay
        FUNCTION ??Hal_Init?relay,0203H
        PUBLIC ??Hal_ProcessEvent?relay
        FUNCTION ??Hal_ProcessEvent?relay,0203H
        PUBLIC ??Hal_ProcessPoll?relay
        FUNCTION ??Hal_ProcessPoll?relay,0203H
        PUBLIC HalDriverInit
        FUNCTION HalDriverInit,021203H
        ARGFRAME XSTACK, 0, STACK
        LOCFRAME ISTACK, 2, STACK
        PUBLIC Hal_Init
        FUNCTION Hal_Init,0203H
        ARGFRAME XSTACK, 0, STACK
        LOCFRAME ISTACK, 2, STACK
        PUBLIC Hal_ProcessEvent
        FUNCTION Hal_ProcessEvent,021203H
        ARGFRAME XSTACK, 0, STACK
        LOCFRAME XSTACK, 10, STACK
        PUBLIC Hal_ProcessPoll
        FUNCTION Hal_ProcessPoll,021203H
        ARGFRAME XSTACK, 0, STACK
        LOCFRAME ISTACK, 2, STACK
        PUBLIC Hal_TaskID
        
        CFI Names cfiNames0
        CFI StackFrame CFA_SP SP IDATA
        CFI StackFrame CFA_PSP16 PSP16 XDATA
        CFI StackFrame CFA_XSP16 XSP16 XDATA
        CFI StaticOverlayFrame CFA_IOVERLAY IOVERLAY
        CFI StaticOverlayFrame CFA_DOVERLAY DOVERLAY
        CFI Resource `PSW.CY`:1, `B.BR0`:1, `B.BR1`:1, `B.BR2`:1, `B.BR3`:1
        CFI Resource `B.BR4`:1, `B.BR5`:1, `B.BR6`:1, `B.BR7`:1, `VB.BR8`:1
        CFI Resource `VB.BR9`:1, `VB.BR10`:1, `VB.BR11`:1, `VB.BR12`:1
        CFI Resource `VB.BR13`:1, `VB.BR14`:1, `VB.BR15`:1, VB:8, B:8, A:8
        CFI Resource PSW:8, DPL0:8, DPH0:8, R0:8, R1:8, R2:8, R3:8, R4:8, R5:8
        CFI Resource R6:8, R7:8, V0:8, V1:8, V2:8, V3:8, V4:8, V5:8, V6:8, V7:8
        CFI Resource V8:8, V9:8, V10:8, V11:8, V12:8, V13:8, V14:8, V15:8, SP:8
        CFI Resource PSPH:8, PSPL:8, PSP16:16, XSPH:8, XSPL:8, XSP16:16
        CFI VirtualResource ?RET:24
        CFI Resource ?BRET_EXT:8
        CFI VirtualResource ?RET_HIGH:8, ?RET_LOW:8
        CFI ResourceParts PSP16 PSPH, PSPL
        CFI ResourceParts XSP16 XSPH, XSPL
        CFI ResourceParts ?RET ?BRET_EXT, ?RET_HIGH, ?RET_LOW
        CFI EndNames cfiNames0
        
        CFI Common cfiCommon0 Using cfiNames0
        CFI CodeAlign 1
        CFI DataAlign -1
        CFI ReturnAddress ?RET CODE
        CFI CFA_DOVERLAY Used
        CFI CFA_IOVERLAY Used
        CFI CFA_SP SP+-3
        CFI CFA_PSP16 PSP16+0
        CFI CFA_XSP16 XSP16+0
        CFI `PSW.CY` SameValue
        CFI `B.BR0` SameValue
        CFI `B.BR1` SameValue
        CFI `B.BR2` SameValue
        CFI `B.BR3` SameValue
        CFI `B.BR4` SameValue
        CFI `B.BR5` SameValue
        CFI `B.BR6` SameValue
        CFI `B.BR7` SameValue
        CFI `VB.BR8` SameValue
        CFI `VB.BR9` SameValue
        CFI `VB.BR10` SameValue
        CFI `VB.BR11` SameValue
        CFI `VB.BR12` SameValue
        CFI `VB.BR13` SameValue
        CFI `VB.BR14` SameValue
        CFI `VB.BR15` SameValue
        CFI VB SameValue
        CFI B Undefined
        CFI A Undefined
        CFI PSW SameValue
        CFI DPL0 SameValue
        CFI DPH0 SameValue
        CFI R0 Undefined
        CFI R1 Undefined
        CFI R2 Undefined
        CFI R3 Undefined
        CFI R4 Undefined
        CFI R5 Undefined
        CFI R6 SameValue
        CFI R7 SameValue
        CFI V0 SameValue
        CFI V1 SameValue
        CFI V2 SameValue
        CFI V3 SameValue
        CFI V4 SameValue
        CFI V5 SameValue
        CFI V6 SameValue
        CFI V7 SameValue
        CFI V8 SameValue
        CFI V9 SameValue
        CFI V10 SameValue
        CFI V11 SameValue
        CFI V12 SameValue
        CFI V13 SameValue
        CFI V14 SameValue
        CFI V15 SameValue
        CFI PSPH Undefined
        CFI PSPL Undefined
        CFI XSPH Undefined
        CFI XSPL Undefined
        CFI ?RET Concat
        CFI ?BRET_EXT Frame(CFA_SP, 3)
        CFI ?RET_HIGH Frame(CFA_SP, 2)
        CFI ?RET_LOW Frame(CFA_SP, 1)
        CFI EndCommon cfiCommon0
        
HalDmaInit          SYMBOL "HalDmaInit"
HalAesInit          SYMBOL "HalAesInit"
HalLedInit          SYMBOL "HalLedInit"
HalUARTInit         SYMBOL "HalUARTInit"
HalKeyInit          SYMBOL "HalKeyInit"
GPIOInit            SYMBOL "GPIOInit"
osal_msg_receive    SYMBOL "osal_msg_receive"
osal_msg_deallocate SYMBOL "osal_msg_deallocate"
HalLedUpdate        SYMBOL "HalLedUpdate"
HalKeyPoll          SYMBOL "HalKeyPoll"
osal_start_timerEx  SYMBOL "osal_start_timerEx"
HalKeyCountPoll     SYMBOL "HalKeyCountPoll"
HalLongKeyListener  SYMBOL "HalLongKeyListener"
HalUARTPoll         SYMBOL "HalUARTPoll"
??GPIOInit?relay    SYMBOL "?relay", GPIOInit
??HalAesInit?relay  SYMBOL "?relay", HalAesInit
??HalDmaInit?relay  SYMBOL "?relay", HalDmaInit
??HalKeyCountPoll?relay SYMBOL "?relay", HalKeyCountPoll
??HalKeyInit?relay  SYMBOL "?relay", HalKeyInit
??HalKeyPoll?relay  SYMBOL "?relay", HalKeyPoll
??HalLedInit?relay  SYMBOL "?relay", HalLedInit
??HalLedUpdate?relay SYMBOL "?relay", HalLedUpdate
??HalLongKeyListener?relay SYMBOL "?relay", HalLongKeyListener
??HalUARTInit?relay SYMBOL "?relay", HalUARTInit
??HalUARTPoll?relay SYMBOL "?relay", HalUARTPoll
??osal_msg_deallocate?relay SYMBOL "?relay", osal_msg_deallocate
??osal_msg_receive?relay SYMBOL "?relay", osal_msg_receive
??osal_start_timerEx?relay SYMBOL "?relay", osal_start_timerEx
HalDriverInit       SYMBOL "HalDriverInit"
??HalDriverInit?relay SYMBOL "?relay", HalDriverInit
Hal_Init            SYMBOL "Hal_Init"
??Hal_Init?relay    SYMBOL "?relay", Hal_Init
Hal_ProcessEvent    SYMBOL "Hal_ProcessEvent"
??Hal_ProcessEvent?relay SYMBOL "?relay", Hal_ProcessEvent
Hal_ProcessPoll     SYMBOL "Hal_ProcessPoll"
??Hal_ProcessPoll?relay SYMBOL "?relay", Hal_ProcessPoll

        EXTERN HalDmaInit
        FUNCTION HalDmaInit,0202H
        ARGFRAME ISTACK, 2, STACK
        ARGFRAME PSTACK, 0, STACK
        ARGFRAME XSTACK, 0, STACK
        ARGFRAME IOVERLAY, 0, STATIC
        ARGFRAME DOVERLAY, 0, STATIC
        EXTERN HalAesInit
        FUNCTION HalAesInit,0202H
        ARGFRAME ISTACK, 2, STACK
        ARGFRAME PSTACK, 0, STACK
        ARGFRAME XSTACK, 0, STACK
        ARGFRAME IOVERLAY, 0, STATIC
        ARGFRAME DOVERLAY, 0, STATIC
        EXTERN HalLedInit
        FUNCTION HalLedInit,0202H
        ARGFRAME ISTACK, 2, STACK
        ARGFRAME PSTACK, 0, STACK
        ARGFRAME XSTACK, 0, STACK
        ARGFRAME IOVERLAY, 0, STATIC
        ARGFRAME DOVERLAY, 0, STATIC
        EXTERN HalUARTInit
        FUNCTION HalUARTInit,0202H
        ARGFRAME ISTACK, 2, STACK
        ARGFRAME PSTACK, 0, STACK
        ARGFRAME XSTACK, 0, STACK
        ARGFRAME IOVERLAY, 0, STATIC
        ARGFRAME DOVERLAY, 0, STATIC
        EXTERN HalKeyInit
        FUNCTION HalKeyInit,0202H
        ARGFRAME ISTACK, 2, STACK
        ARGFRAME PSTACK, 0, STACK
        ARGFRAME XSTACK, 0, STACK
        ARGFRAME IOVERLAY, 0, STATIC
        ARGFRAME DOVERLAY, 0, STATIC
        EXTERN GPIOInit
        FUNCTION GPIOInit,0202H
        ARGFRAME ISTACK, 2, STACK
        ARGFRAME PSTACK, 0, STACK
        ARGFRAME XSTACK, 0, STACK
        ARGFRAME IOVERLAY, 0, STATIC
        ARGFRAME DOVERLAY, 0, STATIC
        EXTERN osal_msg_receive
        FUNCTION osal_msg_receive,0202H
        ARGFRAME ISTACK, 0, STACK
        ARGFRAME PSTACK, 0, STACK
        ARGFRAME XSTACK, 10, STACK
        ARGFRAME IOVERLAY, 0, STATIC
        ARGFRAME DOVERLAY, 0, STATIC
        EXTERN osal_msg_deallocate
        FUNCTION osal_msg_deallocate,0202H
        ARGFRAME ISTACK, 0, STACK
        ARGFRAME PSTACK, 0, STACK
        ARGFRAME XSTACK, 10, STACK
        ARGFRAME IOVERLAY, 0, STATIC
        ARGFRAME DOVERLAY, 0, STATIC
        EXTERN HalLedUpdate
        FUNCTION HalLedUpdate,0202H
        ARGFRAME ISTACK, 0, STACK
        ARGFRAME PSTACK, 0, STACK
        ARGFRAME XSTACK, 10, STACK
        ARGFRAME IOVERLAY, 0, STATIC
        ARGFRAME DOVERLAY, 0, STATIC
        EXTERN HalKeyPoll
        FUNCTION HalKeyPoll,0202H
        ARGFRAME ISTACK, 0, STACK
        ARGFRAME PSTACK, 0, STACK
        ARGFRAME XSTACK, 10, STACK
        ARGFRAME IOVERLAY, 0, STATIC
        ARGFRAME DOVERLAY, 0, STATIC
        EXTERN osal_start_timerEx
        FUNCTION osal_start_timerEx,0202H
        ARGFRAME ISTACK, 0, STACK
        ARGFRAME PSTACK, 0, STACK
        ARGFRAME XSTACK, 10, STACK
        ARGFRAME IOVERLAY, 0, STATIC
        ARGFRAME DOVERLAY, 0, STATIC
        EXTERN HalKeyCountPoll
        FUNCTION HalKeyCountPoll,0202H
        ARGFRAME ISTACK, 0, STACK
        ARGFRAME PSTACK, 0, STACK
        ARGFRAME XSTACK, 10, STACK
        ARGFRAME IOVERLAY, 0, STATIC
        ARGFRAME DOVERLAY, 0, STATIC
        EXTERN HalLongKeyListener
        FUNCTION HalLongKeyListener,0202H
        ARGFRAME ISTACK, 0, STACK
        ARGFRAME PSTACK, 0, STACK
        ARGFRAME XSTACK, 10, STACK
        ARGFRAME IOVERLAY, 0, STATIC
        ARGFRAME DOVERLAY, 0, STATIC
        EXTERN HalUARTPoll
        FUNCTION HalUARTPoll,0202H
        ARGFRAME ISTACK, 2, STACK
        ARGFRAME PSTACK, 0, STACK
        ARGFRAME XSTACK, 0, STACK
        ARGFRAME IOVERLAY, 0, STATIC
        ARGFRAME DOVERLAY, 0, STATIC
        EXTERN ??GPIOInit?relay
        FUNCTION ??GPIOInit?relay,00H
        EXTERN ??HalAesInit?relay
        FUNCTION ??HalAesInit?relay,00H
        EXTERN ??HalDmaInit?relay
        FUNCTION ??HalDmaInit?relay,00H
        EXTERN ??HalKeyCountPoll?relay
        FUNCTION ??HalKeyCountPoll?relay,00H
        EXTERN ??HalKeyInit?relay
        FUNCTION ??HalKeyInit?relay,00H
        EXTERN ??HalKeyPoll?relay
        FUNCTION ??HalKeyPoll?relay,00H
        EXTERN ??HalLedInit?relay
        FUNCTION ??HalLedInit?relay,00H
        EXTERN ??HalLedUpdate?relay
        FUNCTION ??HalLedUpdate?relay,00H
        EXTERN ??HalLongKeyListener?relay
        FUNCTION ??HalLongKeyListener?relay,00H
        EXTERN ??HalUARTInit?relay
        FUNCTION ??HalUARTInit?relay,00H
        EXTERN ??HalUARTPoll?relay
        FUNCTION ??HalUARTPoll?relay,00H
        EXTERN ??osal_msg_deallocate?relay
        FUNCTION ??osal_msg_deallocate?relay,00H
        EXTERN ??osal_msg_receive?relay
        FUNCTION ??osal_msg_receive?relay,00H
        EXTERN ??osal_start_timerEx?relay
        FUNCTION ??osal_start_timerEx?relay,00H
        EXTERN Hal_KeyIntEnable

// E:\work\zigbee\ZStack-Smart-2.5.2b\Components\hal\common\hal_drivers.c
//    1 /**************************************************************************************************
//    2   Filename:       hal_drivers.c
//    3   Revised:        $Date: 2007-07-06 10:42:24 -0700 (Fri, 06 Jul 2007) $
//    4   Revision:       $Revision: 13579 $
//    5 
//    6   Description:    This file contains the interface to the Drivers Service.
//    7 
//    8 
//    9   Copyright 2005-2010 Texas Instruments Incorporated. All rights reserved.
//   10 
//   11   IMPORTANT: Your use of this Software is limited to those specific rights
//   12   granted under the terms of a software license agreement between the user
//   13   who downloaded the software, his/her employer (which must be your employer)
//   14   and Texas Instruments Incorporated (the "License").  You may not use this
//   15   Software unless you agree to abide by the terms of the License. The License
//   16   limits your use, and you acknowledge, that the Software may not be modified,
//   17   copied or distributed unless embedded on a Texas Instruments microcontroller
//   18   or used solely and exclusively in conjunction with a Texas Instruments radio
//   19   frequency transceiver, which is integrated into your product.  Other than for
//   20   the foregoing purpose, you may not use, reproduce, copy, prepare derivative
//   21   works of, modify, distribute, perform, display or sell this Software and/or
//   22   its documentation for any purpose.
//   23 
//   24   YOU FURTHER ACKNOWLEDGE AND AGREE THAT THE SOFTWARE AND DOCUMENTATION ARE
//   25   PROVIDED “AS IS?WITHOUT WARRANTY OF ANY KIND, EITHER EXPRESS OR IMPLIED,
//   26   INCLUDING WITHOUT LIMITATION, ANY WARRANTY OF MERCHANTABILITY, TITLE,
//   27   NON-INFRINGEMENT AND FITNESS FOR A PARTICULAR PURPOSE. IN NO EVENT SHALL
//   28   TEXAS INSTRUMENTS OR ITS LICENSORS BE LIABLE OR OBLIGATED UNDER CONTRACT,
//   29   NEGLIGENCE, STRICT LIABILITY, CONTRIBUTION, BREACH OF WARRANTY, OR OTHER
//   30   LEGAL EQUITABLE THEORY ANY DIRECT OR INDIRECT DAMAGES OR EXPENSES
//   31   INCLUDING BUT NOT LIMITED TO ANY INCIDENTAL, SPECIAL, INDIRECT, PUNITIVE
//   32   OR CONSEQUENTIAL DAMAGES, LOST PROFITS OR LOST DATA, COST OF PROCUREMENT
//   33   OF SUBSTITUTE GOODS, TECHNOLOGY, SERVICES, OR ANY CLAIMS BY THIRD PARTIES
//   34   (INCLUDING BUT NOT LIMITED TO ANY DEFENSE THEREOF), OR OTHER SIMILAR COSTS.
//   35 
//   36   Should you have any questions regarding your right to use this Software,
//   37   contact Texas Instruments Incorporated at www.TI.com.
//   38 **************************************************************************************************/
//   39 
//   40 /**************************************************************************************************
//   41 Modify by Sam_Chen
//   42 Date:2015-08-27
//   43 **************************************************************************************************/
//   44 
//   45 /**************************************************************************************************
//   46  *                                            INCLUDES
//   47  **************************************************************************************************/
//   48 #include "hal_types.h"
//   49 #include "OSAL.h"
//   50 #include "hal_drivers.h"
//   51 #include "hal_adc.h"
//   52 #if (defined HAL_DMA) && (HAL_DMA == TRUE)
//   53   #include "hal_dma.h"
//   54 #endif
//   55 #include "hal_key.h"
//   56 #include "hal_lcd.h"
//   57 #include "hal_led.h"
//   58 #include "hal_timer.h"
//   59 #include "hal_uart.h"
//   60 #include "hal_sleep.h"
//   61 #if (defined HAL_AES) && (HAL_AES == TRUE)
//   62   #include "hal_aes.h"
//   63 #endif
//   64 
//   65 #if (defined HAL_SPI) && (HAL_SPI == TRUE)
//   66   #include "hal_spi.h"
//   67 #endif
//   68 #if (defined HAL_HID) && (HAL_HID == TRUE)
//   69   #include "usb_hid.h"
//   70 #endif
//   71 
//   72 #ifdef CC2591_COMPRESSION_WORKAROUND
//   73   #include "mac_rx.h"
//   74 #endif
//   75 
//   76 /**************************************************************************************************
//   77  *                                            MACROS
//   78  **************************************************************************************************/
//   79 
//   80 
//   81 
//   82 /**************************************************************************************************
//   83  *                                          CONSTANTS
//   84  **************************************************************************************************/
//   85 
//   86 
//   87 /**************************************************************************************************
//   88  *                                          TYPEDEFS
//   89  **************************************************************************************************/
//   90 
//   91 
//   92 /**************************************************************************************************
//   93  *                                      GLOBAL VARIABLES
//   94  **************************************************************************************************/

        RSEG XDATA_Z:XDATA:NOROOT(0)
        DATA8
//   95 uint8 Hal_TaskID;
Hal_TaskID:
        DS 1
        REQUIRE __INIT_XDATA_Z
//   96 
//   97 extern void HalLedUpdate( void ); /* Notes: This for internal only so it shouldn't be in hal_led.h */
//   98 
//   99 /**************************************************************************************************
//  100  *                                      FUNCTIONS - API
//  101  **************************************************************************************************/
//  102 
//  103 /**************************************************************************************************
//  104  * @fn      Hal_Init
//  105  *
//  106  * @brief   Hal Initialization function.
//  107  *
//  108  * @param   task_id - Hal TaskId
//  109  *
//  110  * @return  None
//  111  **************************************************************************************************/

        RSEG BANKED_CODE:CODE:NOROOT(0)
//  112 void Hal_Init( uint8 task_id )
Hal_Init:
        CFI Block cfiBlock0 Using cfiCommon0
        CFI Function Hal_Init
        CODE
//  113 {
        PUSH    DPL
        CFI DPL0 Frame(CFA_SP, 4)
        CFI CFA_SP SP+-4
        PUSH    DPH
        CFI DPH0 Frame(CFA_SP, 5)
        CFI CFA_SP SP+-5
        ; Saved register size: 2
        ; Auto size: 0
//  114   /* Register task ID */
//  115   Hal_TaskID = task_id;
        MOV     A,R1
        MOV     DPTR,#Hal_TaskID
        MOVX    @DPTR,A
        CFI EndBlock cfiBlock0
//  116   
//  117 #ifdef CC2591_COMPRESSION_WORKAROUND  
//  118   osal_start_reload_timer( Hal_TaskID, PERIOD_RSSI_RESET_EVT, PERIOD_RSSI_RESET_TIMEOUT );
//  119 #endif  
//  120 }
        REQUIRE ?Subroutine0
        ; // Fall through to label ?Subroutine0

        RSEG BANKED_CODE:CODE:NOROOT(0)
?Subroutine0:
        CFI Block cfiBlock1 Using cfiCommon0
        CFI NoFunction
        CFI CFA_SP SP+-5
        CFI DPL0 Frame(CFA_SP, 4)
        CFI DPH0 Frame(CFA_SP, 5)
        POP     DPH
        CFI CFA_SP SP+-4
        CFI DPH0 SameValue
        POP     DPL
        CFI CFA_SP SP+-3
        CFI DPL0 SameValue
        LJMP    ?BRET
        CFI EndBlock cfiBlock1
//  121 
//  122 /**************************************************************************************************
//  123  * @fn      Hal_DriverInit
//  124  *
//  125  * @brief   Initialize HW - These need to be initialized before anyone.
//  126  *
//  127  * @param   task_id - Hal TaskId
//  128  *
//  129  * @return  None
//  130  **************************************************************************************************/

        RSEG BANKED_CODE:CODE:NOROOT(0)
//  131 void HalDriverInit (void)
HalDriverInit:
        CFI Block cfiBlock2 Using cfiCommon0
        CFI Function HalDriverInit
        CODE
//  132 {
        FUNCALL HalDriverInit, HalDmaInit
        LOCFRAME ISTACK, 2, STACK
        LOCFRAME PSTACK, 0, STACK
        LOCFRAME XSTACK, 0, STACK
        LOCFRAME IOVERLAY, 0, STATIC
        LOCFRAME DOVERLAY, 0, STATIC
        ARGFRAME ISTACK, 2, STACK
        ARGFRAME PSTACK, 0, STACK
        ARGFRAME XSTACK, 0, STACK
        ARGFRAME IOVERLAY, 0, STATIC
        ARGFRAME DOVERLAY, 0, STATIC
        FUNCALL HalDriverInit, HalAesInit
        LOCFRAME ISTACK, 2, STACK
        LOCFRAME PSTACK, 0, STACK
        LOCFRAME XSTACK, 0, STACK
        LOCFRAME IOVERLAY, 0, STATIC
        LOCFRAME DOVERLAY, 0, STATIC
        ARGFRAME ISTACK, 2, STACK
        ARGFRAME PSTACK, 0, STACK
        ARGFRAME XSTACK, 0, STACK
        ARGFRAME IOVERLAY, 0, STATIC
        ARGFRAME DOVERLAY, 0, STATIC
        FUNCALL HalDriverInit, HalLedInit
        LOCFRAME ISTACK, 2, STACK
        LOCFRAME PSTACK, 0, STACK
        LOCFRAME XSTACK, 0, STACK
        LOCFRAME IOVERLAY, 0, STATIC
        LOCFRAME DOVERLAY, 0, STATIC
        ARGFRAME ISTACK, 2, STACK
        ARGFRAME PSTACK, 0, STACK
        ARGFRAME XSTACK, 0, STACK
        ARGFRAME IOVERLAY, 0, STATIC
        ARGFRAME DOVERLAY, 0, STATIC
        FUNCALL HalDriverInit, HalUARTInit
        LOCFRAME ISTACK, 2, STACK
        LOCFRAME PSTACK, 0, STACK
        LOCFRAME XSTACK, 0, STACK
        LOCFRAME IOVERLAY, 0, STATIC
        LOCFRAME DOVERLAY, 0, STATIC
        ARGFRAME ISTACK, 2, STACK
        ARGFRAME PSTACK, 0, STACK
        ARGFRAME XSTACK, 0, STACK
        ARGFRAME IOVERLAY, 0, STATIC
        ARGFRAME DOVERLAY, 0, STATIC
        FUNCALL HalDriverInit, HalKeyInit
        LOCFRAME ISTACK, 2, STACK
        LOCFRAME PSTACK, 0, STACK
        LOCFRAME XSTACK, 0, STACK
        LOCFRAME IOVERLAY, 0, STATIC
        LOCFRAME DOVERLAY, 0, STATIC
        ARGFRAME ISTACK, 2, STACK
        ARGFRAME PSTACK, 0, STACK
        ARGFRAME XSTACK, 0, STACK
        ARGFRAME IOVERLAY, 0, STATIC
        ARGFRAME DOVERLAY, 0, STATIC
        FUNCALL HalDriverInit, GPIOInit
        LOCFRAME ISTACK, 2, STACK
        LOCFRAME PSTACK, 0, STACK
        LOCFRAME XSTACK, 0, STACK
        LOCFRAME IOVERLAY, 0, STATIC
        LOCFRAME DOVERLAY, 0, STATIC
        ARGFRAME ISTACK, 2, STACK
        ARGFRAME PSTACK, 0, STACK
        ARGFRAME XSTACK, 0, STACK
        ARGFRAME IOVERLAY, 0, STATIC
        ARGFRAME DOVERLAY, 0, STATIC
        PUSH    DPL
        CFI DPL0 Frame(CFA_SP, 4)
        CFI CFA_SP SP+-4
        PUSH    DPH
        CFI DPH0 Frame(CFA_SP, 5)
        CFI CFA_SP SP+-5
        ; Saved register size: 2
        ; Auto size: 0
//  133   /* TIMER */
//  134 #if (defined HAL_TIMER) && (HAL_TIMER == TRUE)
//  135   #error "The hal timer driver module is removed."
//  136 #endif
//  137 
//  138   /* ADC */
//  139 #if (defined HAL_ADC) && (HAL_ADC == TRUE)
//  140   HalAdcInit();
//  141 #endif
//  142 
//  143   /* DMA */
//  144 #if (defined HAL_DMA) && (HAL_DMA == TRUE)
//  145   // Must be called before the init call to any module that uses DMA.
//  146   HalDmaInit();
        ; Setup parameters for call to function HalDmaInit
        LCALL   ??HalDmaInit?relay
//  147 #endif
//  148 
//  149   /* AES */
//  150 #if (defined HAL_AES) && (HAL_AES == TRUE)
//  151   HalAesInit();
        ; Setup parameters for call to function HalAesInit
        LCALL   ??HalAesInit?relay
//  152 #endif
//  153 
//  154   /* LCD */
//  155 #if (defined HAL_LCD) && (HAL_LCD == TRUE)
//  156   HalLcdInit();
//  157 #endif
//  158 
//  159   /* LED */
//  160 #if (defined HAL_LED) && (HAL_LED == TRUE)
//  161   HalLedInit();
        ; Setup parameters for call to function HalLedInit
        LCALL   ??HalLedInit?relay
//  162 #endif
//  163 
//  164   /* UART */
//  165 #if (defined HAL_UART) && (HAL_UART == TRUE)
//  166   HalUARTInit();
        ; Setup parameters for call to function HalUARTInit
        LCALL   ??HalUARTInit?relay
//  167 #endif
//  168 
//  169   /* KEY */
//  170 #if (defined HAL_KEY) && (HAL_KEY == TRUE)
//  171   HalKeyInit();
        ; Setup parameters for call to function HalKeyInit
        LCALL   ??HalKeyInit?relay
//  172 #endif
//  173 
//  174   /* SPI */
//  175 #if (defined HAL_SPI) && (HAL_SPI == TRUE)
//  176   HalSpiInit();
//  177 #endif
//  178 
//  179   /* HID */
//  180 #if (defined HAL_HID) && (HAL_HID == TRUE)
//  181   usbHidInit();
//  182 #endif
//  183   /*GPIO*/
//  184   GPIOInit();
        ; Setup parameters for call to function GPIOInit
        LCALL   ??GPIOInit?relay
//  185 }
        SJMP    ?Subroutine0
        CFI EndBlock cfiBlock2
//  186 
//  187 
//  188 /**************************************************************************************************
//  189  * @fn      Hal_ProcessEvent
//  190  *
//  191  * @brief   Hal Process Event
//  192  *
//  193  * @param   task_id - Hal TaskId
//  194  *          events - events
//  195  *
//  196  * @return  None
//  197  **************************************************************************************************/

        RSEG BANKED_CODE:CODE:NOROOT(0)
//  198 uint16 Hal_ProcessEvent( uint8 task_id, uint16 events )
Hal_ProcessEvent:
        CFI Block cfiBlock3 Using cfiCommon0
        CFI Function Hal_ProcessEvent
        CODE
//  199 {
        FUNCALL Hal_ProcessEvent, osal_msg_receive
        LOCFRAME ISTACK, 0, STACK
        LOCFRAME PSTACK, 0, STACK
        LOCFRAME XSTACK, 10, STACK
        LOCFRAME IOVERLAY, 0, STATIC
        LOCFRAME DOVERLAY, 0, STATIC
        ARGFRAME ISTACK, 0, STACK
        ARGFRAME PSTACK, 0, STACK
        ARGFRAME XSTACK, 10, STACK
        ARGFRAME IOVERLAY, 0, STATIC
        ARGFRAME DOVERLAY, 0, STATIC
        FUNCALL Hal_ProcessEvent, osal_msg_deallocate
        LOCFRAME ISTACK, 0, STACK
        LOCFRAME PSTACK, 0, STACK
        LOCFRAME XSTACK, 10, STACK
        LOCFRAME IOVERLAY, 0, STATIC
        LOCFRAME DOVERLAY, 0, STATIC
        ARGFRAME ISTACK, 0, STACK
        ARGFRAME PSTACK, 0, STACK
        ARGFRAME XSTACK, 10, STACK
        ARGFRAME IOVERLAY, 0, STATIC
        ARGFRAME DOVERLAY, 0, STATIC
        FUNCALL Hal_ProcessEvent, osal_msg_receive
        LOCFRAME ISTACK, 0, STACK
        LOCFRAME PSTACK, 0, STACK
        LOCFRAME XSTACK, 10, STACK
        LOCFRAME IOVERLAY, 0, STATIC
        LOCFRAME DOVERLAY, 0, STATIC
        ARGFRAME ISTACK, 0, STACK
        ARGFRAME PSTACK, 0, STACK
        ARGFRAME XSTACK, 10, STACK
        ARGFRAME IOVERLAY, 0, STATIC
        ARGFRAME DOVERLAY, 0, STATIC
        FUNCALL Hal_ProcessEvent, HalLedUpdate
        LOCFRAME ISTACK, 0, STACK
        LOCFRAME PSTACK, 0, STACK
        LOCFRAME XSTACK, 10, STACK
        LOCFRAME IOVERLAY, 0, STATIC
        LOCFRAME DOVERLAY, 0, STATIC
        ARGFRAME ISTACK, 0, STACK
        ARGFRAME PSTACK, 0, STACK
        ARGFRAME XSTACK, 10, STACK
        ARGFRAME IOVERLAY, 0, STATIC
        ARGFRAME DOVERLAY, 0, STATIC
        FUNCALL Hal_ProcessEvent, HalKeyPoll
        LOCFRAME ISTACK, 0, STACK
        LOCFRAME PSTACK, 0, STACK
        LOCFRAME XSTACK, 10, STACK
        LOCFRAME IOVERLAY, 0, STATIC
        LOCFRAME DOVERLAY, 0, STATIC
        ARGFRAME ISTACK, 0, STACK
        ARGFRAME PSTACK, 0, STACK
        ARGFRAME XSTACK, 10, STACK
        ARGFRAME IOVERLAY, 0, STATIC
        ARGFRAME DOVERLAY, 0, STATIC
        FUNCALL Hal_ProcessEvent, osal_start_timerEx
        LOCFRAME ISTACK, 0, STACK
        LOCFRAME PSTACK, 0, STACK
        LOCFRAME XSTACK, 10, STACK
        LOCFRAME IOVERLAY, 0, STATIC
        LOCFRAME DOVERLAY, 0, STATIC
        ARGFRAME ISTACK, 0, STACK
        ARGFRAME PSTACK, 0, STACK
        ARGFRAME XSTACK, 10, STACK
        ARGFRAME IOVERLAY, 0, STATIC
        ARGFRAME DOVERLAY, 0, STATIC
        FUNCALL Hal_ProcessEvent, HalKeyCountPoll
        LOCFRAME ISTACK, 0, STACK
        LOCFRAME PSTACK, 0, STACK
        LOCFRAME XSTACK, 10, STACK
        LOCFRAME IOVERLAY, 0, STATIC
        LOCFRAME DOVERLAY, 0, STATIC
        ARGFRAME ISTACK, 0, STACK
        ARGFRAME PSTACK, 0, STACK
        ARGFRAME XSTACK, 10, STACK
        ARGFRAME IOVERLAY, 0, STATIC
        ARGFRAME DOVERLAY, 0, STATIC
        FUNCALL Hal_ProcessEvent, HalLongKeyListener
        LOCFRAME ISTACK, 0, STACK
        LOCFRAME PSTACK, 0, STACK
        LOCFRAME XSTACK, 10, STACK
        LOCFRAME IOVERLAY, 0, STATIC
        LOCFRAME DOVERLAY, 0, STATIC
        ARGFRAME ISTACK, 0, STACK
        ARGFRAME PSTACK, 0, STACK
        ARGFRAME XSTACK, 10, STACK
        ARGFRAME IOVERLAY, 0, STATIC
        ARGFRAME DOVERLAY, 0, STATIC
        MOV     A,#-0xa
        LCALL   ?BANKED_ENTER_XDATA
        CFI DPH0 load(1, XDATA, add(CFA_XSP16, literal(-1)))
        CFI DPL0 load(1, XDATA, add(CFA_XSP16, literal(-2)))
        CFI ?BRET_EXT load(1, XDATA, add(CFA_XSP16, literal(-3)))
        CFI ?RET_HIGH load(1, XDATA, add(CFA_XSP16, literal(-4)))
        CFI ?RET_LOW load(1, XDATA, add(CFA_XSP16, literal(-5)))
        CFI R7 load(1, XDATA, add(CFA_XSP16, literal(-6)))
        CFI V1 load(1, XDATA, add(CFA_XSP16, literal(-7)))
        CFI V0 load(1, XDATA, add(CFA_XSP16, literal(-8)))
        CFI VB load(1, XDATA, add(CFA_XSP16, literal(-9)))
        CFI R6 load(1, XDATA, add(CFA_XSP16, literal(-10)))
        CFI CFA_SP SP+0
        CFI CFA_XSP16 add(XSP16, 10)
        ; Saved register size: 10
        ; Auto size: 0
        MOV     A,R2
        MOV     R6,A
        MOV     A,R3
        MOV     R7,A
//  200   uint8 *msgPtr;
//  201   
//  202   (void)task_id;  // Intentionally unreferenced parameter
//  203 
//  204   if ( events & SYS_EVENT_MSG )
        ANL     A,#0x80
        JZ      ??Hal_ProcessEvent_0
//  205   {
//  206     msgPtr = osal_msg_receive(Hal_TaskID);
        ; Setup parameters for call to function osal_msg_receive
        MOV     DPTR,#Hal_TaskID
        MOVX    A,@DPTR
        MOV     R1,A
        LCALL   ??osal_msg_receive?relay
//  207 
//  208     while (msgPtr)
        MOV     A,R2
        ORL     A,R3
        JZ      ??Hal_ProcessEvent_1
//  209     {
//  210       /* Do something here - for now, just deallocate the msg and move on */
//  211 
//  212       /* De-allocate */
//  213       osal_msg_deallocate( msgPtr );
??Hal_ProcessEvent_2:
        ; Setup parameters for call to function osal_msg_deallocate
        LCALL   ??osal_msg_deallocate?relay
//  214       /* Next */
//  215       msgPtr = osal_msg_receive( Hal_TaskID );
        ; Setup parameters for call to function osal_msg_receive
        MOV     DPTR,#Hal_TaskID
        MOVX    A,@DPTR
        MOV     R1,A
        LCALL   ??osal_msg_receive?relay
        MOV     A,R2
        ORL     A,R3
        JNZ     ??Hal_ProcessEvent_2
//  216     }
//  217     return events ^ SYS_EVENT_MSG;
??Hal_ProcessEvent_1:
        MOV     A,R6
        MOV     R2,A
        MOV     A,R7
        XRL     A,#0x80
??Hal_ProcessEvent_3:
        MOV     R3,A
        SJMP    ??Hal_ProcessEvent_4
//  218   }
//  219 
//  220   if ( events & HAL_LED_BLINK_EVENT )
??Hal_ProcessEvent_0:
        MOV     A,R6
        ANL     A,#0x2
        JZ      ??Hal_ProcessEvent_5
//  221   {
//  222 #if (defined (BLINK_LEDS)) && (HAL_LED == TRUE)
//  223     HalLedUpdate();
        ; Setup parameters for call to function HalLedUpdate
        LCALL   ??HalLedUpdate?relay
//  224 #endif /* BLINK_LEDS && HAL_LED */
//  225     return events ^ HAL_LED_BLINK_EVENT;
        MOV     A,R6
        XRL     A,#0x2
??Hal_ProcessEvent_6:
        MOV     R2,A
        MOV     A,R7
        SJMP    ??Hal_ProcessEvent_3
//  226   }
//  227 
//  228   if (events & HAL_KEY_EVENT)
??Hal_ProcessEvent_5:
        MOV     A,R6
        MOV     C,0xE0 /* A   */.0
        JNC     ??Hal_ProcessEvent_7
//  229   {
//  230 
//  231 #if (defined HAL_KEY) && (HAL_KEY == TRUE)
//  232     /* Check for keys */
//  233     HalKeyPoll();
        ; Setup parameters for call to function HalKeyPoll
        LCALL   ??HalKeyPoll?relay
//  234 
//  235     /* if interrupt disabled, do next polling */
//  236     if (!Hal_KeyIntEnable)
        MOV     DPTR,#Hal_KeyIntEnable
        MOVX    A,@DPTR
        JNZ     ??Hal_ProcessEvent_8
//  237     {
//  238       osal_start_timerEx( Hal_TaskID, HAL_KEY_EVENT, 100);
        ; Setup parameters for call to function osal_start_timerEx
        MOV     R4,#0x64
        MOV     R5,#0x0
        MOV     R2,#0x1
        MOV     R3,#0x0
        MOV     DPTR,#Hal_TaskID
        MOVX    A,@DPTR
        MOV     R1,A
        LCALL   ??osal_start_timerEx?relay
//  239     }
//  240 #endif // HAL_KEY
//  241 
//  242     return events ^ HAL_KEY_EVENT;
??Hal_ProcessEvent_8:
        MOV     A,R6
        XRL     A,#0x1
        SJMP    ??Hal_ProcessEvent_6
//  243   }
//  244 
//  245 #ifdef HAL_KEY_COMBINE_INT_METHOD
//  246   if (events & HAL_KEY_COUNT_EVENT)
??Hal_ProcessEvent_7:
        ANL     A,#0x10
        JZ      ??Hal_ProcessEvent_9
//  247   {
//  248   	HalKeyCountPoll();
        ; Setup parameters for call to function HalKeyCountPoll
        LCALL   ??HalKeyCountPoll?relay
//  249 	return events ^ HAL_KEY_COUNT_EVENT;
        MOV     A,R6
        XRL     A,#0x10
        SJMP    ??Hal_ProcessEvent_6
//  250   }
//  251 
//  252 #ifndef HAL_KEY_LONG_SHORT_DISTINGUISH
//  253   if (events & HAL_LONG_KEY_EVENT)
??Hal_ProcessEvent_9:
        MOV     A,R6
        ANL     A,#0x20
        JZ      ??Hal_ProcessEvent_10
//  254   {
//  255   	HalLongKeyListener();
        ; Setup parameters for call to function HalLongKeyListener
        LCALL   ??HalLongKeyListener?relay
//  256 	return events ^ HAL_LONG_KEY_EVENT;
        MOV     A,R6
        XRL     A,#0x20
        SJMP    ??Hal_ProcessEvent_6
//  257   }
//  258 #endif
//  259 #endif
//  260 
//  261 #ifdef POWER_SAVING
//  262   if ( events & HAL_SLEEP_TIMER_EVENT )
//  263   {
//  264     halRestoreSleepLevel();
//  265     return events ^ HAL_SLEEP_TIMER_EVENT;
//  266   }
//  267 #endif
//  268 
//  269 #ifdef CC2591_COMPRESSION_WORKAROUND
//  270   if ( events & PERIOD_RSSI_RESET_EVT )
//  271   {
//  272     macRxResetRssi();
//  273     return (events ^ PERIOD_RSSI_RESET_EVT);
//  274   }
//  275 #endif  
//  276   
//  277   /* Nothing interested, discard the message */
//  278   return 0;
??Hal_ProcessEvent_10:
        MOV     R2,#0x0
        MOV     R3,#0x0
??Hal_ProcessEvent_4:
        MOV     R7,#0x2
        LJMP    ?BANKED_LEAVE_XDATA
        CFI EndBlock cfiBlock3
//  279 
//  280 }
//  281 
//  282 /**************************************************************************************************
//  283  * @fn      Hal_ProcessPoll
//  284  *
//  285  * @brief   This routine will be called by OSAL to poll UART, TIMER...
//  286  *
//  287  * @param   task_id - Hal TaskId
//  288  *
//  289  * @return  None
//  290  **************************************************************************************************/

        RSEG BANKED_CODE:CODE:NOROOT(0)
//  291 void Hal_ProcessPoll ()
Hal_ProcessPoll:
        CFI Block cfiBlock4 Using cfiCommon0
        CFI Function Hal_ProcessPoll
        CODE
//  292 {
        FUNCALL Hal_ProcessPoll, HalUARTPoll
        LOCFRAME ISTACK, 2, STACK
        LOCFRAME PSTACK, 0, STACK
        LOCFRAME XSTACK, 0, STACK
        LOCFRAME IOVERLAY, 0, STATIC
        LOCFRAME DOVERLAY, 0, STATIC
        ARGFRAME ISTACK, 2, STACK
        ARGFRAME PSTACK, 0, STACK
        ARGFRAME XSTACK, 0, STACK
        ARGFRAME IOVERLAY, 0, STATIC
        ARGFRAME DOVERLAY, 0, STATIC
        PUSH    DPL
        CFI DPL0 Frame(CFA_SP, 4)
        CFI CFA_SP SP+-4
        PUSH    DPH
        CFI DPH0 Frame(CFA_SP, 5)
        CFI CFA_SP SP+-5
        ; Saved register size: 2
        ; Auto size: 0
//  293 
//  294   /* Timer Poll */
//  295 #if (defined HAL_TIMER) && (HAL_TIMER == TRUE)
//  296   #error "The hal timer driver module is removed."
//  297 #endif
//  298 
//  299   /* UART Poll */
//  300 #if (defined HAL_UART) && (HAL_UART == TRUE)
//  301   HalUARTPoll();
        ; Setup parameters for call to function HalUARTPoll
        LCALL   ??HalUARTPoll?relay
//  302 #endif  
//  303 
//  304   /* SPI Poll */
//  305 #if (defined HAL_SPI) && (HAL_SPI == TRUE)
//  306   HalSpiPoll();
//  307 #endif
//  308 
//  309   /* HID poll */
//  310 #if (defined HAL_HID) && (HAL_HID == TRUE)
//  311   usbHidProcessEvents();
//  312 #endif
//  313   
//  314 #if defined( POWER_SAVING )
//  315   /* Allow sleep before the next OSAL event loop */
//  316   ALLOW_SLEEP_MODE();
//  317 #endif
//  318 
//  319 }
        LJMP    ?Subroutine0 & 0xFFFF
        CFI EndBlock cfiBlock4

        RSEG BANK_RELAYS:CODE:REORDER:NOROOT(0)
??Hal_Init?relay:
        LCALL   ?BDISPATCH
        DATA
        DC24    Hal_Init

        RSEG BANK_RELAYS:CODE:REORDER:NOROOT(0)
??HalDriverInit?relay:
        LCALL   ?BDISPATCH
        DATA
        DC24    HalDriverInit

        RSEG BANK_RELAYS:CODE:REORDER:NOROOT(0)
??Hal_ProcessEvent?relay:
        LCALL   ?BDISPATCH
        DATA
        DC24    Hal_ProcessEvent

        RSEG BANK_RELAYS:CODE:REORDER:NOROOT(0)
??Hal_ProcessPoll?relay:
        LCALL   ?BDISPATCH
        DATA
        DC24    Hal_ProcessPoll

        END
//  320 
//  321 
//  322 #if !defined(DEVICE_TYPE_ID) && defined(SSA_ENDNODE)
//  323 void HalDeviceInit(void)
//  324 {}
//  325 
//  326 void HalStatesInit(devStates_t status)
//  327 {}
//  328 #endif
//  329 
//  330 /**************************************************************************************************
//  331 **************************************************************************************************/
//  332 
// 
// 182 bytes in segment BANKED_CODE
//  24 bytes in segment BANK_RELAYS
//   1 byte  in segment XDATA_Z
// 
// 206 bytes of CODE  memory
//   1 byte  of XDATA memory
//
//Errors: none
//Warnings: none
