///////////////////////////////////////////////////////////////////////////////
//                                                                            /
// IAR C/C++ Compiler V8.10.1.10194/W32 for 8051        01/Dec/2016  17:11:15 /
// Copyright 2004-2011 IAR Systems AB.                                        /
//                                                                            /
//    Core               =  plain                                             /
//    Code model         =  banked                                            /
//    Data model         =  large                                             /
//    Calling convention =  xdata reentrant                                   /
//    Constant location  =  data_rom                                          /
//    Dptr setup         =  1,16                                              /
//    Source file        =  E:\work\zigbee\ZStack-Smart-2.5.2b\Projects\zstac /
//                          k\Applications\SmartApp\Source\Common\CommonApp.c /
//    Command line       =  -f E:\work\zigbee\ZStack-Smart-2.5.2b\Projects\zs /
//                          tack\Applications\SmartApp\CC2530DB\Devices\..\.. /
//                          \..\..\Tools\CC2530DB\f8wCoord.cfg (-DCPU32MHZ    /
//                          -DROOT=__near_func -DMAC_CFG_APP_PENDING_QUEUE=TR /
//                          UE -DMAC_CFG_TX_DATA_MAX=5 -DMAC_CFG_TX_MAX=8     /
//                          -DMAC_CFG_RX_MAX=5 -DZDO_COORDINATOR -DRTR_NWK    /
//                          -DSSA_CONNECTOR) -f E:\work\zigbee\ZStack-Smart-2 /
//                          .5.2b\Projects\zstack\Applications\SmartApp\CC253 /
//                          0DB\Devices\..\..\..\..\Tools\CC2530DB\f8wConfig. /
//                          cfg (-DZIGBEEPRO -DSECURE=1                       /
//                          -DZG_SECURE_DYNAMIC=1 -DREFLECTOR                 /
//                          -DDEFAULT_CHANLIST=0x00000800                     /
//                          -DZDAPP_CONFIG_PAN_ID=0xFFFF                      /
//                          -DNWK_START_DELAY=100 -DEXTENDED_JOINING_RANDOM_M /
//                          ASK=0x007F -DBEACON_REQUEST_DELAY=100             /
//                          -DBEACON_REQ_DELAY_MASK=0x00FF                    /
//                          -DLINK_STATUS_JITTER_MASK=0x007F                  /
//                          -DROUTE_EXPIRY_TIME=30 -DAPSC_ACK_WAIT_DURATION_P /
//                          OLLED=3000 -DNWK_INDIRECT_MSG_TIMEOUT=7           /
//                          -DMAX_RREQ_ENTRIES=8 -DAPSC_MAX_FRAME_RETRIES=3   /
//                          -DNWK_MAX_DATA_RETRIES=2                          /
//                          -DMAX_POLL_FAILURE_RETRIES=2 -DMAX_BCAST=9        /
//                          -DAPS_MAX_GROUPS=16 -DMAX_RTG_ENTRIES=40          /
//                          -DNWK_MAX_BINDING_ENTRIES=4                       /
//                          -DMAX_BINDING_CLUSTER_IDS=4                       /
//                          "-DDEFAULT_KEY={0x01, 0x03, 0x05, 0x07, 0x09,     /
//                          0x0B, 0x0D, 0x0F, 0x00, 0x02, 0x04, 0x06, 0x08,   /
//                          0x0A, 0x0C, 0x0D}" -DMAC_MAX_FRAME_SIZE=116       /
//                          -DZDNWKMGR_MIN_TRANSMISSIONS=20 "-DCONST=const    /
//                          __code" -DGENERIC=__generic                       /
//                          -DRFD_RCVC_ALWAYS_ON=TRUE -DPOLL_RATE=1000        /
//                          -DQUEUED_POLL_RATE=100 -DRESPONSE_POLL_RATE=100)  /
//                          -DREJOIN_POLL_RATE=440 E:\work\zigbee\ZStack-Smar /
//                          t-2.5.2b\Projects\zstack\Applications\SmartApp\So /
//                          urce\Common\CommonApp.c -D SECURE=1 -D ZTOOL_P1   /
//                          -D DEVICE_TYPE_ID=0xFE -D                         /
//                          SIGNAL_AMPLIFIER_SETTING -D                       /
//                          xPOWER_AMPLIFIER_POSITION_1 -D xNWK_AUTO_POLL -D  /
//                          xHAL_UART_DMA=2 -D xHAL_UART_DMA_ALT1 -D          /
//                          xJIAJU_BUILDIN -D MT_TASK -D MT_SYS_FUNC -D       /
//                          MT_ZDO_FUNC -D NV_INIT -D NV_RESTORE -lC          /
//                          E:\work\zigbee\ZStack-Smart-2.5.2b\Projects\zstac /
//                          k\Applications\SmartApp\CC2530DB\bin\DemoBaseZC\L /
//                          ist\ -lA E:\work\zigbee\ZStack-Smart-2.5.2b\Proje /
//                          cts\zstack\Applications\SmartApp\CC2530DB\bin\Dem /
//                          oBaseZC\List\ --diag_suppress Pe001,Pa010 -o      /
//                          E:\work\zigbee\ZStack-Smart-2.5.2b\Projects\zstac /
//                          k\Applications\SmartApp\CC2530DB\bin\DemoBaseZC\O /
//                          bj\ -e --debug --core=plain --dptr=16,1           /
//                          --data_model=large --code_model=banked            /
//                          --calling_convention=xdata_reentrant              /
//                          --place_constants=data_rom --nr_virtual_regs 16   /
//                          -I E:\work\zigbee\ZStack-Smart-2.5.2b\Projects\zs /
//                          tack\Applications\SmartApp\CC2530DB\Devices\ -I   /
//                          E:\work\zigbee\ZStack-Smart-2.5.2b\Projects\zstac /
//                          k\Applications\SmartApp\CC2530DB\Devices\..\..\So /
//                          urce\Common\ -I E:\work\zigbee\ZStack-Smart-2.5.2 /
//                          b\Projects\zstack\Applications\SmartApp\CC2530DB\ /
//                          Devices\..\..\Source\Connector\ -I                /
//                          E:\work\zigbee\ZStack-Smart-2.5.2b\Projects\zstac /
//                          k\Applications\SmartApp\CC2530DB\Devices\..\..\So /
//                          urce\\EndNode\ -I E:\work\zigbee\ZStack-Smart-2.5 /
//                          .2b\Projects\zstack\Applications\SmartApp\CC2530D /
//                          B\Devices\..\..\Source\Board\ -I                  /
//                          E:\work\zigbee\ZStack-Smart-2.5.2b\Projects\zstac /
//                          k\Applications\SmartApp\CC2530DB\Devices\..\..\So /
//                          urce\Manage\ -I E:\work\zigbee\ZStack-Smart-2.5.2 /
//                          b\Projects\zstack\Applications\SmartApp\CC2530DB\ /
//                          Devices\..\..\Source\Manage\Callbacks\ -I         /
//                          E:\work\zigbee\ZStack-Smart-2.5.2b\Projects\zstac /
//                          k\Applications\SmartApp\CC2530DB\Devices\..\..\So /
//                          urce\Manage\debug\ -I E:\work\zigbee\ZStack-Smart /
//                          -2.5.2b\Projects\zstack\Applications\SmartApp\CC2 /
//                          530DB\Devices\..\..\Source\Manage\HeartBeat\ -I   /
//                          E:\work\zigbee\ZStack-Smart-2.5.2b\Projects\zstac /
//                          k\Applications\SmartApp\CC2530DB\Devices\..\..\So /
//                          urce\Manage\incode\ -I E:\work\zigbee\ZStack-Smar /
//                          t-2.5.2b\Projects\zstack\Applications\SmartApp\CC /
//                          2530DB\Devices\..\..\..\..\ZMain\TI2530DB\ -I     /
//                          E:\work\zigbee\ZStack-Smart-2.5.2b\Projects\zstac /
//                          k\Applications\SmartApp\CC2530DB\Devices\..\..\.. /
//                          \..\..\..\Components\hal\include\ -I              /
//                          E:\work\zigbee\ZStack-Smart-2.5.2b\Projects\zstac /
//                          k\Applications\SmartApp\CC2530DB\Devices\..\..\.. /
//                          \..\..\..\Components\hal\target\CC2530EB\ -I      /
//                          E:\work\zigbee\ZStack-Smart-2.5.2b\Projects\zstac /
//                          k\Applications\SmartApp\CC2530DB\Devices\..\..\.. /
//                          \..\..\..\Components\mac\include\ -I              /
//                          E:\work\zigbee\ZStack-Smart-2.5.2b\Projects\zstac /
//                          k\Applications\SmartApp\CC2530DB\Devices\..\..\.. /
//                          \..\..\..\Components\mac\high_level\ -I           /
//                          E:\work\zigbee\ZStack-Smart-2.5.2b\Projects\zstac /
//                          k\Applications\SmartApp\CC2530DB\Devices\..\..\.. /
//                          \..\..\..\Components\mac\low_level\srf04\ -I      /
//                          E:\work\zigbee\ZStack-Smart-2.5.2b\Projects\zstac /
//                          k\Applications\SmartApp\CC2530DB\Devices\..\..\.. /
//                          \..\..\..\Components\mac\low_level\srf04\single_c /
//                          hip\ -I E:\work\zigbee\ZStack-Smart-2.5.2b\Projec /
//                          ts\zstack\Applications\SmartApp\CC2530DB\Devices\ /
//                          ..\..\..\..\..\..\Components\mt\ -I               /
//                          E:\work\zigbee\ZStack-Smart-2.5.2b\Projects\zstac /
//                          k\Applications\SmartApp\CC2530DB\Devices\..\..\.. /
//                          \..\..\..\Components\osal\include\ -I             /
//                          E:\work\zigbee\ZStack-Smart-2.5.2b\Projects\zstac /
//                          k\Applications\SmartApp\CC2530DB\Devices\..\..\.. /
//                          \..\..\..\Components\services\saddr\ -I           /
//                          E:\work\zigbee\ZStack-Smart-2.5.2b\Projects\zstac /
//                          k\Applications\SmartApp\CC2530DB\Devices\..\..\.. /
//                          \..\..\..\Components\services\sdata\ -I           /
//                          E:\work\zigbee\ZStack-Smart-2.5.2b\Projects\zstac /
//                          k\Applications\SmartApp\CC2530DB\Devices\..\..\.. /
//                          \..\..\..\Components\stack\af\ -I                 /
//                          E:\work\zigbee\ZStack-Smart-2.5.2b\Projects\zstac /
//                          k\Applications\SmartApp\CC2530DB\Devices\..\..\.. /
//                          \..\..\..\Components\stack\nwk\ -I                /
//                          E:\work\zigbee\ZStack-Smart-2.5.2b\Projects\zstac /
//                          k\Applications\SmartApp\CC2530DB\Devices\..\..\.. /
//                          \..\..\..\Components\stack\sapi\ -I               /
//                          E:\work\zigbee\ZStack-Smart-2.5.2b\Projects\zstac /
//                          k\Applications\SmartApp\CC2530DB\Devices\..\..\.. /
//                          \..\..\..\Components\stack\sec\ -I                /
//                          E:\work\zigbee\ZStack-Smart-2.5.2b\Projects\zstac /
//                          k\Applications\SmartApp\CC2530DB\Devices\..\..\.. /
//                          \..\..\..\Components\stack\sys\ -I                /
//                          E:\work\zigbee\ZStack-Smart-2.5.2b\Projects\zstac /
//                          k\Applications\SmartApp\CC2530DB\Devices\..\..\.. /
//                          \..\..\..\Components\stack\zdo\ -I                /
//                          E:\work\zigbee\ZStack-Smart-2.5.2b\Projects\zstac /
//                          k\Applications\SmartApp\CC2530DB\Devices\..\..\.. /
//                          \..\..\..\Components\zmac\ -I                     /
//                          E:\work\zigbee\ZStack-Smart-2.5.2b\Projects\zstac /
//                          k\Applications\SmartApp\CC2530DB\Devices\..\..\.. /
//                          \..\..\..\Components\zmac\f8w\ -Oh                /
//                          --require_prototypes                              /
//    List file          =  E:\work\zigbee\ZStack-Smart-2.5.2b\Projects\zstac /
//                          k\Applications\SmartApp\CC2530DB\bin\DemoBaseZC\L /
//                          ist\CommonApp.s51                                 /
//                                                                            /
//                                                                            /
///////////////////////////////////////////////////////////////////////////////

        NAME CommonApp

        RTMODEL "__SystemLibrary", "CLib"
        RTMODEL "__calling_convention", "xdata_reentrant"
        RTMODEL "__code_model", "banked"
        RTMODEL "__core", "plain"
        RTMODEL "__data_model", "large"
        RTMODEL "__dptr_size", "16"
        RTMODEL "__extended_stack", "disabled"
        RTMODEL "__location_for_constants", "data"
        RTMODEL "__number_of_dptrs", "1"
        RTMODEL "__rt_version", "1"

        RSEG DOVERLAY:DATA:NOROOT(0)
        RSEG IOVERLAY:IDATA:NOROOT(0)
        RSEG ISTACK:IDATA:NOROOT(0)
        RSEG PSTACK:XDATA:NOROOT(0)
        RSEG XSTACK:XDATA:NOROOT(0)

        EXTERN ?ALLOC_XSTACK8
        EXTERN ?BANKED_ENTER_XDATA
        EXTERN ?BANKED_LEAVE_XDATA
        EXTERN ?BDISPATCH
        EXTERN ?BRET
        EXTERN ?DEALLOC_XSTACK8
        EXTERN ?MOVE_LONG8_XDATA_XDATA
        EXTERN ?PUSH_XSTACK_I_ONE
        EXTERN ?PUSH_XSTACK_I_THREE
        EXTERN ?PUSH_XSTACK_I_TWO
        EXTERN ?V0
        EXTERN ?XSP
        EXTERN ?XSTACK_DISP0_8
        EXTERN __INIT_XDATA_I
        EXTERN __INIT_XDATA_Z

        PUBLIC ??CommonApp_CmdPeroidCB?relay
        FUNCTION ??CommonApp_CmdPeroidCB?relay,0203H
        PUBLIC ??CommonApp_GetDevDataSend?relay
        FUNCTION ??CommonApp_GetDevDataSend?relay,0203H
        PUBLIC ??CommonApp_GetDeviceInfo?relay
        FUNCTION ??CommonApp_GetDeviceInfo?relay,0203H
        FUNCTION ??CommonApp_HandleKeys?relay,0203H
        PUBLIC ??CommonApp_Init?relay
        FUNCTION ??CommonApp_Init?relay,0203H
        FUNCTION ??CommonApp_PermitJoiningLedIndicate?relay,0203H
        PUBLIC ??CommonApp_PermitJoiningRequest?relay
        FUNCTION ??CommonApp_PermitJoiningRequest?relay,0203H
        PUBLIC ??CommonApp_ProcessEvent?relay
        FUNCTION ??CommonApp_ProcessEvent?relay,0203H
        PUBLIC ??CommonApp_SendTheMessage?relay
        FUNCTION ??CommonApp_SendTheMessage?relay,0203H
        PUBLIC ??CommonDevice_GetData?relay
        FUNCTION ??CommonDevice_GetData?relay,0203H
        PUBLIC ??CommonDevice_SetData?relay
        FUNCTION ??CommonDevice_SetData?relay,0203H
        PUBLIC ??DataCmd_Ctrl?relay
        FUNCTION ??DataCmd_Ctrl?relay,0203H
        PUBLIC ??PermitJoin_Refresh?relay
        FUNCTION ??PermitJoin_Refresh?relay,0203H
        PUBLIC ??RS485_GetDevDataSend?relay
        FUNCTION ??RS485_GetDevDataSend?relay,0203H
        PUBLIC ??Update_Refresh?relay
        FUNCTION ??Update_Refresh?relay,0203H
        PUBLIC CommonApp_CmdPeroidCB
        FUNCTION CommonApp_CmdPeroidCB,021203H
        ARGFRAME XSTACK, 2, STACK
        LOCFRAME ISTACK, 4, STACK
        LOCFRAME XSTACK, 129, STACK
        PUBLIC CommonApp_DstAddr
        PUBLIC CommonApp_GetDevDataSend
        FUNCTION CommonApp_GetDevDataSend,021203H
        ARGFRAME XSTACK, 0, STACK
        LOCFRAME ISTACK, 2, STACK
        PUBLIC CommonApp_GetDeviceInfo
        FUNCTION CommonApp_GetDeviceInfo,021203H
        ARGFRAME XSTACK, 0, STACK
        LOCFRAME XSTACK, 14, STACK
        FUNCTION CommonApp_HandleKeys,021203H
        ARGFRAME XSTACK, 14, STACK
        ARGFRAME IOVERLAY, 0, STATIC
        ARGFRAME DOVERLAY, 0, STATIC
        LOCFRAME XSTACK, 30, STACK
        PUBLIC CommonApp_InClusterList
        PUBLIC CommonApp_Init
        FUNCTION CommonApp_Init,021203H
        ARGFRAME XSTACK, 0, STACK
        LOCFRAME XSTACK, 9, STACK
        PUBLIC CommonApp_NwkState
        PUBLIC CommonApp_OutClusterList
        FUNCTION CommonApp_PermitJoiningLedIndicate,021603H
        ARGFRAME XSTACK, 12, STACK
        ARGFRAME IOVERLAY, 0, STATIC
        ARGFRAME DOVERLAY, 0, STATIC
        LOCFRAME ISTACK, 2, STACK
        PUBLIC CommonApp_PermitJoiningRequest
        FUNCTION CommonApp_PermitJoiningRequest,021203H
        ARGFRAME XSTACK, 0, STACK
        LOCFRAME XSTACK, 15, STACK
        PUBLIC CommonApp_ProcessEvent
        FUNCTION CommonApp_ProcessEvent,021203H
        ARGFRAME XSTACK, 0, STACK
        LOCFRAME XSTACK, 14, STACK
        PUBLIC CommonApp_SendTheMessage
        FUNCTION CommonApp_SendTheMessage,021203H
        ARGFRAME XSTACK, 32, STACK
        ARGFRAME IOVERLAY, 0, STATIC
        ARGFRAME DOVERLAY, 0, STATIC
        LOCFRAME XSTACK, 19, STACK
        PUBLIC CommonApp_SimpleDesc
        PUBLIC CommonApp_TaskID
        PUBLIC CommonApp_TransID
        PUBLIC CommonApp_epDesc
        PUBLIC CommonDevice_GetData
        FUNCTION CommonDevice_GetData,021203H
        ARGFRAME XSTACK, 0, STACK
        LOCFRAME ISTACK, 2, STACK
        PUBLIC CommonDevice_SetData
        FUNCTION CommonDevice_SetData,021203H
        ARGFRAME XSTACK, 9, STACK
        ARGFRAME IOVERLAY, 0, STATIC
        ARGFRAME DOVERLAY, 0, STATIC
        LOCFRAME XSTACK, 15, STACK
        PUBLIC DataCmd_Ctrl
        FUNCTION DataCmd_Ctrl,021203H
        ARGFRAME XSTACK, 0, STACK
        LOCFRAME XSTACK, 9, STACK
        PUBLIC EXT_ADDR_G
        PUBLIC PermitJoin_Refresh
        FUNCTION PermitJoin_Refresh,021203H
        ARGFRAME XSTACK, 0, STACK
        LOCFRAME ISTACK, 2, STACK
        LOCFRAME XSTACK, 61, STACK
        PUBLIC RS485_GetDevDataSend
        FUNCTION RS485_GetDevDataSend,021203H
        ARGFRAME XSTACK, 0, STACK
        LOCFRAME ISTACK, 2, STACK
        PUBLIC SHORT_ADDR_G
        PUBLIC Update_Refresh
        FUNCTION Update_Refresh,021203H
        ARGFRAME XSTACK, 129, STACK
        ARGFRAME IOVERLAY, 0, STATIC
        ARGFRAME DOVERLAY, 0, STATIC
        LOCFRAME ISTACK, 1, STACK
        LOCFRAME XSTACK, 34, STACK
        PUBLIC isFirstState
        PUBLIC isPermitJoining
        PUBLIC macAddr
        PUBLIC nwkAddr
        PUBLIC nwkAddr_buf
        PUBLIC optData
        PUBLIC optDataLen
        
        CFI Names cfiNames0
        CFI StackFrame CFA_SP SP IDATA
        CFI StackFrame CFA_PSP16 PSP16 XDATA
        CFI StackFrame CFA_XSP16 XSP16 XDATA
        CFI StaticOverlayFrame CFA_IOVERLAY IOVERLAY
        CFI StaticOverlayFrame CFA_DOVERLAY DOVERLAY
        CFI Resource `PSW.CY`:1, `B.BR0`:1, `B.BR1`:1, `B.BR2`:1, `B.BR3`:1
        CFI Resource `B.BR4`:1, `B.BR5`:1, `B.BR6`:1, `B.BR7`:1, `VB.BR8`:1
        CFI Resource `VB.BR9`:1, `VB.BR10`:1, `VB.BR11`:1, `VB.BR12`:1
        CFI Resource `VB.BR13`:1, `VB.BR14`:1, `VB.BR15`:1, VB:8, B:8, A:8
        CFI Resource PSW:8, DPL0:8, DPH0:8, R0:8, R1:8, R2:8, R3:8, R4:8, R5:8
        CFI Resource R6:8, R7:8, V0:8, V1:8, V2:8, V3:8, V4:8, V5:8, V6:8, V7:8
        CFI Resource V8:8, V9:8, V10:8, V11:8, V12:8, V13:8, V14:8, V15:8, SP:8
        CFI Resource PSPH:8, PSPL:8, PSP16:16, XSPH:8, XSPL:8, XSP16:16
        CFI VirtualResource ?RET:24
        CFI Resource ?BRET_EXT:8
        CFI VirtualResource ?RET_HIGH:8, ?RET_LOW:8
        CFI ResourceParts PSP16 PSPH, PSPL
        CFI ResourceParts XSP16 XSPH, XSPL
        CFI ResourceParts ?RET ?BRET_EXT, ?RET_HIGH, ?RET_LOW
        CFI EndNames cfiNames0
        
        CFI Common cfiCommon0 Using cfiNames0
        CFI CodeAlign 1
        CFI DataAlign -1
        CFI ReturnAddress ?RET CODE
        CFI CFA_DOVERLAY Used
        CFI CFA_IOVERLAY Used
        CFI CFA_SP SP+-3
        CFI CFA_PSP16 PSP16+0
        CFI CFA_XSP16 XSP16+0
        CFI `PSW.CY` SameValue
        CFI `B.BR0` SameValue
        CFI `B.BR1` SameValue
        CFI `B.BR2` SameValue
        CFI `B.BR3` SameValue
        CFI `B.BR4` SameValue
        CFI `B.BR5` SameValue
        CFI `B.BR6` SameValue
        CFI `B.BR7` SameValue
        CFI `VB.BR8` SameValue
        CFI `VB.BR9` SameValue
        CFI `VB.BR10` SameValue
        CFI `VB.BR11` SameValue
        CFI `VB.BR12` SameValue
        CFI `VB.BR13` SameValue
        CFI `VB.BR14` SameValue
        CFI `VB.BR15` SameValue
        CFI VB SameValue
        CFI B Undefined
        CFI A Undefined
        CFI PSW SameValue
        CFI DPL0 SameValue
        CFI DPH0 SameValue
        CFI R0 Undefined
        CFI R1 Undefined
        CFI R2 Undefined
        CFI R3 Undefined
        CFI R4 Undefined
        CFI R5 Undefined
        CFI R6 SameValue
        CFI R7 SameValue
        CFI V0 SameValue
        CFI V1 SameValue
        CFI V2 SameValue
        CFI V3 SameValue
        CFI V4 SameValue
        CFI V5 SameValue
        CFI V6 SameValue
        CFI V7 SameValue
        CFI V8 SameValue
        CFI V9 SameValue
        CFI V10 SameValue
        CFI V11 SameValue
        CFI V12 SameValue
        CFI V13 SameValue
        CFI V14 SameValue
        CFI V15 SameValue
        CFI PSPH Undefined
        CFI PSPL Undefined
        CFI XSPH Undefined
        CFI XSPL Undefined
        CFI ?RET Concat
        CFI ?BRET_EXT Frame(CFA_SP, 3)
        CFI ?RET_HIGH Frame(CFA_SP, 2)
        CFI ?RET_LOW Frame(CFA_SP, 1)
        CFI EndCommon cfiCommon0
        
        
        CFI Common cfiCommon1 Using cfiNames0
        CFI CodeAlign 1
        CFI DataAlign -1
        CFI ReturnAddress ?RET CODE
        CFI CFA_DOVERLAY Used
        CFI CFA_IOVERLAY Used
        CFI CFA_SP SP+-2
        CFI CFA_PSP16 PSP16+0
        CFI CFA_XSP16 XSP16+0
        CFI `PSW.CY` SameValue
        CFI `B.BR0` SameValue
        CFI `B.BR1` SameValue
        CFI `B.BR2` SameValue
        CFI `B.BR3` SameValue
        CFI `B.BR4` SameValue
        CFI `B.BR5` SameValue
        CFI `B.BR6` SameValue
        CFI `B.BR7` SameValue
        CFI `VB.BR8` SameValue
        CFI `VB.BR9` SameValue
        CFI `VB.BR10` SameValue
        CFI `VB.BR11` SameValue
        CFI `VB.BR12` SameValue
        CFI `VB.BR13` SameValue
        CFI `VB.BR14` SameValue
        CFI `VB.BR15` SameValue
        CFI VB SameValue
        CFI B SameValue
        CFI A SameValue
        CFI PSW SameValue
        CFI DPL0 SameValue
        CFI DPH0 SameValue
        CFI R0 SameValue
        CFI R1 SameValue
        CFI R2 SameValue
        CFI R3 SameValue
        CFI R4 SameValue
        CFI R5 SameValue
        CFI R6 SameValue
        CFI R7 SameValue
        CFI V0 SameValue
        CFI V1 SameValue
        CFI V2 SameValue
        CFI V3 SameValue
        CFI V4 SameValue
        CFI V5 SameValue
        CFI V6 SameValue
        CFI V7 SameValue
        CFI V8 SameValue
        CFI V9 SameValue
        CFI V10 SameValue
        CFI V11 SameValue
        CFI V12 SameValue
        CFI V13 SameValue
        CFI V14 SameValue
        CFI V15 SameValue
        CFI PSPH Undefined
        CFI PSPL Undefined
        CFI XSPH Undefined
        CFI XSPL Undefined
        CFI ?RET Concat
        CFI ?BRET_EXT SameValue
        CFI ?RET_HIGH Frame(CFA_SP, 2)
        CFI ?RET_LOW Frame(CFA_SP, 1)
        CFI EndCommon cfiCommon1
        
Serial_Init         SYMBOL "Serial_Init"
afRegister          SYMBOL "afRegister"
RegisterForKeys     SYMBOL "RegisterForKeys"
ZDO_RegisterForZDOMsg SYMBOL "ZDO_RegisterForZDOMsg"
CommonApp_InitConfirm SYMBOL "CommonApp_InitConfirm"
osal_msg_receive    SYMBOL "osal_msg_receive"
ZDO_ParseEPListRsp  SYMBOL "ZDO_ParseEPListRsp"
osal_mem_free       SYMBOL "osal_mem_free"
HalLedSet           SYMBOL "HalLedSet"
CommonApp_MessageMSGCB SYMBOL "CommonApp_MessageMSGCB"
CommonApp_ProcessZDOStates SYMBOL "CommonApp_ProcessZDOStates"
osal_msg_deallocate SYMBOL "osal_msg_deallocate"
process_event       SYMBOL "process_event"
NLME_GetShortAddr   SYMBOL "NLME_GetShortAddr"
ZDP_EndDeviceBindReq SYMBOL "ZDP_EndDeviceBindReq"
ZDP_MatchDescReq    SYMBOL "ZDP_MatchDescReq"
halGetKeyCount      SYMBOL "halGetKeyCount"
CommonApp_HandleCombineKeys SYMBOL "CommonApp_HandleCombineKeys"
osal_memcpy         SYMBOL "osal_memcpy"
osal_mem_alloc      SYMBOL "osal_mem_alloc"
set_device_data     SYMBOL "set_device_data"
get_device_data     SYMBOL "get_device_data"
memcpy              SYMBOL "memcpy"
SSAFrame_Package    SYMBOL "SSAFrame_Package"
HalUARTWrite        SYMBOL "HalUARTWrite"
update_user_event   SYMBOL "update_user_event"
NLME_PermitJoiningRequest SYMBOL "NLME_PermitJoiningRequest"
AF_DataRequest      SYMBOL "AF_DataRequest"
setNodeList         SYMBOL "setNodeList"
??AF_DataRequest?relay SYMBOL "?relay", AF_DataRequest
??CommonApp_HandleCombineKeys?relay SYMBOL "?relay", CommonApp_HandleCombineKeys
??CommonApp_InitConfirm?relay SYMBOL "?relay", CommonApp_InitConfirm
??CommonApp_MessageMSGCB?relay SYMBOL "?relay", CommonApp_MessageMSGCB
??CommonApp_ProcessZDOStates?relay SYMBOL "?relay", CommonApp_ProcessZDOStates
`?<Name Data_TxHandler 34>` SYMBOL "Data_TxHandler"
??Data_TxHandler?relay SYMBOL "?relay", `?<Name Data_TxHandler 34>`
??HalLedSet?relay   SYMBOL "?relay", HalLedSet
??HalUARTWrite?relay SYMBOL "?relay", HalUARTWrite
??NLME_GetShortAddr?relay SYMBOL "?relay", NLME_GetShortAddr
??NLME_PermitJoiningRequest?relay SYMBOL "?relay", NLME_PermitJoiningRequest
??RegisterForKeys?relay SYMBOL "?relay", RegisterForKeys
??SSAFrame_Package?relay SYMBOL "?relay", SSAFrame_Package
??Serial_Init?relay SYMBOL "?relay", Serial_Init
??ZDO_ParseEPListRsp?relay SYMBOL "?relay", ZDO_ParseEPListRsp
??ZDO_RegisterForZDOMsg?relay SYMBOL "?relay", ZDO_RegisterForZDOMsg
??ZDP_EndDeviceBindReq?relay SYMBOL "?relay", ZDP_EndDeviceBindReq
??ZDP_MatchDescReq?relay SYMBOL "?relay", ZDP_MatchDescReq
??afRegister?relay  SYMBOL "?relay", afRegister
??get_device_data?relay SYMBOL "?relay", get_device_data
??halGetKeyCount?relay SYMBOL "?relay", halGetKeyCount
??memcpy?relay      SYMBOL "?relay", memcpy
??osal_mem_alloc?relay SYMBOL "?relay", osal_mem_alloc
??osal_mem_free?relay SYMBOL "?relay", osal_mem_free
??osal_memcpy?relay SYMBOL "?relay", osal_memcpy
??osal_msg_deallocate?relay SYMBOL "?relay", osal_msg_deallocate
??osal_msg_receive?relay SYMBOL "?relay", osal_msg_receive
??process_event?relay SYMBOL "?relay", process_event
??setNodeList?relay SYMBOL "?relay", setNodeList
??set_device_data?relay SYMBOL "?relay", set_device_data
??update_user_event?relay SYMBOL "?relay", update_user_event
CommonApp_CmdPeroidCB SYMBOL "CommonApp_CmdPeroidCB"
??CommonApp_CmdPeroidCB?relay SYMBOL "?relay", CommonApp_CmdPeroidCB
CommonApp_GetDevDataSend SYMBOL "CommonApp_GetDevDataSend"
??CommonApp_GetDevDataSend?relay SYMBOL "?relay", CommonApp_GetDevDataSend
CommonApp_GetDeviceInfo SYMBOL "CommonApp_GetDeviceInfo"
??CommonApp_GetDeviceInfo?relay SYMBOL "?relay", CommonApp_GetDeviceInfo
CommonApp_Init      SYMBOL "CommonApp_Init"
??CommonApp_Init?relay SYMBOL "?relay", CommonApp_Init
CommonApp_PermitJoiningRequest SYMBOL "CommonApp_PermitJoiningRequest"
??CommonApp_PermitJoiningRequest?relay SYMBOL "?relay", CommonApp_PermitJoiningRequest
CommonApp_ProcessEvent SYMBOL "CommonApp_ProcessEvent"
??CommonApp_ProcessEvent?relay SYMBOL "?relay", CommonApp_ProcessEvent
CommonApp_SendTheMessage SYMBOL "CommonApp_SendTheMessage"
??CommonApp_SendTheMessage?relay SYMBOL "?relay", CommonApp_SendTheMessage
CommonDevice_GetData SYMBOL "CommonDevice_GetData"
??CommonDevice_GetData?relay SYMBOL "?relay", CommonDevice_GetData
CommonDevice_SetData SYMBOL "CommonDevice_SetData"
??CommonDevice_SetData?relay SYMBOL "?relay", CommonDevice_SetData
DataCmd_Ctrl        SYMBOL "DataCmd_Ctrl"
??DataCmd_Ctrl?relay SYMBOL "?relay", DataCmd_Ctrl
PermitJoin_Refresh  SYMBOL "PermitJoin_Refresh"
??PermitJoin_Refresh?relay SYMBOL "?relay", PermitJoin_Refresh
RS485_GetDevDataSend SYMBOL "RS485_GetDevDataSend"
??RS485_GetDevDataSend?relay SYMBOL "?relay", RS485_GetDevDataSend
Update_Refresh      SYMBOL "Update_Refresh"
??Update_Refresh?relay SYMBOL "?relay", Update_Refresh

        EXTERN Serial_Init
        FUNCTION Serial_Init,0202H
        ARGFRAME ISTACK, 0, STACK
        ARGFRAME PSTACK, 0, STACK
        ARGFRAME XSTACK, 9, STACK
        ARGFRAME IOVERLAY, 0, STATIC
        ARGFRAME DOVERLAY, 0, STATIC
        EXTERN afRegister
        FUNCTION afRegister,0202H
        ARGFRAME ISTACK, 0, STACK
        ARGFRAME PSTACK, 0, STACK
        ARGFRAME XSTACK, 9, STACK
        ARGFRAME IOVERLAY, 0, STATIC
        ARGFRAME DOVERLAY, 0, STATIC
        EXTERN RegisterForKeys
        FUNCTION RegisterForKeys,0202H
        ARGFRAME ISTACK, 0, STACK
        ARGFRAME PSTACK, 0, STACK
        ARGFRAME XSTACK, 9, STACK
        ARGFRAME IOVERLAY, 0, STATIC
        ARGFRAME DOVERLAY, 0, STATIC
        EXTERN ZDO_RegisterForZDOMsg
        FUNCTION ZDO_RegisterForZDOMsg,0202H
        ARGFRAME ISTACK, 0, STACK
        ARGFRAME PSTACK, 0, STACK
        ARGFRAME XSTACK, 9, STACK
        ARGFRAME IOVERLAY, 0, STATIC
        ARGFRAME DOVERLAY, 0, STATIC
        EXTERN CommonApp_InitConfirm
        FUNCTION CommonApp_InitConfirm,0202H
        ARGFRAME ISTACK, 0, STACK
        ARGFRAME PSTACK, 0, STACK
        ARGFRAME XSTACK, 9, STACK
        ARGFRAME IOVERLAY, 0, STATIC
        ARGFRAME DOVERLAY, 0, STATIC
        EXTERN osal_msg_receive
        FUNCTION osal_msg_receive,0202H
        ARGFRAME ISTACK, 0, STACK
        ARGFRAME PSTACK, 0, STACK
        ARGFRAME XSTACK, 14, STACK
        ARGFRAME IOVERLAY, 0, STATIC
        ARGFRAME DOVERLAY, 0, STATIC
        EXTERN ZDO_ParseEPListRsp
        FUNCTION ZDO_ParseEPListRsp,0202H
        ARGFRAME ISTACK, 0, STACK
        ARGFRAME PSTACK, 0, STACK
        ARGFRAME XSTACK, 14, STACK
        ARGFRAME IOVERLAY, 0, STATIC
        ARGFRAME DOVERLAY, 0, STATIC
        EXTERN osal_mem_free
        FUNCTION osal_mem_free,0202H
        ARGFRAME ISTACK, 0, STACK
        ARGFRAME PSTACK, 0, STACK
        ARGFRAME XSTACK, 14, STACK
        ARGFRAME IOVERLAY, 0, STATIC
        ARGFRAME DOVERLAY, 0, STATIC
        EXTERN HalLedSet
        FUNCTION HalLedSet,0202H
        ARGFRAME ISTACK, 2, STACK
        ARGFRAME PSTACK, 0, STACK
        ARGFRAME XSTACK, 21, STACK
        ARGFRAME IOVERLAY, 0, STATIC
        ARGFRAME DOVERLAY, 0, STATIC
        EXTERN CommonApp_MessageMSGCB
        FUNCTION CommonApp_MessageMSGCB,0202H
        ARGFRAME ISTACK, 0, STACK
        ARGFRAME PSTACK, 0, STACK
        ARGFRAME XSTACK, 14, STACK
        ARGFRAME IOVERLAY, 0, STATIC
        ARGFRAME DOVERLAY, 0, STATIC
        EXTERN CommonApp_ProcessZDOStates
        FUNCTION CommonApp_ProcessZDOStates,0202H
        ARGFRAME ISTACK, 0, STACK
        ARGFRAME PSTACK, 0, STACK
        ARGFRAME XSTACK, 14, STACK
        ARGFRAME IOVERLAY, 0, STATIC
        ARGFRAME DOVERLAY, 0, STATIC
        EXTERN osal_msg_deallocate
        FUNCTION osal_msg_deallocate,0202H
        ARGFRAME ISTACK, 0, STACK
        ARGFRAME PSTACK, 0, STACK
        ARGFRAME XSTACK, 14, STACK
        ARGFRAME IOVERLAY, 0, STATIC
        ARGFRAME DOVERLAY, 0, STATIC
        EXTERN process_event
        FUNCTION process_event,0202H
        ARGFRAME ISTACK, 0, STACK
        ARGFRAME PSTACK, 0, STACK
        ARGFRAME XSTACK, 14, STACK
        ARGFRAME IOVERLAY, 0, STATIC
        ARGFRAME DOVERLAY, 0, STATIC
        EXTERN NLME_GetShortAddr
        FUNCTION NLME_GetShortAddr,0202H
        ARGFRAME ISTACK, 0, STACK
        ARGFRAME PSTACK, 0, STACK
        ARGFRAME XSTACK, 21, STACK
        ARGFRAME IOVERLAY, 0, STATIC
        ARGFRAME DOVERLAY, 0, STATIC
        EXTERN ZDP_EndDeviceBindReq
        FUNCTION ZDP_EndDeviceBindReq,0202H
        ARGFRAME ISTACK, 0, STACK
        ARGFRAME PSTACK, 0, STACK
        ARGFRAME XSTACK, 30, STACK
        ARGFRAME IOVERLAY, 0, STATIC
        ARGFRAME DOVERLAY, 0, STATIC
        EXTERN ZDP_MatchDescReq
        FUNCTION ZDP_MatchDescReq,0202H
        ARGFRAME ISTACK, 0, STACK
        ARGFRAME PSTACK, 0, STACK
        ARGFRAME XSTACK, 29, STACK
        ARGFRAME IOVERLAY, 0, STATIC
        ARGFRAME DOVERLAY, 0, STATIC
        EXTERN halGetKeyCount
        FUNCTION halGetKeyCount,0202H
        ARGFRAME ISTACK, 0, STACK
        ARGFRAME PSTACK, 0, STACK
        ARGFRAME XSTACK, 21, STACK
        ARGFRAME IOVERLAY, 0, STATIC
        ARGFRAME DOVERLAY, 0, STATIC
        EXTERN CommonApp_HandleCombineKeys
        FUNCTION CommonApp_HandleCombineKeys,0202H
        ARGFRAME ISTACK, 0, STACK
        ARGFRAME PSTACK, 0, STACK
        ARGFRAME XSTACK, 21, STACK
        ARGFRAME IOVERLAY, 0, STATIC
        ARGFRAME DOVERLAY, 0, STATIC
        EXTERN osal_memcpy
        FUNCTION osal_memcpy,0202H
        ARGFRAME ISTACK, 0, STACK
        ARGFRAME PSTACK, 0, STACK
        ARGFRAME XSTACK, 15, STACK
        ARGFRAME IOVERLAY, 0, STATIC
        ARGFRAME DOVERLAY, 0, STATIC
        EXTERN osal_mem_alloc
        FUNCTION osal_mem_alloc,0202H
        ARGFRAME ISTACK, 0, STACK
        ARGFRAME PSTACK, 0, STACK
        ARGFRAME XSTACK, 12, STACK
        ARGFRAME IOVERLAY, 0, STATIC
        ARGFRAME DOVERLAY, 0, STATIC
        EXTERN set_device_data
        FUNCTION set_device_data,0202H
        ARGFRAME ISTACK, 0, STACK
        ARGFRAME PSTACK, 0, STACK
        ARGFRAME XSTACK, 12, STACK
        ARGFRAME IOVERLAY, 0, STATIC
        ARGFRAME DOVERLAY, 0, STATIC
        EXTERN get_device_data
        FUNCTION get_device_data,0202H
        ARGFRAME ISTACK, 2, STACK
        ARGFRAME PSTACK, 0, STACK
        ARGFRAME XSTACK, 129, STACK
        ARGFRAME IOVERLAY, 0, STATIC
        ARGFRAME DOVERLAY, 0, STATIC
        EXTERN memcpy
        FUNCTION memcpy,010202H
        ARGFRAME ISTACK, 0, STACK
        ARGFRAME PSTACK, 0, STACK
        ARGFRAME XSTACK, 61, STACK
        ARGFRAME IOVERLAY, 0, STATIC
        ARGFRAME DOVERLAY, 0, STATIC
        EXTERN SSAFrame_Package
        FUNCTION SSAFrame_Package,0202H
        ARGFRAME ISTACK, 0, STACK
        ARGFRAME PSTACK, 0, STACK
        ARGFRAME XSTACK, 34, STACK
        ARGFRAME IOVERLAY, 0, STATIC
        ARGFRAME DOVERLAY, 0, STATIC
        EXTERN HalUARTWrite
        FUNCTION HalUARTWrite,0202H
        ARGFRAME ISTACK, 2, STACK
        ARGFRAME PSTACK, 0, STACK
        ARGFRAME XSTACK, 59, STACK
        ARGFRAME IOVERLAY, 0, STATIC
        ARGFRAME DOVERLAY, 0, STATIC
        EXTERN update_user_event
        FUNCTION update_user_event,0202H
        ARGFRAME ISTACK, 0, STACK
        ARGFRAME PSTACK, 0, STACK
        ARGFRAME XSTACK, 15, STACK
        ARGFRAME IOVERLAY, 0, STATIC
        ARGFRAME DOVERLAY, 0, STATIC
        EXTERN NLME_PermitJoiningRequest
        FUNCTION NLME_PermitJoiningRequest,0202H
        ARGFRAME ISTACK, 0, STACK
        ARGFRAME PSTACK, 0, STACK
        ARGFRAME XSTACK, 10, STACK
        ARGFRAME IOVERLAY, 0, STATIC
        ARGFRAME DOVERLAY, 0, STATIC
        EXTERN AF_DataRequest
        FUNCTION AF_DataRequest,0202H
        ARGFRAME ISTACK, 0, STACK
        ARGFRAME PSTACK, 0, STACK
        ARGFRAME XSTACK, 19, STACK
        ARGFRAME IOVERLAY, 0, STATIC
        ARGFRAME DOVERLAY, 0, STATIC
        EXTERN setNodeList
        FUNCTION setNodeList,0202H
        ARGFRAME ISTACK, 2, STACK
        ARGFRAME PSTACK, 0, STACK
        ARGFRAME XSTACK, 0, STACK
        ARGFRAME IOVERLAY, 0, STATIC
        ARGFRAME DOVERLAY, 0, STATIC
        EXTERN ??AF_DataRequest?relay
        FUNCTION ??AF_DataRequest?relay,00H
        EXTERN ??CommonApp_HandleCombineKeys?relay
        FUNCTION ??CommonApp_HandleCombineKeys?relay,00H
        EXTERN ??CommonApp_InitConfirm?relay
        FUNCTION ??CommonApp_InitConfirm?relay,00H
        EXTERN ??CommonApp_MessageMSGCB?relay
        FUNCTION ??CommonApp_MessageMSGCB?relay,00H
        EXTERN ??CommonApp_ProcessZDOStates?relay
        FUNCTION ??CommonApp_ProcessZDOStates?relay,00H
        EXTERN ??Data_TxHandler?relay
        FUNCTION ??Data_TxHandler?relay,00H
        EXTERN ??HalLedSet?relay
        FUNCTION ??HalLedSet?relay,00H
        EXTERN ??HalUARTWrite?relay
        FUNCTION ??HalUARTWrite?relay,00H
        EXTERN ??NLME_GetShortAddr?relay
        FUNCTION ??NLME_GetShortAddr?relay,00H
        EXTERN ??NLME_PermitJoiningRequest?relay
        FUNCTION ??NLME_PermitJoiningRequest?relay,00H
        EXTERN ??RegisterForKeys?relay
        FUNCTION ??RegisterForKeys?relay,00H
        EXTERN ??SSAFrame_Package?relay
        FUNCTION ??SSAFrame_Package?relay,00H
        EXTERN ??Serial_Init?relay
        FUNCTION ??Serial_Init?relay,00H
        EXTERN ??ZDO_ParseEPListRsp?relay
        FUNCTION ??ZDO_ParseEPListRsp?relay,00H
        EXTERN ??ZDO_RegisterForZDOMsg?relay
        FUNCTION ??ZDO_RegisterForZDOMsg?relay,00H
        EXTERN ??ZDP_EndDeviceBindReq?relay
        FUNCTION ??ZDP_EndDeviceBindReq?relay,00H
        EXTERN ??ZDP_MatchDescReq?relay
        FUNCTION ??ZDP_MatchDescReq?relay,00H
        EXTERN ??afRegister?relay
        FUNCTION ??afRegister?relay,00H
        EXTERN ??get_device_data?relay
        FUNCTION ??get_device_data?relay,00H
        EXTERN ??halGetKeyCount?relay
        FUNCTION ??halGetKeyCount?relay,00H
        EXTERN ??memcpy?relay
        FUNCTION ??memcpy?relay,00H
        EXTERN ??osal_mem_alloc?relay
        FUNCTION ??osal_mem_alloc?relay,00H
        EXTERN ??osal_mem_free?relay
        FUNCTION ??osal_mem_free?relay,00H
        EXTERN ??osal_memcpy?relay
        FUNCTION ??osal_memcpy?relay,00H
        EXTERN ??osal_msg_deallocate?relay
        FUNCTION ??osal_msg_deallocate?relay,00H
        EXTERN ??osal_msg_receive?relay
        FUNCTION ??osal_msg_receive?relay,00H
        EXTERN ??process_event?relay
        FUNCTION ??process_event?relay,00H
        EXTERN ??setNodeList?relay
        FUNCTION ??setNodeList?relay,00H
        EXTERN ??set_device_data?relay
        FUNCTION ??set_device_data?relay,00H
        EXTERN ??update_user_event?relay
        FUNCTION ??update_user_event?relay,00H
        EXTERN _NIB
        EXTERN aExtendedAddress
        EXTERN devState
        EXTERN f_tail

// E:\work\zigbee\ZStack-Smart-2.5.2b\Projects\zstack\Applications\SmartApp\Source\Common\CommonApp.c
//    1 /**************************************************************************************************
//    2   Filename:       CommonApp.c
//    3   Revised:        $Date: 2014-04-16 16:00:27 -0800 (Wed, 16 Apr 2014) $
//    4   Revision:       $Revision: 29217 $
//    5 
//    6   Description:    Common Application
//    7 **************************************************************************************************/
//    8 
//    9 /**************************************************************************************************
//   10 Modify by Sam_Chen
//   11 Date:2015-07-31
//   12 **************************************************************************************************/
//   13 
//   14 
//   15 /*********************************************************************
//   16  * INCLUDES
//   17  */
//   18 #include "CommonApp.h"
//   19 
//   20 #include "OSAL.h"
//   21 #include "OSAL_Nv.h"
//   22 #include "OnBoard.h"
//   23 
//   24 /* HAL */
//   25 #include "hal_lcd.h"
//   26 #include "hal_led.h"
//   27 #include "hal_key.h"
//   28 #include "hal_uart.h"
//   29 
//   30 
//   31 
//   32 /*********************************************************************
//   33  * MACROS
//   34  */
//   35 
//   36 /*********************************************************************
//   37  * CONSTANTS
//   38  */
//   39 
//   40 /*********************************************************************
//   41  * TYPEDEFS
//   42  */
//   43 
//   44 /*********************************************************************
//   45  * EXTERNAL VARIABLES
//   46  */
//   47 
//   48 /*********************************************************************
//   49  * GLOBAL VARIABLES
//   50  */
//   51 // This list should be filled with Application specific Cluster IDs.
//   52 //Õ®”√cluster list

        RSEG XDATA_ROM_C:CONST:REORDER:NOROOT(0)
        DATA16
//   53 const cId_t CommonApp_InClusterList[COMMONAPP_MAX_INCLUSTERS] =
CommonApp_InClusterList:
        DW 1
//   54 {
//   55   COMMONAPP_CLUSTERID,
//   56 };
//   57 

        RSEG XDATA_ROM_C:CONST:REORDER:NOROOT(0)
        DATA16
//   58 const cId_t CommonApp_OutClusterList[COMMONAPP_MAX_OUTCLUSTERS] =
CommonApp_OutClusterList:
        DW 1
//   59 {
//   60   COMMONAPP_CLUSTERID,
//   61 };
//   62 

        RSEG XDATA_ROM_C:CONST:REORDER:NOROOT(0)
        DATA8
//   63 const SimpleDescriptionFormat_t CommonApp_SimpleDesc =
CommonApp_SimpleDesc:
        DB 16
        DATA16
        DW 3848
        DW 1
        DATA8
        DB 1
        DB 1
        DATA16
        DW CommonApp_InClusterList
        DATA8
        DB 1
        DATA16
        DW CommonApp_OutClusterList
//   64 {
//   65   COMMONAPP_ENDPOINT,              //  int Endpoint;
//   66   COMMONAPP_PROFID,                //  uint16 AppProfId[2];
//   67   COMMONAPP_DEVICEID,              //  uint16 AppDeviceId[2];
//   68   COMMONAPP_DEVICE_VERSION,        //  int   AppDevVer:4;
//   69   COMMONAPP_FLAGS,                 //  int   AppFlags:4;
//   70   COMMONAPP_MAX_INCLUSTERS,          //  byte  AppNumInClusters;
//   71   (cId_t *)CommonApp_InClusterList,  //  byte *pAppInClusterList;
//   72   COMMONAPP_MAX_OUTCLUSTERS,          //  byte  AppNumOutClusters;
//   73   (cId_t *)CommonApp_OutClusterList   //  byte *pAppOutClusterList;
//   74 };
//   75 
//   76 // This is the Endpoint/Interface description.  It is defined here, but
//   77 // filled-in in CommonApp_Init().  Another way to go would be to fill
//   78 // in the structure here and make it a "const" (in code space).  The
//   79 // way it's defined in this sample app it is define in RAM.

        RSEG XDATA_Z:XDATA:NOROOT(0)
        DATA8
//   80 endPointDesc_t CommonApp_epDesc;
CommonApp_epDesc:
        DS 6
        REQUIRE __INIT_XDATA_Z
//   81 
//   82 

        RSEG XDATA_Z:XDATA:NOROOT(0)
        DATA8
//   83 byte CommonApp_TaskID;   // Task ID for internal task/event processing
CommonApp_TaskID:
        DS 1
        REQUIRE __INIT_XDATA_Z
//   84                           // This variable will be received when
//   85                           // CommonApp_Init() is called.

        RSEG XDATA_Z:XDATA:NOROOT(0)
        DATA8
//   86 devStates_t CommonApp_NwkState;
CommonApp_NwkState:
        DS 1
        REQUIRE __INIT_XDATA_Z

        RSEG XDATA_Z:XDATA:NOROOT(0)
        DATA8
//   87 byte CommonApp_TransID;  // This is the unique message ID (counter)
CommonApp_TransID:
        DS 1
        REQUIRE __INIT_XDATA_Z
//   88 

        RSEG XDATA_Z:XDATA:NOROOT(0)
        DATA8
//   89 afAddrType_t CommonApp_DstAddr;
CommonApp_DstAddr:
        DS 12
        REQUIRE __INIT_XDATA_Z
//   90 
//   91 //network address

        RSEG XDATA_Z:XDATA:NOROOT(0)
        DATA16
//   92 uint16 nwkAddr;
nwkAddr:
        DS 2
        REQUIRE __INIT_XDATA_Z

        RSEG XDATA_Z:XDATA:NOROOT(0)
        DATA8
//   93 uint8 nwkAddr_buf[3];
nwkAddr_buf:
        DS 3
        REQUIRE __INIT_XDATA_Z
//   94 //mac address

        RSEG XDATA_Z:XDATA:NOROOT(0)
        DATA8
//   95 ZLongAddr_t macAddr;
macAddr:
        DS 8
        REQUIRE __INIT_XDATA_Z
//   96 

        RSEG XDATA_Z:XDATA:NOROOT(0)
        DATA32
//   97 uint8 SHORT_ADDR_G[4] = "";
SHORT_ADDR_G:
        DS 4
        REQUIRE __INIT_XDATA_Z
//   98 

        RSEG XDATA_Z:XDATA:NOROOT(0)
        DATA8
//   99 uint8 EXT_ADDR_G[16] = "";
EXT_ADDR_G:
        DS 16
        REQUIRE __INIT_XDATA_Z
//  100 

        RSEG XDATA_I:XDATA:NOROOT(0)
//  101 uint8 isFirstState = 1;
isFirstState:
        DATA8
        DS 1
        REQUIRE `?<Initializer for isFirstState>`
        REQUIRE __INIT_XDATA_I
//  102 
//  103 #if(DEVICE_TYPE_ID!=0)
//  104 /* operations data */

        RSEG XDATA_Z:XDATA:NOROOT(0)
        DATA16
//  105 uint8 *optData = NULL;
optData:
        DS 2
        REQUIRE __INIT_XDATA_Z

        RSEG XDATA_Z:XDATA:NOROOT(0)
        DATA8
//  106 uint8 optDataLen = 0;
optDataLen:
        DS 1
        REQUIRE __INIT_XDATA_Z
//  107 #endif
//  108 
//  109 
//  110 /*********************************************************************
//  111  * EXTERNAL FUNCTIONS
//  112  */
//  113 extern const uint8 f_tail[4]; 
//  114 
//  115 /*********************************************************************
//  116  * LOCAL FUNCTIONS
//  117  */
//  118 #if defined(POWERON_FACTORY_SETTING) && !defined(RTR_NWK)
//  119 void CommonApp_PowerOnFactorySetting(devStates_t status);
//  120 void CommonApp_PowerSettingCountCB( void *params, 
//  121 										uint16 *duration, uint8 *count);
//  122 #endif
//  123 static void CommonApp_ProcessZDOMsgs( zdoIncomingMsg_t *inMsg );
//  124 static void CommonApp_afDatacfm(afDataConfirm_t *data);
//  125 static void CommonApp_HandleKeys( byte shift, uint16 keys );
//  126 #ifdef RTR_NWK
//  127 static void CommonApp_PermitJoiningLedIndicate(
//  128 				void *params, uint16 *duration, uint8 *count);
//  129 #endif
//  130 
//  131 /*********************************************************************
//  132  * LOCAL VARIABLES
//  133  */
//  134 
//  135 /*********************************************************************
//  136  * PUBLIC FUNCTIONS
//  137  */
//  138 
//  139 /*********************************************************************
//  140  * @fn      CommonApp_Init
//  141  *
//  142  * @brief   Initialization function for the Commonr App Task.
//  143  *          This is called during initialization and should contain
//  144  *          any application specific initialization (ie. hardware
//  145  *          initialization/setup, table initialization, power up
//  146  *          notificaiton ... ).
//  147  *
//  148  * @param   task_id - the ID assigned by OSAL.  This ID should be
//  149  *                    used to send messages and set timers.
//  150  *
//  151  * @return  none
//  152  */
//  153 

        RSEG BANKED_CODE:CODE:NOROOT(0)
//  154 void CommonApp_Init( uint8 task_id )
CommonApp_Init:
        CFI Block cfiBlock0 Using cfiCommon0
        CFI Function CommonApp_Init
        CODE
//  155 {
        FUNCALL CommonApp_Init, Serial_Init
        LOCFRAME ISTACK, 0, STACK
        LOCFRAME PSTACK, 0, STACK
        LOCFRAME XSTACK, 9, STACK
        LOCFRAME IOVERLAY, 0, STATIC
        LOCFRAME DOVERLAY, 0, STATIC
        ARGFRAME ISTACK, 0, STACK
        ARGFRAME PSTACK, 0, STACK
        ARGFRAME XSTACK, 9, STACK
        ARGFRAME IOVERLAY, 0, STATIC
        ARGFRAME DOVERLAY, 0, STATIC
        FUNCALL CommonApp_Init, afRegister
        LOCFRAME ISTACK, 0, STACK
        LOCFRAME PSTACK, 0, STACK
        LOCFRAME XSTACK, 9, STACK
        LOCFRAME IOVERLAY, 0, STATIC
        LOCFRAME DOVERLAY, 0, STATIC
        ARGFRAME ISTACK, 0, STACK
        ARGFRAME PSTACK, 0, STACK
        ARGFRAME XSTACK, 9, STACK
        ARGFRAME IOVERLAY, 0, STATIC
        ARGFRAME DOVERLAY, 0, STATIC
        FUNCALL CommonApp_Init, RegisterForKeys
        LOCFRAME ISTACK, 0, STACK
        LOCFRAME PSTACK, 0, STACK
        LOCFRAME XSTACK, 9, STACK
        LOCFRAME IOVERLAY, 0, STATIC
        LOCFRAME DOVERLAY, 0, STATIC
        ARGFRAME ISTACK, 0, STACK
        ARGFRAME PSTACK, 0, STACK
        ARGFRAME XSTACK, 9, STACK
        ARGFRAME IOVERLAY, 0, STATIC
        ARGFRAME DOVERLAY, 0, STATIC
        FUNCALL CommonApp_Init, ZDO_RegisterForZDOMsg
        LOCFRAME ISTACK, 0, STACK
        LOCFRAME PSTACK, 0, STACK
        LOCFRAME XSTACK, 9, STACK
        LOCFRAME IOVERLAY, 0, STATIC
        LOCFRAME DOVERLAY, 0, STATIC
        ARGFRAME ISTACK, 0, STACK
        ARGFRAME PSTACK, 0, STACK
        ARGFRAME XSTACK, 9, STACK
        ARGFRAME IOVERLAY, 0, STATIC
        ARGFRAME DOVERLAY, 0, STATIC
        FUNCALL CommonApp_Init, ZDO_RegisterForZDOMsg
        LOCFRAME ISTACK, 0, STACK
        LOCFRAME PSTACK, 0, STACK
        LOCFRAME XSTACK, 9, STACK
        LOCFRAME IOVERLAY, 0, STATIC
        LOCFRAME DOVERLAY, 0, STATIC
        ARGFRAME ISTACK, 0, STACK
        ARGFRAME PSTACK, 0, STACK
        ARGFRAME XSTACK, 9, STACK
        ARGFRAME IOVERLAY, 0, STATIC
        ARGFRAME DOVERLAY, 0, STATIC
        FUNCALL CommonApp_Init, CommonApp_InitConfirm
        LOCFRAME ISTACK, 0, STACK
        LOCFRAME PSTACK, 0, STACK
        LOCFRAME XSTACK, 9, STACK
        LOCFRAME IOVERLAY, 0, STATIC
        LOCFRAME DOVERLAY, 0, STATIC
        ARGFRAME ISTACK, 0, STACK
        ARGFRAME PSTACK, 0, STACK
        ARGFRAME XSTACK, 9, STACK
        ARGFRAME IOVERLAY, 0, STATIC
        ARGFRAME DOVERLAY, 0, STATIC
        MOV     A,#-0x9
        LCALL   ?BANKED_ENTER_XDATA
        CFI DPH0 load(1, XDATA, add(CFA_XSP16, literal(-1)))
        CFI DPL0 load(1, XDATA, add(CFA_XSP16, literal(-2)))
        CFI ?BRET_EXT load(1, XDATA, add(CFA_XSP16, literal(-3)))
        CFI ?RET_HIGH load(1, XDATA, add(CFA_XSP16, literal(-4)))
        CFI ?RET_LOW load(1, XDATA, add(CFA_XSP16, literal(-5)))
        CFI R7 load(1, XDATA, add(CFA_XSP16, literal(-6)))
        CFI V0 load(1, XDATA, add(CFA_XSP16, literal(-7)))
        CFI VB load(1, XDATA, add(CFA_XSP16, literal(-8)))
        CFI R6 load(1, XDATA, add(CFA_XSP16, literal(-9)))
        CFI CFA_SP SP+0
        CFI CFA_XSP16 add(XSP16, 9)
        ; Saved register size: 9
        ; Auto size: 0
        MOV     A,R1
        MOV     R6,A
//  156     CommonApp_TaskID = task_id;
        MOV     DPTR,#CommonApp_TaskID
        MOVX    @DPTR,A
//  157     CommonApp_NwkState = DEV_INIT;
        MOV     DPTR,#CommonApp_NwkState
        MOV     A,#0x1
        MOVX    @DPTR,A
//  158     CommonApp_TransID = 0;
        MOV     DPTR,#CommonApp_TransID
        CLR     A
        MOVX    @DPTR,A
//  159 
//  160 #if(HAL_UART==TRUE)
//  161 #ifndef HAL_UART01_BOTH
//  162 	Serial_Init(Data_TxHandler);
        ; Setup parameters for call to function Serial_Init
        MOV     R2,#??Data_TxHandler?relay & 0xff
        MOV     R3,#(??Data_TxHandler?relay >> 8) & 0xff
        LCALL   ??Serial_Init?relay
//  163 #else
//  164 	Serial_Init(Data0_TxHandler, Data1_TxHandler);
//  165 #endif
//  166 #endif
//  167   
//  168     // Device hardware initialization can be added here or in main() (Zmain.c).
//  169     // If the hardware is application specific - add it here.
//  170     // If the hardware is other parts of the device add it in main().
//  171   
//  172     CommonApp_DstAddr.addrMode = (afAddrMode_t)AddrBroadcast;
        MOV     DPTR,#CommonApp_DstAddr + 8
        MOV     A,#0xf
        MOVX    @DPTR,A
//  173     CommonApp_DstAddr.endPoint = COMMONAPP_ENDPOINT;
        INC     DPTR
        INC     A
        MOVX    @DPTR,A
//  174     CommonApp_DstAddr.addr.shortAddr = 0xFFFF;
        MOV     DPTR,#CommonApp_DstAddr
        MOV     A,#-0x1
        MOVX    @DPTR,A
        INC     DPTR
        MOVX    @DPTR,A
//  175 
//  176   // Fill out the endpoint description.
//  177     CommonApp_epDesc.endPoint = COMMONAPP_ENDPOINT;
        MOV     DPTR,#CommonApp_epDesc
        MOV     A,#0x10
        MOVX    @DPTR,A
//  178     CommonApp_epDesc.task_id = &CommonApp_TaskID;
        INC     DPTR
        MOV     A,#CommonApp_TaskID & 0xff
        MOVX    @DPTR,A
        INC     DPTR
        MOV     A,#(CommonApp_TaskID >> 8) & 0xff
        MOVX    @DPTR,A
//  179     CommonApp_epDesc.simpleDesc
//  180               = (SimpleDescriptionFormat_t *)&CommonApp_SimpleDesc;
        INC     DPTR
        MOV     A,#CommonApp_SimpleDesc & 0xff
        MOVX    @DPTR,A
        INC     DPTR
        MOV     A,#(CommonApp_SimpleDesc >> 8) & 0xff
        MOVX    @DPTR,A
//  181     CommonApp_epDesc.latencyReq = noLatencyReqs;
        INC     DPTR
        CLR     A
        MOVX    @DPTR,A
//  182   
//  183     // Register the endpoint description with the AF
//  184     afRegister( &CommonApp_epDesc );
        ; Setup parameters for call to function afRegister
        MOV     R2,#CommonApp_epDesc & 0xff
        MOV     R3,#(CommonApp_epDesc >> 8) & 0xff
        LCALL   ??afRegister?relay
//  185   
//  186     // Register for all key events - This app will handle all key events
//  187     RegisterForKeys( CommonApp_TaskID );
        ; Setup parameters for call to function RegisterForKeys
        MOV     DPTR,#CommonApp_TaskID
        MOVX    A,@DPTR
        MOV     R1,A
        LCALL   ??RegisterForKeys?relay
//  188   
//  189     ZDO_RegisterForZDOMsg( CommonApp_TaskID, End_Device_Bind_rsp );
        ; Setup parameters for call to function ZDO_RegisterForZDOMsg
        MOV     R2,#0x20
        MOV     R3,#-0x80
        MOV     DPTR,#CommonApp_TaskID
        MOVX    A,@DPTR
        MOV     R1,A
        LCALL   ??ZDO_RegisterForZDOMsg?relay
//  190     ZDO_RegisterForZDOMsg( CommonApp_TaskID, Match_Desc_rsp );
        ; Setup parameters for call to function ZDO_RegisterForZDOMsg
        MOV     R2,#0x6
        MOV     R3,#-0x80
        MOV     DPTR,#CommonApp_TaskID
        MOVX    A,@DPTR
        MOV     R1,A
        LCALL   ??ZDO_RegisterForZDOMsg?relay
//  191 
//  192     CommonApp_InitConfirm(task_id);
        ; Setup parameters for call to function CommonApp_InitConfirm
        MOV     A,R6
        MOV     R1,A
        LCALL   ??CommonApp_InitConfirm?relay
        CFI EndBlock cfiBlock0
//  193 }
        REQUIRE ?Subroutine0
        ; // Fall through to label ?Subroutine0

        RSEG BANKED_CODE:CODE:NOROOT(0)
?Subroutine0:
        CFI Block cfiBlock1 Using cfiCommon0
        CFI NoFunction
        CFI CFA_SP SP+0
        CFI CFA_XSP16 add(XSP16, 9)
        CFI VB load(1, XDATA, add(CFA_XSP16, literal(-8)))
        CFI DPL0 load(1, XDATA, add(CFA_XSP16, literal(-2)))
        CFI DPH0 load(1, XDATA, add(CFA_XSP16, literal(-1)))
        CFI R6 load(1, XDATA, add(CFA_XSP16, literal(-9)))
        CFI R7 load(1, XDATA, add(CFA_XSP16, literal(-6)))
        CFI V0 load(1, XDATA, add(CFA_XSP16, literal(-7)))
        CFI ?BRET_EXT load(1, XDATA, add(CFA_XSP16, literal(-3)))
        CFI ?RET_HIGH load(1, XDATA, add(CFA_XSP16, literal(-4)))
        CFI ?RET_LOW load(1, XDATA, add(CFA_XSP16, literal(-5)))
        MOV     R7,#0x1
        LJMP    ?BANKED_LEAVE_XDATA
        CFI EndBlock cfiBlock1
//  194 
//  195 
//  196 /*********************************************************************
//  197  * @fn      CommonrApp_ProcessEvent
//  198  *
//  199  * @brief   Common Application Task event processor.  This function
//  200  *          is called to process all events for the task.  Events
//  201  *          include timers, messages and any other user defined events.
//  202  *
//  203  * @param   task_id  - The OSAL assigned task ID.
//  204  * @param   events - events to process.  This is a bit map and can
//  205  *                   contain more than one event.
//  206  *
//  207  * @return  none
//  208  */

        RSEG BANKED_CODE:CODE:NOROOT(0)
//  209 uint16 CommonApp_ProcessEvent(uint8 task_id, uint16 events)
CommonApp_ProcessEvent:
        CFI Block cfiBlock2 Using cfiCommon0
        CFI Function CommonApp_ProcessEvent
        CODE
//  210 {
        FUNCALL CommonApp_ProcessEvent, osal_msg_receive
        LOCFRAME ISTACK, 0, STACK
        LOCFRAME PSTACK, 0, STACK
        LOCFRAME XSTACK, 14, STACK
        LOCFRAME IOVERLAY, 0, STATIC
        LOCFRAME DOVERLAY, 0, STATIC
        ARGFRAME ISTACK, 0, STACK
        ARGFRAME PSTACK, 0, STACK
        ARGFRAME XSTACK, 14, STACK
        ARGFRAME IOVERLAY, 0, STATIC
        ARGFRAME DOVERLAY, 0, STATIC
        FUNCALL CommonApp_ProcessEvent, ZDO_ParseEPListRsp
        LOCFRAME ISTACK, 0, STACK
        LOCFRAME PSTACK, 0, STACK
        LOCFRAME XSTACK, 14, STACK
        LOCFRAME IOVERLAY, 0, STATIC
        LOCFRAME DOVERLAY, 0, STATIC
        ARGFRAME ISTACK, 0, STACK
        ARGFRAME PSTACK, 0, STACK
        ARGFRAME XSTACK, 14, STACK
        ARGFRAME IOVERLAY, 0, STATIC
        ARGFRAME DOVERLAY, 0, STATIC
        FUNCALL CommonApp_ProcessEvent, osal_mem_free
        LOCFRAME ISTACK, 0, STACK
        LOCFRAME PSTACK, 0, STACK
        LOCFRAME XSTACK, 14, STACK
        LOCFRAME IOVERLAY, 0, STATIC
        LOCFRAME DOVERLAY, 0, STATIC
        ARGFRAME ISTACK, 0, STACK
        ARGFRAME PSTACK, 0, STACK
        ARGFRAME XSTACK, 14, STACK
        ARGFRAME IOVERLAY, 0, STATIC
        ARGFRAME DOVERLAY, 0, STATIC
        FUNCALL CommonApp_ProcessEvent, CommonApp_HandleKeys
        LOCFRAME ISTACK, 0, STACK
        LOCFRAME PSTACK, 0, STACK
        LOCFRAME XSTACK, 14, STACK
        LOCFRAME IOVERLAY, 0, STATIC
        LOCFRAME DOVERLAY, 0, STATIC
        ARGFRAME ISTACK, 0, STACK
        ARGFRAME PSTACK, 0, STACK
        ARGFRAME XSTACK, 14, STACK
        ARGFRAME IOVERLAY, 0, STATIC
        ARGFRAME DOVERLAY, 0, STATIC
        FUNCALL CommonApp_ProcessEvent, HalLedSet
        LOCFRAME ISTACK, 0, STACK
        LOCFRAME PSTACK, 0, STACK
        LOCFRAME XSTACK, 14, STACK
        LOCFRAME IOVERLAY, 0, STATIC
        LOCFRAME DOVERLAY, 0, STATIC
        ARGFRAME ISTACK, 0, STACK
        ARGFRAME PSTACK, 0, STACK
        ARGFRAME XSTACK, 14, STACK
        ARGFRAME IOVERLAY, 0, STATIC
        ARGFRAME DOVERLAY, 0, STATIC
        FUNCALL CommonApp_ProcessEvent, CommonApp_MessageMSGCB
        LOCFRAME ISTACK, 0, STACK
        LOCFRAME PSTACK, 0, STACK
        LOCFRAME XSTACK, 14, STACK
        LOCFRAME IOVERLAY, 0, STATIC
        LOCFRAME DOVERLAY, 0, STATIC
        ARGFRAME ISTACK, 0, STACK
        ARGFRAME PSTACK, 0, STACK
        ARGFRAME XSTACK, 14, STACK
        ARGFRAME IOVERLAY, 0, STATIC
        ARGFRAME DOVERLAY, 0, STATIC
        FUNCALL CommonApp_ProcessEvent, HalLedSet
        LOCFRAME ISTACK, 0, STACK
        LOCFRAME PSTACK, 0, STACK
        LOCFRAME XSTACK, 14, STACK
        LOCFRAME IOVERLAY, 0, STATIC
        LOCFRAME DOVERLAY, 0, STATIC
        ARGFRAME ISTACK, 0, STACK
        ARGFRAME PSTACK, 0, STACK
        ARGFRAME XSTACK, 14, STACK
        ARGFRAME IOVERLAY, 0, STATIC
        ARGFRAME DOVERLAY, 0, STATIC
        FUNCALL CommonApp_ProcessEvent, CommonApp_ProcessZDOStates
        LOCFRAME ISTACK, 0, STACK
        LOCFRAME PSTACK, 0, STACK
        LOCFRAME XSTACK, 14, STACK
        LOCFRAME IOVERLAY, 0, STATIC
        LOCFRAME DOVERLAY, 0, STATIC
        ARGFRAME ISTACK, 0, STACK
        ARGFRAME PSTACK, 0, STACK
        ARGFRAME XSTACK, 14, STACK
        ARGFRAME IOVERLAY, 0, STATIC
        ARGFRAME DOVERLAY, 0, STATIC
        FUNCALL CommonApp_ProcessEvent, osal_msg_deallocate
        LOCFRAME ISTACK, 0, STACK
        LOCFRAME PSTACK, 0, STACK
        LOCFRAME XSTACK, 14, STACK
        LOCFRAME IOVERLAY, 0, STATIC
        LOCFRAME DOVERLAY, 0, STATIC
        ARGFRAME ISTACK, 0, STACK
        ARGFRAME PSTACK, 0, STACK
        ARGFRAME XSTACK, 14, STACK
        ARGFRAME IOVERLAY, 0, STATIC
        ARGFRAME DOVERLAY, 0, STATIC
        FUNCALL CommonApp_ProcessEvent, osal_msg_receive
        LOCFRAME ISTACK, 0, STACK
        LOCFRAME PSTACK, 0, STACK
        LOCFRAME XSTACK, 14, STACK
        LOCFRAME IOVERLAY, 0, STATIC
        LOCFRAME DOVERLAY, 0, STATIC
        ARGFRAME ISTACK, 0, STACK
        ARGFRAME PSTACK, 0, STACK
        ARGFRAME XSTACK, 14, STACK
        ARGFRAME IOVERLAY, 0, STATIC
        ARGFRAME DOVERLAY, 0, STATIC
        FUNCALL CommonApp_ProcessEvent, process_event
        LOCFRAME ISTACK, 0, STACK
        LOCFRAME PSTACK, 0, STACK
        LOCFRAME XSTACK, 14, STACK
        LOCFRAME IOVERLAY, 0, STATIC
        LOCFRAME DOVERLAY, 0, STATIC
        ARGFRAME ISTACK, 0, STACK
        ARGFRAME PSTACK, 0, STACK
        ARGFRAME XSTACK, 14, STACK
        ARGFRAME IOVERLAY, 0, STATIC
        ARGFRAME DOVERLAY, 0, STATIC
        MOV     A,#-0xe
        LCALL   ?BANKED_ENTER_XDATA
        CFI DPH0 load(1, XDATA, add(CFA_XSP16, literal(-1)))
        CFI DPL0 load(1, XDATA, add(CFA_XSP16, literal(-2)))
        CFI ?BRET_EXT load(1, XDATA, add(CFA_XSP16, literal(-3)))
        CFI ?RET_HIGH load(1, XDATA, add(CFA_XSP16, literal(-4)))
        CFI ?RET_LOW load(1, XDATA, add(CFA_XSP16, literal(-5)))
        CFI R7 load(1, XDATA, add(CFA_XSP16, literal(-6)))
        CFI V5 load(1, XDATA, add(CFA_XSP16, literal(-7)))
        CFI V4 load(1, XDATA, add(CFA_XSP16, literal(-8)))
        CFI V3 load(1, XDATA, add(CFA_XSP16, literal(-9)))
        CFI V2 load(1, XDATA, add(CFA_XSP16, literal(-10)))
        CFI V1 load(1, XDATA, add(CFA_XSP16, literal(-11)))
        CFI V0 load(1, XDATA, add(CFA_XSP16, literal(-12)))
        CFI VB load(1, XDATA, add(CFA_XSP16, literal(-13)))
        CFI R6 load(1, XDATA, add(CFA_XSP16, literal(-14)))
        CFI CFA_SP SP+0
        CFI CFA_XSP16 add(XSP16, 14)
        ; Saved register size: 14
        ; Auto size: 0
        MOV     ?V0 + 0,R2
        MOV     ?V0 + 1,R3
//  211     afIncomingMSGPacket_t *MSGpkt;
//  212     afDataConfirm_t *afDataConfirm;
//  213   
//  214     // Data Confirmation message fields
//  215     byte sentEP;
//  216     ZStatus_t sentStatus;
//  217     byte sentTransID;       // This should match the value sent
//  218     (void)task_id;  // Intentionally unreferenced parameter
//  219     
//  220     if ( events & SYS_EVENT_MSG )
        MOV     A,R3
        ANL     A,#0x80
        JNZ     $+5
        LJMP    ??CommonApp_ProcessEvent_0 & 0xFFFF
//  221     {
//  222       MSGpkt = (afIncomingMSGPacket_t *)osal_msg_receive( CommonApp_TaskID );
        ; Setup parameters for call to function osal_msg_receive
        LCALL   ?Subroutine5 & 0xFFFF
//  223       while ( MSGpkt )
??CrossCallReturnLabel_0:
        JNZ     $+5
        LJMP    ??CommonApp_ProcessEvent_1 & 0xFFFF
//  224       {
//  225         switch ( MSGpkt->hdr.event )
??CommonApp_ProcessEvent_2:
        MOV     DPL,R6
        MOV     DPH,R7
        MOVX    A,@DPTR
        ADD     A,#-0x1a
        JZ      ??CommonApp_ProcessEvent_3
        ADD     A,#0x5a
        JZ      ??CommonApp_ProcessEvent_4
        ADD     A,#-0x11
        JNZ     $+5
        LJMP    ??CommonApp_ProcessEvent_5 & 0xFFFF
        ADD     A,#-0x2
        JZ      $+5
        LJMP    ??CommonApp_ProcessEvent_6 & 0xFFFF
//  226         {
//  227         case ZDO_CB_MSG:
//  228 		  CommonApp_ProcessZDOMsgs( (zdoIncomingMsg_t *)MSGpkt );
        MOV     A,R6
        ADD     A,#0xc
        MOV     DPL,A
        MOV     A,R7
        ADDC    A,#0x0
        MOV     DPH,A
        MOVX    A,@DPTR
        XRL     A,#0x6
        JNZ     ??CommonApp_ProcessEvent_7
        INC     DPTR
        MOVX    A,@DPTR
        XRL     A,#0x80
??CommonApp_ProcessEvent_7:
        JNZ     ??CommonApp_ProcessEvent_6
        ; Setup parameters for call to function ZDO_ParseEPListRsp
        MOV     A,R6
        MOV     R2,A
        MOV     A,R7
        MOV     R3,A
        LCALL   ??ZDO_ParseEPListRsp?relay
        MOV     A,R2
        ORL     A,R3
        JZ      ??CommonApp_ProcessEvent_6
        MOV     DPL,R2
        MOV     DPH,R3
        MOVX    A,@DPTR
        JNZ     ??CommonApp_ProcessEvent_8
        INC     DPTR
        INC     DPTR
        INC     DPTR
        MOVX    A,@DPTR
        JZ      ??CommonApp_ProcessEvent_8
        MOV     DPTR,#CommonApp_DstAddr + 8
        MOV     A,#0x2
        MOVX    @DPTR,A
        MOV     DPL,R2
        MOV     DPH,R3
        INC     DPTR
        MOVX    A,@DPTR
        MOV     R0,A
        INC     DPTR
        MOVX    A,@DPTR
        MOV     R1,A
        MOV     DPTR,#CommonApp_DstAddr
        MOV     A,R0
        MOVX    @DPTR,A
        INC     DPTR
        MOV     A,R1
        MOVX    @DPTR,A
        MOV     DPL,R2
        MOV     DPH,R3
        INC     DPTR
        INC     DPTR
        INC     DPTR
        INC     DPTR
        MOVX    A,@DPTR
        MOV     DPTR,#CommonApp_DstAddr + 9
        MOVX    @DPTR,A
??CommonApp_ProcessEvent_8:
        ; Setup parameters for call to function osal_mem_free
        LCALL   ??osal_mem_free?relay
        SJMP    ??CommonApp_ProcessEvent_6
//  229           break;
//  230 
//  231         case KEY_CHANGE:
//  232 		  CommonApp_HandleKeys( ((keyChange_t *)MSGpkt)->state, ((keyChange_t *)MSGpkt)->keys );
??CommonApp_ProcessEvent_4:
        ; Setup parameters for call to function CommonApp_HandleKeys
        INC     DPTR
        INC     DPTR
        INC     DPTR
        LCALL   ??Subroutine10_0 & 0xFFFF
??CrossCallReturnLabel_10:
        MOV     DPL,R6
        MOV     DPH,R7
        INC     DPTR
        INC     DPTR
        MOVX    A,@DPTR
        MOV     R1,A
        LCALL   ??CommonApp_HandleKeys?relay
//  233           break;
        SJMP    ??CommonApp_ProcessEvent_6
//  234 
//  235         case AF_DATA_CONFIRM_CMD:
//  236           // This message is received as a confirmation of a data packet sent.
//  237           // The status is of ZStatus_t type [defined in ZComDef.h]
//  238           // The message fields are defined in AF.h
//  239           afDataConfirm = (afDataConfirm_t *)MSGpkt;
//  240           sentEP = afDataConfirm->endpoint;
//  241           sentStatus = afDataConfirm->hdr.status;
//  242           sentTransID = afDataConfirm->transID;
//  243           (void)sentEP;
//  244           (void)sentTransID;
//  245 
//  246           // Action taken when confirmation is received.
//  247           if ( sentStatus != ZSuccess )
//  248           {
//  249             CommonApp_afDatacfm( afDataConfirm );
//  250           }
//  251           break;
//  252 
//  253         case AF_INCOMING_MSG_CMD:
//  254 #ifndef POWER_SAVING
//  255 #if defined(HAL_MT7620_GPIO_MAP) || (DEVICE_TYPE_ID==13) || (DEVICE_TYPE_ID==14)
//  256 		  HalLedSet( HAL_LED_1,  HAL_LED_MODE_BLINK);
//  257 #else
//  258 		  HalLedSet(HAL_LED_2, HAL_LED_MODE_BLINK);
??CommonApp_ProcessEvent_3:
        ; Setup parameters for call to function HalLedSet
        MOV     R2,#0x2
        MOV     R1,#0x2
        LCALL   ??HalLedSet?relay
//  259 #endif
//  260           CommonApp_MessageMSGCB( MSGpkt );
        ; Setup parameters for call to function CommonApp_MessageMSGCB
        MOV     A,R6
        MOV     R2,A
        MOV     A,R7
        MOV     R3,A
        LCALL   ??CommonApp_MessageMSGCB?relay
//  261 #endif
//  262           break;
        SJMP    ??CommonApp_ProcessEvent_6
//  263 
//  264         case ZDO_STATE_CHANGE:
//  265 		  HalLedSet(HAL_LED_3, HAL_LED_MODE_BLINK);
??CommonApp_ProcessEvent_5:
        ; Setup parameters for call to function HalLedSet
        MOV     R2,#0x2
        MOV     R1,#0x4
        LCALL   ??HalLedSet?relay
//  266 		  CommonApp_NwkState = (devStates_t)(MSGpkt->hdr.status);
        MOV     DPL,R6
        MOV     DPH,R7
        INC     DPTR
        MOVX    A,@DPTR
        MOV     DPTR,#CommonApp_NwkState
        MOVX    @DPTR,A
//  267 #if defined(POWERON_FACTORY_SETTING) && !defined(RTR_NWK)
//  268 		  CommonApp_PowerOnFactorySetting(CommonApp_NwkState);
//  269 #endif
//  270 		  CommonApp_ProcessZDOStates( CommonApp_NwkState );
        ; Setup parameters for call to function CommonApp_ProcessZDOStates
        MOV     R1,A
        LCALL   ??CommonApp_ProcessZDOStates?relay
//  271                   isFirstState = 0;
        MOV     DPTR,#isFirstState
        CLR     A
        MOVX    @DPTR,A
//  272   
//  273           break;
//  274 
//  275         default:
//  276           break;
//  277       }
//  278 
//  279       // Release the memory
//  280       osal_msg_deallocate( (uint8 *)MSGpkt );
??CommonApp_ProcessEvent_6:
        ; Setup parameters for call to function osal_msg_deallocate
        MOV     A,R6
        MOV     R2,A
        MOV     A,R7
        MOV     R3,A
        LCALL   ??osal_msg_deallocate?relay
//  281 
//  282       // Next
//  283       MSGpkt = (afIncomingMSGPacket_t *)osal_msg_receive( CommonApp_TaskID );
        ; Setup parameters for call to function osal_msg_receive
        LCALL   ?Subroutine5 & 0xFFFF
//  284     }
??CrossCallReturnLabel_1:
        JZ      $+5
        LJMP    ??CommonApp_ProcessEvent_2 & 0xFFFF
//  285 
//  286     // return unprocessed events
//  287     return (events ^ SYS_EVENT_MSG);
??CommonApp_ProcessEvent_1:
        MOV     R2,?V0 + 0
        MOV     A,?V0 + 1
        XRL     A,#0x80
        MOV     R3,A
        SJMP    ??CommonApp_ProcessEvent_9
//  288   }
//  289   
//  290   return process_event(task_id, events);
??CommonApp_ProcessEvent_0:
        ; Setup parameters for call to function process_event
        LCALL   ??process_event?relay
??CommonApp_ProcessEvent_9:
        MOV     R7,#0x6
        LJMP    ?BANKED_LEAVE_XDATA
        CFI EndBlock cfiBlock2
//  291 }

        RSEG BANKED_CODE:CODE:NOROOT(0)
?Subroutine5:
        CFI Block cfiCond3 Using cfiCommon0
        CFI NoFunction
        CFI Conditional ??CrossCallReturnLabel_0
        CFI R6 load(1, XDATA, add(CFA_XSP16, literal(-14)))
        CFI VB load(1, XDATA, add(CFA_XSP16, literal(-13)))
        CFI V0 load(1, XDATA, add(CFA_XSP16, literal(-12)))
        CFI V1 load(1, XDATA, add(CFA_XSP16, literal(-11)))
        CFI V2 load(1, XDATA, add(CFA_XSP16, literal(-10)))
        CFI V3 load(1, XDATA, add(CFA_XSP16, literal(-9)))
        CFI V4 load(1, XDATA, add(CFA_XSP16, literal(-8)))
        CFI V5 load(1, XDATA, add(CFA_XSP16, literal(-7)))
        CFI R7 load(1, XDATA, add(CFA_XSP16, literal(-6)))
        CFI ?RET_LOW load(1, XDATA, add(CFA_XSP16, literal(-5)))
        CFI ?RET_HIGH load(1, XDATA, add(CFA_XSP16, literal(-4)))
        CFI ?BRET_EXT load(1, XDATA, add(CFA_XSP16, literal(-3)))
        CFI DPL0 load(1, XDATA, add(CFA_XSP16, literal(-2)))
        CFI DPH0 load(1, XDATA, add(CFA_XSP16, literal(-1)))
        CFI CFA_SP SP+0
        CFI CFA_XSP16 add(XSP16, 14)
        CFI Block cfiCond4 Using cfiCommon0
        CFI (cfiCond4) NoFunction
        CFI (cfiCond4) Conditional ??CrossCallReturnLabel_1
        CFI (cfiCond4) R6 load(1, XDATA, add(CFA_XSP16, literal(-14)))
        CFI (cfiCond4) VB load(1, XDATA, add(CFA_XSP16, literal(-13)))
        CFI (cfiCond4) V0 load(1, XDATA, add(CFA_XSP16, literal(-12)))
        CFI (cfiCond4) V1 load(1, XDATA, add(CFA_XSP16, literal(-11)))
        CFI (cfiCond4) V2 load(1, XDATA, add(CFA_XSP16, literal(-10)))
        CFI (cfiCond4) V3 load(1, XDATA, add(CFA_XSP16, literal(-9)))
        CFI (cfiCond4) V4 load(1, XDATA, add(CFA_XSP16, literal(-8)))
        CFI (cfiCond4) V5 load(1, XDATA, add(CFA_XSP16, literal(-7)))
        CFI (cfiCond4) R7 load(1, XDATA, add(CFA_XSP16, literal(-6)))
        CFI (cfiCond4) ?RET_LOW load(1, XDATA, add(CFA_XSP16, literal(-5)))
        CFI (cfiCond4) ?RET_HIGH load(1, XDATA, add(CFA_XSP16, literal(-4)))
        CFI (cfiCond4) ?BRET_EXT load(1, XDATA, add(CFA_XSP16, literal(-3)))
        CFI (cfiCond4) DPL0 load(1, XDATA, add(CFA_XSP16, literal(-2)))
        CFI (cfiCond4) DPH0 load(1, XDATA, add(CFA_XSP16, literal(-1)))
        CFI (cfiCond4) CFA_SP SP+0
        CFI (cfiCond4) CFA_XSP16 add(XSP16, 14)
        CFI Block cfiPicker5 Using cfiCommon1
        CFI (cfiPicker5) NoFunction
        CFI (cfiPicker5) Picker
        MOV     DPTR,#CommonApp_TaskID
        MOVX    A,@DPTR
        MOV     R1,A
        LCALL   ??osal_msg_receive?relay
        MOV     ?V0 + 4,R2
        MOV     ?V0 + 5,R3
        MOV     R6,?V0 + 4
        MOV     R7,?V0 + 5
        MOV     A,R6
        ORL     A,R7
        RET
        CFI EndBlock cfiCond3
        CFI EndBlock cfiCond4
        CFI EndBlock cfiPicker5
//  292 
//  293 
//  294 /*********************************************************************
//  295  * Event Generation Functions
//  296  */
//  297 
//  298 #if defined(POWERON_FACTORY_SETTING) && !defined(RTR_NWK)
//  299 #define POWERSETTING_COUNT	3
//  300 static uint8 hasConn = 0;
//  301 static uint8 isNotTimeOut = 1;
//  302 static uint8 isPowerSetCount = 0;
//  303 static uint8 powerSetCount = 0;
//  304 /*********************************************************************
//  305  * @fn      CommonApp_PowerOnFactorySetting
//  306  *
//  307  * @brief   reset to factory setting by power on off
//  308  *
//  309  * @param   network status
//  310  *
//  311  * @return  none
//  312  */
//  313 void CommonApp_PowerOnFactorySetting(devStates_t status)
//  314 {
//  315   if(isFirstState)
//  316   {
//  317 	if ( osal_nv_item_init( ZCD_NV_POWER_SETTING_COUNT,
//  318                               sizeof(powerSetCount),
//  319                               &powerSetCount ) == ZSUCCESS )
//  320 	{
//  321 		osal_nv_read( ZCD_NV_POWER_SETTING_COUNT,
//  322 		            	0,
//  323 		                sizeof( powerSetCount ),
//  324 		                &powerSetCount);
//  325 	}
//  326 
//  327 	set_user_event(CommonApp_TaskID, POWERSETTING_COUNT_EVT, CommonApp_PowerSettingCountCB, 
//  328   		POWERSETTING_TIMEOUT, TIMER_ONE_EXECUTION, NULL);
//  329   }
//  330 	
//  331   if(status == DEV_ZB_COORD || status == DEV_ROUTER 
//  332   		|| status == DEV_END_DEVICE)
//  333   {
//  334 	hasConn = 1;
//  335 	
//  336 	if(powerSetCount != 0)
//  337 	{
//  338 		powerSetCount = 0;
//  339 		if ( osal_nv_item_init( ZCD_NV_POWER_SETTING_COUNT,
//  340                               sizeof(powerSetCount),
//  341                               &powerSetCount ) == ZSUCCESS )
//  342 		{
//  343 		    osal_nv_write( ZCD_NV_POWER_SETTING_COUNT,
//  344 		                  0,
//  345 		                  sizeof( powerSetCount ),
//  346 		                  &powerSetCount);
//  347 		}
//  348 	}
//  349 
//  350 	return;
//  351   }
//  352   
//  353   if ((zgReadStartupOptions()&ZCD_STARTOPT_DEFAULT_NETWORK_STATE)
//  354   		|| hasConn || isNotTimeOut)
//  355   {
//  356     return;
//  357   }
//  358 
//  359   if(!isPowerSetCount)
//  360   {
//  361   	isPowerSetCount = 1;
//  362   	powerSetCount++;
//  363   	if ( osal_nv_item_init( ZCD_NV_POWER_SETTING_COUNT,
//  364                             sizeof(powerSetCount),
//  365                             &powerSetCount ) == ZSUCCESS )
//  366   	{
//  367 	  osal_nv_write( ZCD_NV_POWER_SETTING_COUNT,
//  368 		             0,
//  369 		             sizeof( powerSetCount ),
//  370 		             &powerSetCount);
//  371   	}
//  372 
//  373 	if(powerSetCount <= POWERSETTING_COUNT)
//  374   	{
//  375 	  return;
//  376   	}
//  377 
//  378 #if defined(HOLD_INIT_AUTHENTICATION)
//  379     if(devState != DEV_HOLD)
//  380     {
//  381       HalLedBlink ( HAL_LED_4, 0, 50, 100 );
//  382       devStates_t tStates;
//  383       if (ZSUCCESS == osal_nv_item_init( 
//  384                           ZCD_NV_NWK_HOLD_STARTUP, sizeof(tStates),  &tStates))
//  385       {
//  386         tStates = DEV_HOLD;
//  387         osal_nv_write(ZCD_NV_NWK_HOLD_STARTUP, 0, sizeof(tStates),  &tStates);
//  388       }
//  389 
//  390       zgWriteStartupOptions(ZG_STARTUP_SET, ZCD_STARTOPT_DEFAULT_NETWORK_STATE);
//  391       WatchDogEnable( WDTIMX );
//  392     }
//  393 #endif
//  394   }
//  395 }
//  396 
//  397 void CommonApp_PowerSettingCountCB( void *params, 
//  398 										uint16 *duration, uint8 *count)
//  399 {
//  400 	if(CommonApp_NwkState != DEV_ZB_COORD && CommonApp_NwkState != DEV_ROUTER 
//  401   		|| CommonApp_NwkState != DEV_END_DEVICE)
//  402 	{
//  403 		HalLedBlink ( HAL_LED_2, 2, 50, 100 );
//  404 	}
//  405 	
//  406 	isNotTimeOut = 0;
//  407 }
//  408 #endif
//  409 
//  410 
//  411 /*********************************************************************
//  412  * @fn      CommonApp_ProcessZDOMsgs()
//  413  *
//  414  * @brief   Process response messages
//  415  *
//  416  * @param   incoming message
//  417  *
//  418  * @return  none
//  419  */
//  420 void CommonApp_ProcessZDOMsgs( zdoIncomingMsg_t *inMsg )
//  421 {
//  422   switch ( inMsg->clusterID )
//  423   {
//  424     case End_Device_Bind_rsp:
//  425       if ( ZDO_ParseBindRsp( inMsg ) == ZSuccess )
//  426       {
//  427         // Light LED
//  428         //HalLedSet( HAL_LED_4, HAL_LED_MODE_ON );
//  429       }
//  430 #if defined( BLINK_LEDS )
//  431       else
//  432       {
//  433         // Flash LED to show failure
//  434         //HalLedSet ( HAL_LED_4, HAL_LED_MODE_FLASH );
//  435       }
//  436 #endif
//  437       break;
//  438 
//  439     case Match_Desc_rsp:
//  440       {
//  441         ZDO_ActiveEndpointRsp_t *pRsp = ZDO_ParseEPListRsp( inMsg );
//  442         if ( pRsp )
//  443         {
//  444           if ( pRsp->status == ZSuccess && pRsp->cnt )
//  445           {
//  446             CommonApp_DstAddr.addrMode = (afAddrMode_t)Addr16Bit;
//  447             CommonApp_DstAddr.addr.shortAddr = pRsp->nwkAddr;
//  448             // Take the first endpoint, Can be changed to search through endpoints
//  449             CommonApp_DstAddr.endPoint = pRsp->epList[0];
//  450 
//  451             // Light LED
//  452             //HalLedSet( HAL_LED_4, HAL_LED_MODE_ON );
//  453           }
//  454           osal_mem_free( pRsp );
//  455         }
//  456       }
//  457       break;
//  458   }
//  459 }
//  460 
//  461 
//  462 /*********************************************************************
//  463  * @fn      CommonApp_afDatacfm()
//  464  *
//  465  * @brief   Process send data comfirm
//  466  *
//  467  * @param   comfirm message
//  468  *
//  469  * @return  none
//  470  */
//  471 void CommonApp_afDatacfm(afDataConfirm_t *data)
//  472 {}
//  473 
//  474 
//  475 /*********************************************************************
//  476  * @fn      CommonApp_HandleKeys
//  477  *
//  478  * @brief   Handles all key events for this device.
//  479  *
//  480  * @param   shift - true if in shift/alt.
//  481  * @param   keys - bit field for key events. Valid entries:
//  482  *                 HAL_KEY_SW_4
//  483  *                 HAL_KEY_SW_3
//  484  *                 HAL_KEY_SW_2
//  485  *                 HAL_KEY_SW_1
//  486  *
//  487  * @return  none
//  488  */

        RSEG BANKED_CODE:CODE:NOROOT(0)
//  489 void CommonApp_HandleKeys( uint8 shift, uint16 keys )
CommonApp_HandleKeys:
        CFI Block cfiBlock6 Using cfiCommon0
        CFI Function CommonApp_HandleKeys
        CODE
//  490 {
        FUNCALL CommonApp_HandleKeys, HalLedSet
        LOCFRAME ISTACK, 0, STACK
        LOCFRAME PSTACK, 0, STACK
        LOCFRAME XSTACK, 21, STACK
        LOCFRAME IOVERLAY, 0, STATIC
        LOCFRAME DOVERLAY, 0, STATIC
        ARGFRAME ISTACK, 0, STACK
        ARGFRAME PSTACK, 0, STACK
        ARGFRAME XSTACK, 21, STACK
        ARGFRAME IOVERLAY, 0, STATIC
        ARGFRAME DOVERLAY, 0, STATIC
        FUNCALL CommonApp_HandleKeys, NLME_GetShortAddr
        LOCFRAME ISTACK, 0, STACK
        LOCFRAME PSTACK, 0, STACK
        LOCFRAME XSTACK, 21, STACK
        LOCFRAME IOVERLAY, 0, STATIC
        LOCFRAME DOVERLAY, 0, STATIC
        ARGFRAME ISTACK, 0, STACK
        ARGFRAME PSTACK, 0, STACK
        ARGFRAME XSTACK, 21, STACK
        ARGFRAME IOVERLAY, 0, STATIC
        ARGFRAME DOVERLAY, 0, STATIC
        FUNCALL CommonApp_HandleKeys, ZDP_EndDeviceBindReq
        LOCFRAME ISTACK, 0, STACK
        LOCFRAME PSTACK, 0, STACK
        LOCFRAME XSTACK, 30, STACK
        LOCFRAME IOVERLAY, 0, STATIC
        LOCFRAME DOVERLAY, 0, STATIC
        ARGFRAME ISTACK, 0, STACK
        ARGFRAME PSTACK, 0, STACK
        ARGFRAME XSTACK, 30, STACK
        ARGFRAME IOVERLAY, 0, STATIC
        ARGFRAME DOVERLAY, 0, STATIC
        FUNCALL CommonApp_HandleKeys, HalLedSet
        LOCFRAME ISTACK, 0, STACK
        LOCFRAME PSTACK, 0, STACK
        LOCFRAME XSTACK, 21, STACK
        LOCFRAME IOVERLAY, 0, STATIC
        LOCFRAME DOVERLAY, 0, STATIC
        ARGFRAME ISTACK, 0, STACK
        ARGFRAME PSTACK, 0, STACK
        ARGFRAME XSTACK, 21, STACK
        ARGFRAME IOVERLAY, 0, STATIC
        ARGFRAME DOVERLAY, 0, STATIC
        FUNCALL CommonApp_HandleKeys, ZDP_MatchDescReq
        LOCFRAME ISTACK, 0, STACK
        LOCFRAME PSTACK, 0, STACK
        LOCFRAME XSTACK, 29, STACK
        LOCFRAME IOVERLAY, 0, STATIC
        LOCFRAME DOVERLAY, 0, STATIC
        ARGFRAME ISTACK, 0, STACK
        ARGFRAME PSTACK, 0, STACK
        ARGFRAME XSTACK, 29, STACK
        ARGFRAME IOVERLAY, 0, STATIC
        ARGFRAME DOVERLAY, 0, STATIC
        FUNCALL CommonApp_HandleKeys, halGetKeyCount
        LOCFRAME ISTACK, 0, STACK
        LOCFRAME PSTACK, 0, STACK
        LOCFRAME XSTACK, 21, STACK
        LOCFRAME IOVERLAY, 0, STATIC
        LOCFRAME DOVERLAY, 0, STATIC
        ARGFRAME ISTACK, 0, STACK
        ARGFRAME PSTACK, 0, STACK
        ARGFRAME XSTACK, 21, STACK
        ARGFRAME IOVERLAY, 0, STATIC
        ARGFRAME DOVERLAY, 0, STATIC
        FUNCALL CommonApp_HandleKeys, CommonApp_HandleCombineKeys
        LOCFRAME ISTACK, 0, STACK
        LOCFRAME PSTACK, 0, STACK
        LOCFRAME XSTACK, 21, STACK
        LOCFRAME IOVERLAY, 0, STATIC
        LOCFRAME DOVERLAY, 0, STATIC
        ARGFRAME ISTACK, 0, STACK
        ARGFRAME PSTACK, 0, STACK
        ARGFRAME XSTACK, 21, STACK
        ARGFRAME IOVERLAY, 0, STATIC
        ARGFRAME DOVERLAY, 0, STATIC
        MOV     A,#-0xc
        LCALL   ?BANKED_ENTER_XDATA
        CFI DPH0 load(1, XDATA, add(CFA_XSP16, literal(-1)))
        CFI DPL0 load(1, XDATA, add(CFA_XSP16, literal(-2)))
        CFI ?BRET_EXT load(1, XDATA, add(CFA_XSP16, literal(-3)))
        CFI ?RET_HIGH load(1, XDATA, add(CFA_XSP16, literal(-4)))
        CFI ?RET_LOW load(1, XDATA, add(CFA_XSP16, literal(-5)))
        CFI R7 load(1, XDATA, add(CFA_XSP16, literal(-6)))
        CFI V3 load(1, XDATA, add(CFA_XSP16, literal(-7)))
        CFI V2 load(1, XDATA, add(CFA_XSP16, literal(-8)))
        CFI V1 load(1, XDATA, add(CFA_XSP16, literal(-9)))
        CFI V0 load(1, XDATA, add(CFA_XSP16, literal(-10)))
        CFI VB load(1, XDATA, add(CFA_XSP16, literal(-11)))
        CFI R6 load(1, XDATA, add(CFA_XSP16, literal(-12)))
        CFI CFA_SP SP+0
        CFI CFA_XSP16 add(XSP16, 12)
        ; Saved register size: 12
        ; Auto size: 9
        MOV     A,#-0x9
        LCALL   ?ALLOC_XSTACK8
        CFI CFA_XSP16 add(XSP16, 21)
        MOV     ?V0 + 0,R1
        MOV     A,R2
        MOV     R6,A
        MOV     A,R3
        MOV     R7,A
//  491   zAddrType_t dstAddr;
//  492 
//  493   // Shift is used to make each button/switch dual purpose.
//  494   if ( shift == HAL_KEY_STATE_SHIFT )
        MOV     A,#0x1
        XRL     A,?V0 + 0
        JNZ     $+5
        LJMP    ??CommonApp_HandleKeys_0 & 0xFFFF
//  495   {
//  496     if ( keys & HAL_KEY_SW_1 )
//  497     {
//  498     }
//  499     if ( keys & HAL_KEY_SW_2 )
//  500     {
//  501     }
//  502     if ( keys & HAL_KEY_SW_3 )
//  503     {
//  504     }
//  505     if ( keys & HAL_KEY_SW_4 )
//  506     {
//  507     }
//  508   }
//  509   else
//  510   {
//  511     if ( keys & HAL_KEY_SW_1 )
//  512     {
//  513       // Since SW1 isn't used for anything else in this application...
//  514 #if defined( SWITCH1_BIND )
//  515       // we can use SW1 to simulate SW2 for devices that only have one switch,
//  516       keys |= HAL_KEY_SW_2;
//  517 #elif defined( SWITCH1_MATCH )
//  518       // or use SW1 to simulate SW4 for devices that only have one switch
//  519       keys |= HAL_KEY_SW_4;
//  520 #endif
//  521     }
//  522 
//  523     if ( keys & HAL_KEY_SW_2 )
        MOV     A,R6
        ANL     A,#0x2
        JZ      ??CommonApp_HandleKeys_1
//  524     {
//  525       HalLedSet ( HAL_LED_4, HAL_LED_MODE_OFF );
        ; Setup parameters for call to function HalLedSet
        MOV     R2,#0x0
        MOV     R1,#0x8
        LCALL   ??HalLedSet?relay
//  526 
//  527       // Initiate an End Device Bind Request for the mandatory endpoint
//  528       dstAddr.addrMode = Addr16Bit;
        MOV     A,#0x8
        LCALL   ?XSTACK_DISP0_8
        MOV     A,#0x2
        MOVX    @DPTR,A
//  529       dstAddr.addr.shortAddr = COORDINATOR_ADDR; // Coordinator
        MOV     DPL,?XSP + 0
        MOV     DPH,?XSP + 1
        CLR     A
        MOVX    @DPTR,A
        INC     DPTR
        MOVX    @DPTR,A
//  530       ZDP_EndDeviceBindReq( &dstAddr, NLME_GetShortAddr(),
//  531                             CommonApp_epDesc.endPoint,
//  532                             COMMONAPP_PROFID,
//  533                             COMMONAPP_MAX_INCLUSTERS, (cId_t *)CommonApp_InClusterList,
//  534                             COMMONAPP_MAX_OUTCLUSTERS, (cId_t *)CommonApp_OutClusterList,
//  535                             FALSE );
        ; Setup parameters for call to function NLME_GetShortAddr
        LCALL   ??NLME_GetShortAddr?relay
        MOV     ?V0 + 2,R2
        MOV     ?V0 + 3,R3
        MOV     R4,?V0 + 2
        MOV     R5,?V0 + 3
        ; Setup parameters for call to function ZDP_EndDeviceBindReq
        MOV     ?V0 + 1,#0x0
        MOV     R0,#?V0 + 1
        LCALL   ?PUSH_XSTACK_I_ONE
        CFI CFA_XSP16 add(XSP16, 22)
        MOV     ?V0 + 2,#CommonApp_OutClusterList & 0xff
        MOV     ?V0 + 3,#(CommonApp_OutClusterList >> 8) & 0xff
        MOV     R0,#?V0 + 2
        LCALL   ?PUSH_XSTACK_I_TWO
        CFI CFA_XSP16 add(XSP16, 24)
        MOV     ?V0 + 1,#0x1
        MOV     R0,#?V0 + 1
        LCALL   ?PUSH_XSTACK_I_ONE
        CFI CFA_XSP16 add(XSP16, 25)
        MOV     ?V0 + 2,#CommonApp_InClusterList & 0xff
        MOV     ?V0 + 3,#(CommonApp_InClusterList >> 8) & 0xff
        MOV     R0,#?V0 + 2
        LCALL   ?PUSH_XSTACK_I_TWO
        CFI CFA_XSP16 add(XSP16, 27)
        MOV     R0,#?V0 + 1
        LCALL   ?PUSH_XSTACK_I_ONE
        CFI CFA_XSP16 add(XSP16, 28)
        MOV     ?V0 + 2,#0x8
        MOV     ?V0 + 3,#0xf
        MOV     R0,#?V0 + 2
        LCALL   ?PUSH_XSTACK_I_TWO
        CFI CFA_XSP16 add(XSP16, 30)
        MOV     DPTR,#CommonApp_epDesc
        MOVX    A,@DPTR
        MOV     R1,A
        MOV     A,#0x9
        LCALL   ?XSTACK_DISP0_8
        MOV     R2,DPL
        MOV     R3,DPH
        LCALL   ??ZDP_EndDeviceBindReq?relay
        MOV     A,#0x9
        LCALL   ?DEALLOC_XSTACK8
        CFI CFA_XSP16 add(XSP16, 21)
//  536     }
//  537 
//  538     if ( keys & HAL_KEY_SW_3 )
//  539     {
//  540     }
//  541 
//  542     if ( keys & HAL_KEY_SW_4 )
??CommonApp_HandleKeys_1:
        MOV     A,R6
        ANL     A,#0x8
        JZ      ??CommonApp_HandleKeys_0
//  543     {
//  544       HalLedSet ( HAL_LED_4, HAL_LED_MODE_OFF );
        ; Setup parameters for call to function HalLedSet
        MOV     R2,#0x0
        MOV     R1,#0x8
        LCALL   ??HalLedSet?relay
//  545       // Initiate a Match Description Request (Service Discovery)
//  546       dstAddr.addrMode = AddrBroadcast;
        MOV     A,#0x8
        LCALL   ?XSTACK_DISP0_8
        MOV     A,#0xf
        MOVX    @DPTR,A
//  547       dstAddr.addr.shortAddr = NWK_BROADCAST_SHORTADDR;
        MOV     DPL,?XSP + 0
        MOV     DPH,?XSP + 1
        MOV     A,#-0x1
        MOVX    @DPTR,A
        INC     DPTR
        MOVX    @DPTR,A
//  548       ZDP_MatchDescReq( &dstAddr, NWK_BROADCAST_SHORTADDR,
//  549                         COMMONAPP_PROFID,
//  550                         COMMONAPP_MAX_INCLUSTERS, (cId_t *)CommonApp_InClusterList,
//  551                         COMMONAPP_MAX_OUTCLUSTERS, (cId_t *)CommonApp_OutClusterList,
//  552                         FALSE );
        ; Setup parameters for call to function ZDP_MatchDescReq
        MOV     ?V0 + 1,#0x0
        MOV     R0,#?V0 + 1
        LCALL   ?PUSH_XSTACK_I_ONE
        CFI CFA_XSP16 add(XSP16, 22)
        MOV     ?V0 + 2,#CommonApp_OutClusterList & 0xff
        MOV     ?V0 + 3,#(CommonApp_OutClusterList >> 8) & 0xff
        MOV     R0,#?V0 + 2
        LCALL   ?PUSH_XSTACK_I_TWO
        CFI CFA_XSP16 add(XSP16, 24)
        MOV     ?V0 + 1,#0x1
        MOV     R0,#?V0 + 1
        LCALL   ?PUSH_XSTACK_I_ONE
        CFI CFA_XSP16 add(XSP16, 25)
        MOV     ?V0 + 2,#CommonApp_InClusterList & 0xff
        MOV     ?V0 + 3,#(CommonApp_InClusterList >> 8) & 0xff
        MOV     R0,#?V0 + 2
        LCALL   ?PUSH_XSTACK_I_TWO
        CFI CFA_XSP16 add(XSP16, 27)
        MOV     ?V0 + 2,#0x8
        MOV     ?V0 + 3,#0xf
        MOV     R0,#?V0 + 2
        LCALL   ?PUSH_XSTACK_I_TWO
        CFI CFA_XSP16 add(XSP16, 29)
        MOV     R1,#0x1
        MOV     R4,#-0x1
        MOV     R5,#-0x1
        MOV     A,#0x8
        LCALL   ?XSTACK_DISP0_8
        MOV     R2,DPL
        MOV     R3,DPH
        LCALL   ??ZDP_MatchDescReq?relay
        MOV     A,#0x8
        LCALL   ?DEALLOC_XSTACK8
        CFI CFA_XSP16 add(XSP16, 21)
//  553     }
//  554   }
//  555 
//  556   if ( (keys & HAL_KEY_SW_6) 
//  557 #ifdef KEY_PUSH_PORT_1_BUTTON
//  558 		|| (keys & HAL_KEY_PORT_1_SWITCHS)
//  559 #endif
//  560   		)
??CommonApp_HandleKeys_0:
        MOV     A,R6
        ANL     A,#0x20
        JZ      ??CommonApp_HandleKeys_2
//  561   {
//  562 #ifdef HAL_KEY_COMBINE_INT_METHOD	
//  563     CommonApp_HandleCombineKeys(keys, halGetKeyCount());
        ; Setup parameters for call to function CommonApp_HandleCombineKeys
        ; Setup parameters for call to function halGetKeyCount
        LCALL   ??halGetKeyCount?relay
        MOV     A,R6
        MOV     R2,A
        MOV     A,R7
        MOV     R3,A
        LCALL   ??CommonApp_HandleCombineKeys?relay
//  564 #endif
//  565   }
//  566 }
??CommonApp_HandleKeys_2:
        MOV     A,#0x9
        LCALL   ?DEALLOC_XSTACK8
        CFI EndBlock cfiBlock6
        REQUIRE ?Subroutine1
        ; // Fall through to label ?Subroutine1

        RSEG BANKED_CODE:CODE:NOROOT(0)
?Subroutine1:
        CFI Block cfiBlock7 Using cfiCommon0
        CFI NoFunction
        CFI CFA_SP SP+0
        CFI CFA_XSP16 add(XSP16, 12)
        CFI VB load(1, XDATA, add(CFA_XSP16, literal(-11)))
        CFI DPL0 load(1, XDATA, add(CFA_XSP16, literal(-2)))
        CFI DPH0 load(1, XDATA, add(CFA_XSP16, literal(-1)))
        CFI R6 load(1, XDATA, add(CFA_XSP16, literal(-12)))
        CFI R7 load(1, XDATA, add(CFA_XSP16, literal(-6)))
        CFI V0 load(1, XDATA, add(CFA_XSP16, literal(-10)))
        CFI V1 load(1, XDATA, add(CFA_XSP16, literal(-9)))
        CFI V2 load(1, XDATA, add(CFA_XSP16, literal(-8)))
        CFI V3 load(1, XDATA, add(CFA_XSP16, literal(-7)))
        CFI ?BRET_EXT load(1, XDATA, add(CFA_XSP16, literal(-3)))
        CFI ?RET_HIGH load(1, XDATA, add(CFA_XSP16, literal(-4)))
        CFI ?RET_LOW load(1, XDATA, add(CFA_XSP16, literal(-5)))
        MOV     R7,#0x4
        LJMP    ?BANKED_LEAVE_XDATA
        CFI EndBlock cfiBlock7
//  567 
//  568 
//  569 /******************************************************************************
//  570  * @fn         CommonApp_GetDeviceInfo
//  571  *
//  572  * @brief       The CommonApp_GetDeviceInfo function retrieves a Device Information
//  573  *              Property.
//  574  *
//  575  * @param       param - The identifier for the device information
//  576  *              pValue - A buffer to hold the device information
//  577  *
//  578  * @return      none
//  579  */

        RSEG BANKED_CODE:CODE:NOROOT(0)
//  580 void CommonApp_GetDeviceInfo ( uint8 param, void *pValue )
CommonApp_GetDeviceInfo:
        CFI Block cfiBlock8 Using cfiCommon0
        CFI Function CommonApp_GetDeviceInfo
        CODE
//  581 {
        FUNCALL CommonApp_GetDeviceInfo, osal_memcpy
        LOCFRAME ISTACK, 0, STACK
        LOCFRAME PSTACK, 0, STACK
        LOCFRAME XSTACK, 14, STACK
        LOCFRAME IOVERLAY, 0, STATIC
        LOCFRAME DOVERLAY, 0, STATIC
        ARGFRAME ISTACK, 0, STACK
        ARGFRAME PSTACK, 0, STACK
        ARGFRAME XSTACK, 14, STACK
        ARGFRAME IOVERLAY, 0, STATIC
        ARGFRAME DOVERLAY, 0, STATIC
        FUNCALL CommonApp_GetDeviceInfo, osal_memcpy
        LOCFRAME ISTACK, 0, STACK
        LOCFRAME PSTACK, 0, STACK
        LOCFRAME XSTACK, 14, STACK
        LOCFRAME IOVERLAY, 0, STATIC
        LOCFRAME DOVERLAY, 0, STATIC
        ARGFRAME ISTACK, 0, STACK
        ARGFRAME PSTACK, 0, STACK
        ARGFRAME XSTACK, 14, STACK
        ARGFRAME IOVERLAY, 0, STATIC
        ARGFRAME DOVERLAY, 0, STATIC
        FUNCALL CommonApp_GetDeviceInfo, osal_memcpy
        LOCFRAME ISTACK, 0, STACK
        LOCFRAME PSTACK, 0, STACK
        LOCFRAME XSTACK, 14, STACK
        LOCFRAME IOVERLAY, 0, STATIC
        LOCFRAME DOVERLAY, 0, STATIC
        ARGFRAME ISTACK, 0, STACK
        ARGFRAME PSTACK, 0, STACK
        ARGFRAME XSTACK, 14, STACK
        ARGFRAME IOVERLAY, 0, STATIC
        ARGFRAME DOVERLAY, 0, STATIC
        FUNCALL CommonApp_GetDeviceInfo, osal_memcpy
        LOCFRAME ISTACK, 0, STACK
        LOCFRAME PSTACK, 0, STACK
        LOCFRAME XSTACK, 14, STACK
        LOCFRAME IOVERLAY, 0, STATIC
        LOCFRAME DOVERLAY, 0, STATIC
        ARGFRAME ISTACK, 0, STACK
        ARGFRAME PSTACK, 0, STACK
        ARGFRAME XSTACK, 14, STACK
        ARGFRAME IOVERLAY, 0, STATIC
        ARGFRAME DOVERLAY, 0, STATIC
        FUNCALL CommonApp_GetDeviceInfo, osal_memcpy
        LOCFRAME ISTACK, 0, STACK
        LOCFRAME PSTACK, 0, STACK
        LOCFRAME XSTACK, 14, STACK
        LOCFRAME IOVERLAY, 0, STATIC
        LOCFRAME DOVERLAY, 0, STATIC
        ARGFRAME ISTACK, 0, STACK
        ARGFRAME PSTACK, 0, STACK
        ARGFRAME XSTACK, 14, STACK
        ARGFRAME IOVERLAY, 0, STATIC
        ARGFRAME DOVERLAY, 0, STATIC
        FUNCALL CommonApp_GetDeviceInfo, osal_memcpy
        LOCFRAME ISTACK, 0, STACK
        LOCFRAME PSTACK, 0, STACK
        LOCFRAME XSTACK, 14, STACK
        LOCFRAME IOVERLAY, 0, STATIC
        LOCFRAME DOVERLAY, 0, STATIC
        ARGFRAME ISTACK, 0, STACK
        ARGFRAME PSTACK, 0, STACK
        ARGFRAME XSTACK, 14, STACK
        ARGFRAME IOVERLAY, 0, STATIC
        ARGFRAME DOVERLAY, 0, STATIC
        FUNCALL CommonApp_GetDeviceInfo, osal_memcpy
        LOCFRAME ISTACK, 0, STACK
        LOCFRAME PSTACK, 0, STACK
        LOCFRAME XSTACK, 14, STACK
        LOCFRAME IOVERLAY, 0, STATIC
        LOCFRAME DOVERLAY, 0, STATIC
        ARGFRAME ISTACK, 0, STACK
        ARGFRAME PSTACK, 0, STACK
        ARGFRAME XSTACK, 14, STACK
        ARGFRAME IOVERLAY, 0, STATIC
        ARGFRAME DOVERLAY, 0, STATIC
        FUNCALL CommonApp_GetDeviceInfo, osal_memcpy
        LOCFRAME ISTACK, 0, STACK
        LOCFRAME PSTACK, 0, STACK
        LOCFRAME XSTACK, 14, STACK
        LOCFRAME IOVERLAY, 0, STATIC
        LOCFRAME DOVERLAY, 0, STATIC
        ARGFRAME ISTACK, 0, STACK
        ARGFRAME PSTACK, 0, STACK
        ARGFRAME XSTACK, 14, STACK
        ARGFRAME IOVERLAY, 0, STATIC
        ARGFRAME DOVERLAY, 0, STATIC
        MOV     A,#-0xb
        LCALL   ?BANKED_ENTER_XDATA
        CFI DPH0 load(1, XDATA, add(CFA_XSP16, literal(-1)))
        CFI DPL0 load(1, XDATA, add(CFA_XSP16, literal(-2)))
        CFI ?BRET_EXT load(1, XDATA, add(CFA_XSP16, literal(-3)))
        CFI ?RET_HIGH load(1, XDATA, add(CFA_XSP16, literal(-4)))
        CFI ?RET_LOW load(1, XDATA, add(CFA_XSP16, literal(-5)))
        CFI R7 load(1, XDATA, add(CFA_XSP16, literal(-6)))
        CFI V2 load(1, XDATA, add(CFA_XSP16, literal(-7)))
        CFI V1 load(1, XDATA, add(CFA_XSP16, literal(-8)))
        CFI V0 load(1, XDATA, add(CFA_XSP16, literal(-9)))
        CFI VB load(1, XDATA, add(CFA_XSP16, literal(-10)))
        CFI R6 load(1, XDATA, add(CFA_XSP16, literal(-11)))
        CFI CFA_SP SP+0
        CFI CFA_XSP16 add(XSP16, 11)
        ; Saved register size: 11
        ; Auto size: 0
        MOV     A,R1
//  582   switch(param)
        JZ      ??CommonApp_GetDeviceInfo_0
        DEC     A
        JZ      ??CommonApp_GetDeviceInfo_1
        DEC     A
        JZ      ??CommonApp_GetDeviceInfo_2
        DEC     A
        JZ      ??CommonApp_GetDeviceInfo_3
        DEC     A
        JZ      ??CommonApp_GetDeviceInfo_4
        DEC     A
        JZ      ??CommonApp_GetDeviceInfo_5
        DEC     A
        JZ      ??CommonApp_GetDeviceInfo_6
        DEC     A
        JZ      ??CommonApp_GetDeviceInfo_7
        SJMP    ??CommonApp_GetDeviceInfo_8
//  583   {
//  584     case ZB_INFO_DEV_STATE:
//  585       osal_memcpy(pValue, &devState, sizeof(uint8));
??CommonApp_GetDeviceInfo_0:
        ; Setup parameters for call to function osal_memcpy
        MOV     ?V0 + 0,#devState & 0xff
        MOV     ?V0 + 1,#(devState >> 8) & 0xff
??CommonApp_GetDeviceInfo_9:
        MOV     ?V0 + 2,#0x0
        MOV     R0,#?V0 + 0
        LCALL   ?PUSH_XSTACK_I_THREE
        CFI CFA_XSP16 add(XSP16, 14)
        MOV     R4,#0x1
        SJMP    ??CommonApp_GetDeviceInfo_10
        CFI CFA_XSP16 add(XSP16, 11)
//  586       break;
//  587     case ZB_INFO_IEEE_ADDR:
//  588       osal_memcpy(pValue, &aExtendedAddress, Z_EXTADDR_LEN);
??CommonApp_GetDeviceInfo_1:
        ; Setup parameters for call to function osal_memcpy
        MOV     ?V0 + 0,#aExtendedAddress & 0xff
        MOV     ?V0 + 1,#(aExtendedAddress >> 8) & 0xff
        SJMP    ??CommonApp_GetDeviceInfo_11
//  589       break;
//  590     case ZB_INFO_SHORT_ADDR:
//  591       osal_memcpy(pValue, &_NIB.nwkDevAddress, sizeof(uint16));
??CommonApp_GetDeviceInfo_2:
        ; Setup parameters for call to function osal_memcpy
        MOV     ?V0 + 0,#(_NIB + 20) & 0xff
        MOV     ?V0 + 1,#((_NIB + 20) >> 8) & 0xff
??CommonApp_GetDeviceInfo_12:
        MOV     ?V0 + 2,#0x0
        MOV     R0,#?V0 + 0
        LCALL   ?PUSH_XSTACK_I_THREE
        CFI CFA_XSP16 add(XSP16, 14)
        MOV     R4,#0x2
        SJMP    ??CommonApp_GetDeviceInfo_10
        CFI CFA_XSP16 add(XSP16, 11)
//  592       break;
//  593     case ZB_INFO_PARENT_SHORT_ADDR:
//  594       osal_memcpy(pValue, &_NIB.nwkCoordAddress, sizeof(uint16));
??CommonApp_GetDeviceInfo_3:
        ; Setup parameters for call to function osal_memcpy
        MOV     ?V0 + 0,#(_NIB + 23) & 0xff
        MOV     ?V0 + 1,#((_NIB + 23) >> 8) & 0xff
        SJMP    ??CommonApp_GetDeviceInfo_12
//  595       break;
//  596     case ZB_INFO_PARENT_IEEE_ADDR:
//  597       osal_memcpy(pValue, &_NIB.nwkCoordExtAddress, Z_EXTADDR_LEN);
??CommonApp_GetDeviceInfo_4:
        ; Setup parameters for call to function osal_memcpy
        MOV     ?V0 + 0,#(_NIB + 25) & 0xff
        MOV     ?V0 + 1,#((_NIB + 25) >> 8) & 0xff
        SJMP    ??CommonApp_GetDeviceInfo_11
//  598       break;
//  599     case ZB_INFO_CHANNEL:
//  600       osal_memcpy(pValue, &_NIB.nwkLogicalChannel, sizeof(uint8));
??CommonApp_GetDeviceInfo_5:
        ; Setup parameters for call to function osal_memcpy
        MOV     ?V0 + 0,#(_NIB + 22) & 0xff
        MOV     ?V0 + 1,#((_NIB + 22) >> 8) & 0xff
        SJMP    ??CommonApp_GetDeviceInfo_9
//  601       break;
//  602     case ZB_INFO_PAN_ID:
//  603       osal_memcpy(pValue, &_NIB.nwkPanId, sizeof(uint16));
??CommonApp_GetDeviceInfo_6:
        ; Setup parameters for call to function osal_memcpy
        MOV     ?V0 + 0,#(_NIB + 33) & 0xff
        MOV     ?V0 + 1,#((_NIB + 33) >> 8) & 0xff
        SJMP    ??CommonApp_GetDeviceInfo_12
//  604       break;
//  605     case ZB_INFO_EXT_PAN_ID:
//  606       osal_memcpy(pValue, &_NIB.extendedPANID, Z_EXTADDR_LEN);
??CommonApp_GetDeviceInfo_7:
        ; Setup parameters for call to function osal_memcpy
        MOV     ?V0 + 0,#(_NIB + 53) & 0xff
        MOV     ?V0 + 1,#((_NIB + 53) >> 8) & 0xff
??CommonApp_GetDeviceInfo_11:
        MOV     ?V0 + 2,#0x0
        MOV     R0,#?V0 + 0
        LCALL   ?PUSH_XSTACK_I_THREE
        CFI CFA_XSP16 add(XSP16, 14)
        MOV     R4,#0x8
??CommonApp_GetDeviceInfo_10:
        MOV     R5,#0x0
        LCALL   ??osal_memcpy?relay
        MOV     A,#0x3
        LCALL   ?DEALLOC_XSTACK8
        CFI CFA_XSP16 add(XSP16, 11)
//  607       break;
//  608   }
//  609 }
??CommonApp_GetDeviceInfo_8:
        LJMP    ??Subroutine8_0 & 0xFFFF
        CFI EndBlock cfiBlock8
//  610 
//  611 
//  612 #if(DEVICE_TYPE_ID!=0)

        RSEG BANKED_CODE:CODE:NOROOT(0)
//  613 int8 CommonDevice_SetData(uint8 const *data, uint8 dataLen)
CommonDevice_SetData:
        CFI Block cfiBlock9 Using cfiCommon0
        CFI Function CommonDevice_SetData
        CODE
//  614 {
        FUNCALL CommonDevice_SetData, osal_mem_free
        LOCFRAME ISTACK, 0, STACK
        LOCFRAME PSTACK, 0, STACK
        LOCFRAME XSTACK, 12, STACK
        LOCFRAME IOVERLAY, 0, STATIC
        LOCFRAME DOVERLAY, 0, STATIC
        ARGFRAME ISTACK, 0, STACK
        ARGFRAME PSTACK, 0, STACK
        ARGFRAME XSTACK, 12, STACK
        ARGFRAME IOVERLAY, 0, STATIC
        ARGFRAME DOVERLAY, 0, STATIC
        FUNCALL CommonDevice_SetData, osal_mem_alloc
        LOCFRAME ISTACK, 0, STACK
        LOCFRAME PSTACK, 0, STACK
        LOCFRAME XSTACK, 12, STACK
        LOCFRAME IOVERLAY, 0, STATIC
        LOCFRAME DOVERLAY, 0, STATIC
        ARGFRAME ISTACK, 0, STACK
        ARGFRAME PSTACK, 0, STACK
        ARGFRAME XSTACK, 12, STACK
        ARGFRAME IOVERLAY, 0, STATIC
        ARGFRAME DOVERLAY, 0, STATIC
        FUNCALL CommonDevice_SetData, osal_memcpy
        LOCFRAME ISTACK, 0, STACK
        LOCFRAME PSTACK, 0, STACK
        LOCFRAME XSTACK, 15, STACK
        LOCFRAME IOVERLAY, 0, STATIC
        LOCFRAME DOVERLAY, 0, STATIC
        ARGFRAME ISTACK, 0, STACK
        ARGFRAME PSTACK, 0, STACK
        ARGFRAME XSTACK, 15, STACK
        ARGFRAME IOVERLAY, 0, STATIC
        ARGFRAME DOVERLAY, 0, STATIC
        FUNCALL CommonDevice_SetData, set_device_data
        LOCFRAME ISTACK, 0, STACK
        LOCFRAME PSTACK, 0, STACK
        LOCFRAME XSTACK, 12, STACK
        LOCFRAME IOVERLAY, 0, STATIC
        LOCFRAME DOVERLAY, 0, STATIC
        ARGFRAME ISTACK, 0, STACK
        ARGFRAME PSTACK, 0, STACK
        ARGFRAME XSTACK, 12, STACK
        ARGFRAME IOVERLAY, 0, STATIC
        ARGFRAME DOVERLAY, 0, STATIC
        MOV     A,#-0xc
        LCALL   ?BANKED_ENTER_XDATA
        CFI DPH0 load(1, XDATA, add(CFA_XSP16, literal(-1)))
        CFI DPL0 load(1, XDATA, add(CFA_XSP16, literal(-2)))
        CFI ?BRET_EXT load(1, XDATA, add(CFA_XSP16, literal(-3)))
        CFI ?RET_HIGH load(1, XDATA, add(CFA_XSP16, literal(-4)))
        CFI ?RET_LOW load(1, XDATA, add(CFA_XSP16, literal(-5)))
        CFI R7 load(1, XDATA, add(CFA_XSP16, literal(-6)))
        CFI V3 load(1, XDATA, add(CFA_XSP16, literal(-7)))
        CFI V2 load(1, XDATA, add(CFA_XSP16, literal(-8)))
        CFI V1 load(1, XDATA, add(CFA_XSP16, literal(-9)))
        CFI V0 load(1, XDATA, add(CFA_XSP16, literal(-10)))
        CFI VB load(1, XDATA, add(CFA_XSP16, literal(-11)))
        CFI R6 load(1, XDATA, add(CFA_XSP16, literal(-12)))
        CFI CFA_SP SP+0
        CFI CFA_XSP16 add(XSP16, 12)
        ; Saved register size: 12
        ; Auto size: 0
        MOV     A,R2
        MOV     R6,A
        MOV     A,R3
        MOV     R7,A
        MOV     ?V0 + 3,R1
//  615 	if(optData != NULL && optDataLen < dataLen && dataLen <= MAX_OPTDATA_SIZE)
        MOV     DPTR,#optData
        MOVX    A,@DPTR
        MOV     R0,A
        INC     DPTR
        MOVX    A,@DPTR
        MOV     R1,A
        MOV     A,R0
        ORL     A,R1
        JZ      ??CommonDevice_SetData_0
        MOV     DPTR,#optDataLen
        MOVX    A,@DPTR
        CLR     C
        SUBB    A,?V0 + 3
        JNC     ??CommonDevice_SetData_0
        MOV     A,?V0 + 3
        CLR     C
        SUBB    A,#-0x7f
        JNC     ??CommonDevice_SetData_0
//  616 	{
//  617 		osal_mem_free(optData);
        ; Setup parameters for call to function osal_mem_free
        LCALL   ?Subroutine6 & 0xFFFF
??CrossCallReturnLabel_12:
        LCALL   ??osal_mem_free?relay
//  618 		optData = NULL;
        MOV     DPTR,#optData
        CLR     A
        MOVX    @DPTR,A
        INC     DPTR
        MOVX    @DPTR,A
        SJMP    ??CommonDevice_SetData_1
//  619 	}
//  620 
//  621 	if(dataLen <= MAX_OPTDATA_SIZE)
??CommonDevice_SetData_0:
        MOV     A,?V0 + 3
        CLR     C
        SUBB    A,#-0x7f
        JNC     ??CommonDevice_SetData_2
//  622 	{
//  623 		if(optData == NULL && dataLen != 0)
        MOV     DPTR,#optData + 1
        MOVX    A,@DPTR
        MOV     R1,A
        MOV     A,R0
        ORL     A,R1
        JNZ     ??CommonDevice_SetData_3
??CommonDevice_SetData_1:
        MOV     A,?V0 + 3
        JZ      ??CommonDevice_SetData_3
//  624 		{
//  625 			optData = osal_mem_alloc(dataLen);
        ; Setup parameters for call to function osal_mem_alloc
        MOV     R2,A
        MOV     R3,#0x0
        LCALL   ??osal_mem_alloc?relay
        MOV     DPTR,#optData
        MOV     A,R2
        MOVX    @DPTR,A
        INC     DPTR
        MOV     A,R3
        MOVX    @DPTR,A
//  626 		}
//  627 
//  628 		osal_memcpy(optData, data, dataLen);
??CommonDevice_SetData_3:
        ; Setup parameters for call to function osal_memcpy
        MOV     ?V0 + 0,R6
        MOV     ?V0 + 1,R7
        MOV     ?V0 + 2,#0x0
        MOV     R0,#?V0 + 0
        LCALL   ?PUSH_XSTACK_I_THREE
        CFI CFA_XSP16 add(XSP16, 15)
        MOV     ?V0 + 0,?V0 + 3
        MOV     R4,?V0 + 0
        MOV     R5,#0x0
        LCALL   ?Subroutine6 & 0xFFFF
??CrossCallReturnLabel_13:
        LCALL   ??osal_memcpy?relay
        MOV     A,#0x3
        LCALL   ?DEALLOC_XSTACK8
        CFI CFA_XSP16 add(XSP16, 12)
//  629 		optDataLen = dataLen;
        MOV     A,?V0 + 3
        MOV     DPTR,#optDataLen
        MOVX    @DPTR,A
//  630 
//  631 		return set_device_data(optData, optDataLen);
        ; Setup parameters for call to function set_device_data
        MOV     R1,A
        LCALL   ?Subroutine6 & 0xFFFF
//  632 	}	
??CrossCallReturnLabel_14:
        LCALL   ??set_device_data?relay
        SJMP    ??CommonDevice_SetData_4
//  633 	
//  634 	return -1;
??CommonDevice_SetData_2:
        MOV     R1,#-0x1
??CommonDevice_SetData_4:
        LJMP    ?Subroutine1 & 0xFFFF
        CFI EndBlock cfiBlock9
//  635 }
//  636 
//  637 

        RSEG BANKED_CODE:CODE:NOROOT(0)
//  638 int8 CommonDevice_GetData(uint8 *data, uint8 *dataLen)
CommonDevice_GetData:
        CFI Block cfiBlock10 Using cfiCommon0
        CFI Function CommonDevice_GetData
        CODE
//  639 {
        FUNCALL CommonDevice_GetData, get_device_data
        LOCFRAME ISTACK, 2, STACK
        LOCFRAME PSTACK, 0, STACK
        LOCFRAME XSTACK, 0, STACK
        LOCFRAME IOVERLAY, 0, STATIC
        LOCFRAME DOVERLAY, 0, STATIC
        ARGFRAME ISTACK, 2, STACK
        ARGFRAME PSTACK, 0, STACK
        ARGFRAME XSTACK, 0, STACK
        ARGFRAME IOVERLAY, 0, STATIC
        ARGFRAME DOVERLAY, 0, STATIC
        PUSH    DPL
        CFI DPL0 Frame(CFA_SP, 4)
        CFI CFA_SP SP+-4
        PUSH    DPH
        CFI DPH0 Frame(CFA_SP, 5)
        CFI CFA_SP SP+-5
        ; Saved register size: 2
        ; Auto size: 0
//  640 	return get_device_data(data, dataLen);
        ; Setup parameters for call to function get_device_data
        LCALL   ??get_device_data?relay
        LJMP    ?Subroutine3 & 0xFFFF
        CFI EndBlock cfiBlock10
//  641 }
//  642 
//  643 
//  644 /*********************************************************************
//  645  * @fn      CommonApp_CmdPeroidCB
//  646  *
//  647  * @brief   command peroid event callback function
//  648  *
//  649  * @param   none
//  650  *
//  651  * @return  none
//  652  */

        RSEG BANKED_CODE:CODE:NOROOT(0)
//  653 void CommonApp_CmdPeroidCB( void *params, uint16 *duration, uint8 *count)
CommonApp_CmdPeroidCB:
        CFI Block cfiBlock11 Using cfiCommon0
        CFI Function CommonApp_CmdPeroidCB
        CODE
//  654 {
        FUNCALL CommonApp_CmdPeroidCB, get_device_data
        LOCFRAME ISTACK, 2, STACK
        LOCFRAME PSTACK, 0, STACK
        LOCFRAME XSTACK, 129, STACK
        LOCFRAME IOVERLAY, 0, STATIC
        LOCFRAME DOVERLAY, 0, STATIC
        ARGFRAME ISTACK, 2, STACK
        ARGFRAME PSTACK, 0, STACK
        ARGFRAME XSTACK, 129, STACK
        ARGFRAME IOVERLAY, 0, STATIC
        ARGFRAME DOVERLAY, 0, STATIC
        FUNCALL CommonApp_CmdPeroidCB, Update_Refresh
        LOCFRAME ISTACK, 2, STACK
        LOCFRAME PSTACK, 0, STACK
        LOCFRAME XSTACK, 129, STACK
        LOCFRAME IOVERLAY, 0, STATIC
        LOCFRAME DOVERLAY, 0, STATIC
        ARGFRAME ISTACK, 2, STACK
        ARGFRAME PSTACK, 0, STACK
        ARGFRAME XSTACK, 129, STACK
        ARGFRAME IOVERLAY, 0, STATIC
        ARGFRAME DOVERLAY, 0, STATIC
        PUSH    DPL
        CFI DPL0 Frame(CFA_SP, 4)
        CFI CFA_SP SP+-4
        PUSH    DPH
        CFI DPH0 Frame(CFA_SP, 5)
        CFI CFA_SP SP+-5
        ; Saved register size: 2
        ; Auto size: 129
        MOV     A,#0x7f
        LCALL   ?ALLOC_XSTACK8
        CFI CFA_XSP16 add(XSP16, 129)
//  655 	uint8 buf[FRAME_DATA_SIZE] = {0};
        MOV     A,#0x1
        LCALL   ?XSTACK_DISP0_8
        MOV     R4,DPL
        MOV     R5,DPH
        MOV     DPH,#(`?<Constant {0}>` >> 8) & 0xff
        MOV     DPL,#`?<Constant {0}>` & 0xff
        MOV     A,#-0x80
        LCALL   ?MOVE_LONG8_XDATA_XDATA
//  656 	uint8 len = 0;
        MOV     DPL,?XSP + 0
        MOV     DPH,?XSP + 1
        MOVX    @DPTR,A
//  657 	
//  658 	if(!CommonDevice_GetData(buf, &len))
        ; Setup parameters for call to function get_device_data
        MOV     R4,DPL
        MOV     R5,DPH
        INC     A
        LCALL   ?XSTACK_DISP0_8
        MOV     R2,DPL
        MOV     R3,DPH
        LCALL   ??get_device_data?relay
        MOV     A,R1
        JNZ     ??CommonApp_CmdPeroidCB_0
//  659 		Update_Refresh(buf, len);
        ; Setup parameters for call to function Update_Refresh
        MOV     DPL,?XSP + 0
        MOV     DPH,?XSP + 1
        MOVX    A,@DPTR
        MOV     R1,A
        MOV     A,#0x1
        LCALL   ?XSTACK_DISP0_8
        MOV     R2,DPL
        MOV     R3,DPH
        LCALL   ??Update_Refresh?relay
//  660 }
??CommonApp_CmdPeroidCB_0:
        MOV     A,#-0x7f
        LCALL   ?DEALLOC_XSTACK8
        CFI CFA_XSP16 XSP16+0
        LJMP    ?Subroutine3 & 0xFFFF
        CFI EndBlock cfiBlock11
//  661 
//  662 
//  663 /***************************************************************
//  664                      øÿ÷∆√¸¡Ó”Î∑µªÿ
//  665 *****************************************************************/

        RSEG BANKED_CODE:CODE:NOROOT(0)
//  666 int8 DataCmd_Ctrl(uint8 *data, uint8 length)
DataCmd_Ctrl:
        CFI Block cfiBlock12 Using cfiCommon0
        CFI Function DataCmd_Ctrl
        CODE
//  667 {
        FUNCALL DataCmd_Ctrl, CommonDevice_SetData
        LOCFRAME ISTACK, 0, STACK
        LOCFRAME PSTACK, 0, STACK
        LOCFRAME XSTACK, 9, STACK
        LOCFRAME IOVERLAY, 0, STATIC
        LOCFRAME DOVERLAY, 0, STATIC
        ARGFRAME ISTACK, 0, STACK
        ARGFRAME PSTACK, 0, STACK
        ARGFRAME XSTACK, 9, STACK
        ARGFRAME IOVERLAY, 0, STATIC
        ARGFRAME DOVERLAY, 0, STATIC
        MOV     A,#-0x9
        LCALL   ?BANKED_ENTER_XDATA
        CFI DPH0 load(1, XDATA, add(CFA_XSP16, literal(-1)))
        CFI DPL0 load(1, XDATA, add(CFA_XSP16, literal(-2)))
        CFI ?BRET_EXT load(1, XDATA, add(CFA_XSP16, literal(-3)))
        CFI ?RET_HIGH load(1, XDATA, add(CFA_XSP16, literal(-4)))
        CFI ?RET_LOW load(1, XDATA, add(CFA_XSP16, literal(-5)))
        CFI R7 load(1, XDATA, add(CFA_XSP16, literal(-6)))
        CFI V0 load(1, XDATA, add(CFA_XSP16, literal(-7)))
        CFI VB load(1, XDATA, add(CFA_XSP16, literal(-8)))
        CFI R6 load(1, XDATA, add(CFA_XSP16, literal(-9)))
        CFI CFA_SP SP+0
        CFI CFA_XSP16 add(XSP16, 9)
        ; Saved register size: 9
        ; Auto size: 0
//  668 	return CommonDevice_SetData(data, length);
        ; Setup parameters for call to function CommonDevice_SetData
        LCALL   ??CommonDevice_SetData?relay
        LJMP    ?Subroutine0 & 0xFFFF
        CFI EndBlock cfiBlock12
//  669 }
//  670 

        RSEG BANKED_CODE:CODE:NOROOT(0)
//  671 void Update_Refresh(uint8 *data, uint8 length)
Update_Refresh:
        CFI Block cfiBlock13 Using cfiCommon0
        CFI Function Update_Refresh
        CODE
//  672 {
        FUNCALL Update_Refresh, memcpy
        LOCFRAME ISTACK, 0, STACK
        LOCFRAME PSTACK, 0, STACK
        LOCFRAME XSTACK, 34, STACK
        LOCFRAME IOVERLAY, 0, STATIC
        LOCFRAME DOVERLAY, 0, STATIC
        ARGFRAME ISTACK, 0, STACK
        ARGFRAME PSTACK, 0, STACK
        ARGFRAME XSTACK, 34, STACK
        ARGFRAME IOVERLAY, 0, STATIC
        ARGFRAME DOVERLAY, 0, STATIC
        FUNCALL Update_Refresh, memcpy
        LOCFRAME ISTACK, 0, STACK
        LOCFRAME PSTACK, 0, STACK
        LOCFRAME XSTACK, 34, STACK
        LOCFRAME IOVERLAY, 0, STATIC
        LOCFRAME DOVERLAY, 0, STATIC
        ARGFRAME ISTACK, 0, STACK
        ARGFRAME PSTACK, 0, STACK
        ARGFRAME XSTACK, 34, STACK
        ARGFRAME IOVERLAY, 0, STATIC
        ARGFRAME DOVERLAY, 0, STATIC
        FUNCALL Update_Refresh, memcpy
        LOCFRAME ISTACK, 0, STACK
        LOCFRAME PSTACK, 0, STACK
        LOCFRAME XSTACK, 34, STACK
        LOCFRAME IOVERLAY, 0, STATIC
        LOCFRAME DOVERLAY, 0, STATIC
        ARGFRAME ISTACK, 0, STACK
        ARGFRAME PSTACK, 0, STACK
        ARGFRAME XSTACK, 34, STACK
        ARGFRAME IOVERLAY, 0, STATIC
        ARGFRAME DOVERLAY, 0, STATIC
        FUNCALL Update_Refresh, memcpy
        LOCFRAME ISTACK, 0, STACK
        LOCFRAME PSTACK, 0, STACK
        LOCFRAME XSTACK, 34, STACK
        LOCFRAME IOVERLAY, 0, STATIC
        LOCFRAME DOVERLAY, 0, STATIC
        ARGFRAME ISTACK, 0, STACK
        ARGFRAME PSTACK, 0, STACK
        ARGFRAME XSTACK, 34, STACK
        ARGFRAME IOVERLAY, 0, STATIC
        ARGFRAME DOVERLAY, 0, STATIC
        FUNCALL Update_Refresh, SSAFrame_Package
        LOCFRAME ISTACK, 0, STACK
        LOCFRAME PSTACK, 0, STACK
        LOCFRAME XSTACK, 34, STACK
        LOCFRAME IOVERLAY, 0, STATIC
        LOCFRAME DOVERLAY, 0, STATIC
        ARGFRAME ISTACK, 0, STACK
        ARGFRAME PSTACK, 0, STACK
        ARGFRAME XSTACK, 34, STACK
        ARGFRAME IOVERLAY, 0, STATIC
        ARGFRAME DOVERLAY, 0, STATIC
        FUNCALL Update_Refresh, HalUARTWrite
        LOCFRAME ISTACK, 0, STACK
        LOCFRAME PSTACK, 0, STACK
        LOCFRAME XSTACK, 32, STACK
        LOCFRAME IOVERLAY, 0, STATIC
        LOCFRAME DOVERLAY, 0, STATIC
        ARGFRAME ISTACK, 0, STACK
        ARGFRAME PSTACK, 0, STACK
        ARGFRAME XSTACK, 32, STACK
        ARGFRAME IOVERLAY, 0, STATIC
        ARGFRAME DOVERLAY, 0, STATIC
        FUNCALL Update_Refresh, CommonApp_SendTheMessage
        LOCFRAME ISTACK, 0, STACK
        LOCFRAME PSTACK, 0, STACK
        LOCFRAME XSTACK, 32, STACK
        LOCFRAME IOVERLAY, 0, STATIC
        LOCFRAME DOVERLAY, 0, STATIC
        ARGFRAME ISTACK, 0, STACK
        ARGFRAME PSTACK, 0, STACK
        ARGFRAME XSTACK, 32, STACK
        ARGFRAME IOVERLAY, 0, STATIC
        ARGFRAME DOVERLAY, 0, STATIC
        MOV     A,#-0xb
        LCALL   ?BANKED_ENTER_XDATA
        CFI DPH0 load(1, XDATA, add(CFA_XSP16, literal(-1)))
        CFI DPL0 load(1, XDATA, add(CFA_XSP16, literal(-2)))
        CFI ?BRET_EXT load(1, XDATA, add(CFA_XSP16, literal(-3)))
        CFI ?RET_HIGH load(1, XDATA, add(CFA_XSP16, literal(-4)))
        CFI ?RET_LOW load(1, XDATA, add(CFA_XSP16, literal(-5)))
        CFI R7 load(1, XDATA, add(CFA_XSP16, literal(-6)))
        CFI V2 load(1, XDATA, add(CFA_XSP16, literal(-7)))
        CFI V1 load(1, XDATA, add(CFA_XSP16, literal(-8)))
        CFI V0 load(1, XDATA, add(CFA_XSP16, literal(-9)))
        CFI VB load(1, XDATA, add(CFA_XSP16, literal(-10)))
        CFI R6 load(1, XDATA, add(CFA_XSP16, literal(-11)))
        CFI CFA_SP SP+0
        CFI CFA_XSP16 add(XSP16, 11)
        ; Saved register size: 11
        ; Auto size: 21
        MOV     A,#-0x15
        LCALL   ?ALLOC_XSTACK8
        CFI CFA_XSP16 add(XSP16, 32)
        MOV     A,R2
        MOV     R6,A
        MOV     A,R3
        MOV     R7,A
        MOV     ?V0 + 2,R1
//  673   	UR_t mFrame;
//  674 	uint8 *fBuf;		//pointer data buffer
//  675 	uint16 fLen;		//buffer data length
//  676   
//  677 	memcpy(mFrame.head, FR_HEAD_UR, 3);
        ; Setup parameters for call to function memcpy
        MOV     ?V0 + 0,#0x3
        MOV     ?V0 + 1,#0x0
        MOV     R0,#?V0 + 0
        LCALL   ?PUSH_XSTACK_I_TWO
        CFI CFA_XSP16 add(XSP16, 34)
        MOV     R4,#`?<Constant "UR:">` & 0xff
        MOV     R5,#(`?<Constant "UR:">` >> 8) & 0xff
        MOV     A,#0x6
        LCALL   ?XSTACK_DISP0_8
        LCALL   ?Subroutine7 & 0xFFFF
??CrossCallReturnLabel_2:
        LCALL   ?DEALLOC_XSTACK8
        CFI CFA_XSP16 add(XSP16, 32)
//  678 #ifdef RTR_NWK
//  679 	mFrame.type = FR_DEV_ROUTER;
        MOV     A,#0x7
        LCALL   ?XSTACK_DISP0_8
        MOV     A,#0x30
        MOVX    @DPTR,A
//  680 #else
//  681 	mFrame.type = FR_DEV_ENDDEV;
//  682 #endif
//  683 	memcpy(mFrame.ed_type, FR_APP_DEV, 2);
        ; Setup parameters for call to function memcpy
        MOV     ?V0 + 0,#0x2
        MOV     R0,#?V0 + 0
        LCALL   ?PUSH_XSTACK_I_TWO
        CFI CFA_XSP16 add(XSP16, 34)
        MOV     R4,#`?<Constant "FE">` & 0xff
        MOV     R5,#(`?<Constant "FE">` >> 8) & 0xff
        MOV     A,#0xa
        LCALL   ?XSTACK_DISP0_8
        LCALL   ?Subroutine7 & 0xFFFF
??CrossCallReturnLabel_3:
        LCALL   ?DEALLOC_XSTACK8
        CFI CFA_XSP16 add(XSP16, 32)
//  684 	memcpy(mFrame.short_addr, SHORT_ADDR_G, 4);
        ; Setup parameters for call to function memcpy
        MOV     ?V0 + 0,#0x4
        MOV     R0,#?V0 + 0
        LCALL   ?PUSH_XSTACK_I_TWO
        CFI CFA_XSP16 add(XSP16, 34)
        MOV     R4,#SHORT_ADDR_G & 0xff
        MOV     R5,#(SHORT_ADDR_G >> 8) & 0xff
        MOV     A,#0xc
        LCALL   ?XSTACK_DISP0_8
        LCALL   ?Subroutine7 & 0xFFFF
??CrossCallReturnLabel_4:
        LCALL   ?DEALLOC_XSTACK8
        CFI CFA_XSP16 add(XSP16, 32)
//  685 
//  686 	mFrame.data = data;
        MOV     A,#0xf
        LCALL   ?XSTACK_DISP0_8
        MOV     A,R6
        MOVX    @DPTR,A
        INC     DPTR
        MOV     A,R7
        MOVX    @DPTR,A
//  687 	mFrame.data_len = length;
        MOV     A,#0xe
        LCALL   ?XSTACK_DISP0_8
        MOV     A,?V0 + 2
        MOVX    @DPTR,A
//  688 	
//  689 	memcpy(mFrame.tail, f_tail, 4);
        ; Setup parameters for call to function memcpy
        MOV     R0,#?V0 + 0
        LCALL   ?PUSH_XSTACK_I_TWO
        CFI CFA_XSP16 add(XSP16, 34)
        MOV     R4,#f_tail & 0xff
        MOV     R5,#(f_tail >> 8) & 0xff
        MOV     A,#0x13
        LCALL   ?XSTACK_DISP0_8
        LCALL   ?Subroutine7 & 0xFFFF
??CrossCallReturnLabel_5:
        LCALL   ?DEALLOC_XSTACK8
        CFI CFA_XSP16 add(XSP16, 32)
//  690 
//  691 	if(!SSAFrame_Package(HEAD_UR, &mFrame, &fBuf, &fLen))
        ; Setup parameters for call to function SSAFrame_Package
        MOV     DPL,?XSP + 0
        MOV     DPH,?XSP + 1
        MOV     ?V0 + 0,DPL
        MOV     ?V0 + 1,DPH
        MOV     R0,#?V0 + 0
        LCALL   ?PUSH_XSTACK_I_TWO
        CFI CFA_XSP16 add(XSP16, 34)
        MOV     A,#0x4
        LCALL   ?XSTACK_DISP0_8
        MOV     R4,DPL
        MOV     R5,DPH
        MOV     A,#0x6
        LCALL   ?XSTACK_DISP0_8
        MOV     R2,DPL
        MOV     R3,DPH
        MOV     R1,#0x3
        LCALL   ??SSAFrame_Package?relay
        MOV     A,#0x2
        LCALL   ?DEALLOC_XSTACK8
        CFI CFA_XSP16 add(XSP16, 32)
        MOV     A,R1
        JNZ     ??Update_Refresh_0
//  692 	{
//  693 		if(nwkAddr == COORDINATOR_ADDR)
        MOV     DPTR,#nwkAddr
        MOVX    A,@DPTR
        MOV     R0,A
        INC     DPTR
        MOVX    A,@DPTR
        MOV     R1,A
        MOV     A,R0
        ORL     A,R1
        MOV     DPL,?XSP + 0
        MOV     DPH,?XSP + 1
        JNZ     ??Update_Refresh_1
//  694 		{
//  695 			CommonApp_GetDevDataSend(fBuf, fLen);
        ; Setup parameters for call to function HalUARTWrite
        MOVX    A,@DPTR
        MOV     R4,A
        INC     DPTR
        MOVX    A,@DPTR
        MOV     R5,A
        MOV     A,#0x2
        LCALL   ?XSTACK_DISP0_8
        LCALL   ??Subroutine10_0 & 0xFFFF
??CrossCallReturnLabel_11:
        MOV     R1,#0x0
        LCALL   ??HalUARTWrite?relay
//  696 		}
        SJMP    ??Update_Refresh_0
//  697 		else
//  698 		{
//  699 			CommonApp_SendTheMessage(COORDINATOR_ADDR, fBuf, fLen);
??Update_Refresh_1:
        ; Setup parameters for call to function CommonApp_SendTheMessage
        MOVX    A,@DPTR
        MOV     R1,A
        MOV     A,#0x2
        LCALL   ?XSTACK_DISP0_8
        MOVX    A,@DPTR
        MOV     R4,A
        INC     DPTR
        MOVX    A,@DPTR
        MOV     R5,A
        MOV     R2,#0x0
        MOV     R3,#0x0
        LCALL   ??CommonApp_SendTheMessage?relay
//  700 		}
//  701 	}
//  702 }
??Update_Refresh_0:
        MOV     A,#0x15
        CFI EndBlock cfiBlock13
        REQUIRE ?Subroutine2
        ; // Fall through to label ?Subroutine2

        RSEG BANKED_CODE:CODE:NOROOT(0)
?Subroutine2:
        CFI Block cfiBlock14 Using cfiCommon0
        CFI NoFunction
        CFI CFA_SP SP+0
        CFI CFA_XSP16 add(XSP16, 32)
        CFI VB load(1, XDATA, add(CFA_XSP16, literal(-10)))
        CFI DPL0 load(1, XDATA, add(CFA_XSP16, literal(-2)))
        CFI DPH0 load(1, XDATA, add(CFA_XSP16, literal(-1)))
        CFI R6 load(1, XDATA, add(CFA_XSP16, literal(-11)))
        CFI R7 load(1, XDATA, add(CFA_XSP16, literal(-6)))
        CFI V0 load(1, XDATA, add(CFA_XSP16, literal(-9)))
        CFI V1 load(1, XDATA, add(CFA_XSP16, literal(-8)))
        CFI V2 load(1, XDATA, add(CFA_XSP16, literal(-7)))
        CFI ?BRET_EXT load(1, XDATA, add(CFA_XSP16, literal(-3)))
        CFI ?RET_HIGH load(1, XDATA, add(CFA_XSP16, literal(-4)))
        CFI ?RET_LOW load(1, XDATA, add(CFA_XSP16, literal(-5)))
        CFI Invalid
        LCALL   ?DEALLOC_XSTACK8
        CFI EndBlock cfiBlock14
        REQUIRE ??Subroutine8_0
        ; // Fall through to label ??Subroutine8_0

        RSEG BANKED_CODE:CODE:NOROOT(0)
??Subroutine8_0:
        CFI Block cfiBlock15 Using cfiCommon0
        CFI NoFunction
        CFI CFA_SP SP+0
        CFI CFA_XSP16 add(XSP16, 11)
        CFI VB load(1, XDATA, add(CFA_XSP16, literal(-10)))
        CFI DPL0 load(1, XDATA, add(CFA_XSP16, literal(-2)))
        CFI DPH0 load(1, XDATA, add(CFA_XSP16, literal(-1)))
        CFI R6 load(1, XDATA, add(CFA_XSP16, literal(-11)))
        CFI R7 load(1, XDATA, add(CFA_XSP16, literal(-6)))
        CFI V0 load(1, XDATA, add(CFA_XSP16, literal(-9)))
        CFI V1 load(1, XDATA, add(CFA_XSP16, literal(-8)))
        CFI V2 load(1, XDATA, add(CFA_XSP16, literal(-7)))
        CFI ?BRET_EXT load(1, XDATA, add(CFA_XSP16, literal(-3)))
        CFI ?RET_HIGH load(1, XDATA, add(CFA_XSP16, literal(-4)))
        CFI ?RET_LOW load(1, XDATA, add(CFA_XSP16, literal(-5)))
        MOV     R7,#0x3
        LJMP    ?BANKED_LEAVE_XDATA
        CFI EndBlock cfiBlock15

        RSEG BANKED_CODE:CODE:NOROOT(0)
?Subroutine7:
        CFI Block cfiCond16 Using cfiCommon0
        CFI NoFunction
        CFI Conditional ??CrossCallReturnLabel_2
        CFI R6 load(1, XDATA, add(CFA_XSP16, literal(-11)))
        CFI VB load(1, XDATA, add(CFA_XSP16, literal(-10)))
        CFI V0 load(1, XDATA, add(CFA_XSP16, literal(-9)))
        CFI V1 load(1, XDATA, add(CFA_XSP16, literal(-8)))
        CFI V2 load(1, XDATA, add(CFA_XSP16, literal(-7)))
        CFI R7 load(1, XDATA, add(CFA_XSP16, literal(-6)))
        CFI ?RET_LOW load(1, XDATA, add(CFA_XSP16, literal(-5)))
        CFI ?RET_HIGH load(1, XDATA, add(CFA_XSP16, literal(-4)))
        CFI ?BRET_EXT load(1, XDATA, add(CFA_XSP16, literal(-3)))
        CFI DPL0 load(1, XDATA, add(CFA_XSP16, literal(-2)))
        CFI DPH0 load(1, XDATA, add(CFA_XSP16, literal(-1)))
        CFI CFA_SP SP+0
        CFI CFA_XSP16 add(XSP16, 34)
        CFI Block cfiCond17 Using cfiCommon0
        CFI (cfiCond17) NoFunction
        CFI (cfiCond17) Conditional ??CrossCallReturnLabel_3
        CFI (cfiCond17) R6 load(1, XDATA, add(CFA_XSP16, literal(-11)))
        CFI (cfiCond17) VB load(1, XDATA, add(CFA_XSP16, literal(-10)))
        CFI (cfiCond17) V0 load(1, XDATA, add(CFA_XSP16, literal(-9)))
        CFI (cfiCond17) V1 load(1, XDATA, add(CFA_XSP16, literal(-8)))
        CFI (cfiCond17) V2 load(1, XDATA, add(CFA_XSP16, literal(-7)))
        CFI (cfiCond17) R7 load(1, XDATA, add(CFA_XSP16, literal(-6)))
        CFI (cfiCond17) ?RET_LOW load(1, XDATA, add(CFA_XSP16, literal(-5)))
        CFI (cfiCond17) ?RET_HIGH load(1, XDATA, add(CFA_XSP16, literal(-4)))
        CFI (cfiCond17) ?BRET_EXT load(1, XDATA, add(CFA_XSP16, literal(-3)))
        CFI (cfiCond17) DPL0 load(1, XDATA, add(CFA_XSP16, literal(-2)))
        CFI (cfiCond17) DPH0 load(1, XDATA, add(CFA_XSP16, literal(-1)))
        CFI (cfiCond17) CFA_SP SP+0
        CFI (cfiCond17) CFA_XSP16 add(XSP16, 34)
        CFI Block cfiCond18 Using cfiCommon0
        CFI (cfiCond18) NoFunction
        CFI (cfiCond18) Conditional ??CrossCallReturnLabel_4
        CFI (cfiCond18) R6 load(1, XDATA, add(CFA_XSP16, literal(-11)))
        CFI (cfiCond18) VB load(1, XDATA, add(CFA_XSP16, literal(-10)))
        CFI (cfiCond18) V0 load(1, XDATA, add(CFA_XSP16, literal(-9)))
        CFI (cfiCond18) V1 load(1, XDATA, add(CFA_XSP16, literal(-8)))
        CFI (cfiCond18) V2 load(1, XDATA, add(CFA_XSP16, literal(-7)))
        CFI (cfiCond18) R7 load(1, XDATA, add(CFA_XSP16, literal(-6)))
        CFI (cfiCond18) ?RET_LOW load(1, XDATA, add(CFA_XSP16, literal(-5)))
        CFI (cfiCond18) ?RET_HIGH load(1, XDATA, add(CFA_XSP16, literal(-4)))
        CFI (cfiCond18) ?BRET_EXT load(1, XDATA, add(CFA_XSP16, literal(-3)))
        CFI (cfiCond18) DPL0 load(1, XDATA, add(CFA_XSP16, literal(-2)))
        CFI (cfiCond18) DPH0 load(1, XDATA, add(CFA_XSP16, literal(-1)))
        CFI (cfiCond18) CFA_SP SP+0
        CFI (cfiCond18) CFA_XSP16 add(XSP16, 34)
        CFI Block cfiCond19 Using cfiCommon0
        CFI (cfiCond19) NoFunction
        CFI (cfiCond19) Conditional ??CrossCallReturnLabel_5
        CFI (cfiCond19) R6 load(1, XDATA, add(CFA_XSP16, literal(-11)))
        CFI (cfiCond19) VB load(1, XDATA, add(CFA_XSP16, literal(-10)))
        CFI (cfiCond19) V0 load(1, XDATA, add(CFA_XSP16, literal(-9)))
        CFI (cfiCond19) V1 load(1, XDATA, add(CFA_XSP16, literal(-8)))
        CFI (cfiCond19) V2 load(1, XDATA, add(CFA_XSP16, literal(-7)))
        CFI (cfiCond19) R7 load(1, XDATA, add(CFA_XSP16, literal(-6)))
        CFI (cfiCond19) ?RET_LOW load(1, XDATA, add(CFA_XSP16, literal(-5)))
        CFI (cfiCond19) ?RET_HIGH load(1, XDATA, add(CFA_XSP16, literal(-4)))
        CFI (cfiCond19) ?BRET_EXT load(1, XDATA, add(CFA_XSP16, literal(-3)))
        CFI (cfiCond19) DPL0 load(1, XDATA, add(CFA_XSP16, literal(-2)))
        CFI (cfiCond19) DPH0 load(1, XDATA, add(CFA_XSP16, literal(-1)))
        CFI (cfiCond19) CFA_SP SP+0
        CFI (cfiCond19) CFA_XSP16 add(XSP16, 34)
        CFI Block cfiCond20 Using cfiCommon0
        CFI (cfiCond20) NoFunction
        CFI (cfiCond20) Conditional ??CrossCallReturnLabel_6
        CFI (cfiCond20) R6 load(1, XDATA, add(CFA_XSP16, literal(-11)))
        CFI (cfiCond20) VB load(1, XDATA, add(CFA_XSP16, literal(-10)))
        CFI (cfiCond20) V0 load(1, XDATA, add(CFA_XSP16, literal(-9)))
        CFI (cfiCond20) V1 load(1, XDATA, add(CFA_XSP16, literal(-8)))
        CFI (cfiCond20) V2 load(1, XDATA, add(CFA_XSP16, literal(-7)))
        CFI (cfiCond20) R7 load(1, XDATA, add(CFA_XSP16, literal(-6)))
        CFI (cfiCond20) ?RET_LOW load(1, XDATA, add(CFA_XSP16, literal(-5)))
        CFI (cfiCond20) ?RET_HIGH load(1, XDATA, add(CFA_XSP16, literal(-4)))
        CFI (cfiCond20) ?BRET_EXT load(1, XDATA, add(CFA_XSP16, literal(-3)))
        CFI (cfiCond20) DPL0 load(1, XDATA, add(CFA_XSP16, literal(-2)))
        CFI (cfiCond20) DPH0 load(1, XDATA, add(CFA_XSP16, literal(-1)))
        CFI (cfiCond20) CFA_SP SP+0
        CFI (cfiCond20) CFA_XSP16 add(XSP16, 61)
        CFI Block cfiCond21 Using cfiCommon0
        CFI (cfiCond21) NoFunction
        CFI (cfiCond21) Conditional ??CrossCallReturnLabel_7
        CFI (cfiCond21) R6 load(1, XDATA, add(CFA_XSP16, literal(-11)))
        CFI (cfiCond21) VB load(1, XDATA, add(CFA_XSP16, literal(-10)))
        CFI (cfiCond21) V0 load(1, XDATA, add(CFA_XSP16, literal(-9)))
        CFI (cfiCond21) V1 load(1, XDATA, add(CFA_XSP16, literal(-8)))
        CFI (cfiCond21) V2 load(1, XDATA, add(CFA_XSP16, literal(-7)))
        CFI (cfiCond21) R7 load(1, XDATA, add(CFA_XSP16, literal(-6)))
        CFI (cfiCond21) ?RET_LOW load(1, XDATA, add(CFA_XSP16, literal(-5)))
        CFI (cfiCond21) ?RET_HIGH load(1, XDATA, add(CFA_XSP16, literal(-4)))
        CFI (cfiCond21) ?BRET_EXT load(1, XDATA, add(CFA_XSP16, literal(-3)))
        CFI (cfiCond21) DPL0 load(1, XDATA, add(CFA_XSP16, literal(-2)))
        CFI (cfiCond21) DPH0 load(1, XDATA, add(CFA_XSP16, literal(-1)))
        CFI (cfiCond21) CFA_SP SP+0
        CFI (cfiCond21) CFA_XSP16 add(XSP16, 61)
        CFI Block cfiCond22 Using cfiCommon0
        CFI (cfiCond22) NoFunction
        CFI (cfiCond22) Conditional ??CrossCallReturnLabel_8
        CFI (cfiCond22) R6 load(1, XDATA, add(CFA_XSP16, literal(-11)))
        CFI (cfiCond22) VB load(1, XDATA, add(CFA_XSP16, literal(-10)))
        CFI (cfiCond22) V0 load(1, XDATA, add(CFA_XSP16, literal(-9)))
        CFI (cfiCond22) V1 load(1, XDATA, add(CFA_XSP16, literal(-8)))
        CFI (cfiCond22) V2 load(1, XDATA, add(CFA_XSP16, literal(-7)))
        CFI (cfiCond22) R7 load(1, XDATA, add(CFA_XSP16, literal(-6)))
        CFI (cfiCond22) ?RET_LOW load(1, XDATA, add(CFA_XSP16, literal(-5)))
        CFI (cfiCond22) ?RET_HIGH load(1, XDATA, add(CFA_XSP16, literal(-4)))
        CFI (cfiCond22) ?BRET_EXT load(1, XDATA, add(CFA_XSP16, literal(-3)))
        CFI (cfiCond22) DPL0 load(1, XDATA, add(CFA_XSP16, literal(-2)))
        CFI (cfiCond22) DPH0 load(1, XDATA, add(CFA_XSP16, literal(-1)))
        CFI (cfiCond22) CFA_SP SP+0
        CFI (cfiCond22) CFA_XSP16 add(XSP16, 61)
        CFI Block cfiPicker23 Using cfiCommon1
        CFI (cfiPicker23) NoFunction
        CFI (cfiPicker23) Picker
        MOV     R2,DPL
        MOV     R3,DPH
        CFI EndBlock cfiCond16
        CFI EndBlock cfiCond17
        CFI EndBlock cfiCond18
        CFI EndBlock cfiCond19
        CFI EndBlock cfiCond20
        CFI EndBlock cfiCond21
        CFI EndBlock cfiCond22
        CFI EndBlock cfiPicker23
        REQUIRE ??Subroutine9_0
        ; // Fall through to label ??Subroutine9_0

        RSEG BANKED_CODE:CODE:NOROOT(0)
??Subroutine9_0:
        CFI Block cfiCond24 Using cfiCommon0
        CFI NoFunction
        CFI Conditional ??CrossCallReturnLabel_9
        CFI R6 load(1, XDATA, add(CFA_XSP16, literal(-11)))
        CFI VB load(1, XDATA, add(CFA_XSP16, literal(-10)))
        CFI V0 load(1, XDATA, add(CFA_XSP16, literal(-9)))
        CFI V1 load(1, XDATA, add(CFA_XSP16, literal(-8)))
        CFI V2 load(1, XDATA, add(CFA_XSP16, literal(-7)))
        CFI R7 load(1, XDATA, add(CFA_XSP16, literal(-6)))
        CFI ?RET_LOW load(1, XDATA, add(CFA_XSP16, literal(-5)))
        CFI ?RET_HIGH load(1, XDATA, add(CFA_XSP16, literal(-4)))
        CFI ?BRET_EXT load(1, XDATA, add(CFA_XSP16, literal(-3)))
        CFI DPL0 load(1, XDATA, add(CFA_XSP16, literal(-2)))
        CFI DPH0 load(1, XDATA, add(CFA_XSP16, literal(-1)))
        CFI CFA_SP SP+0
        CFI CFA_XSP16 add(XSP16, 61)
        CFI Block cfiCond25 Using cfiCommon0
        CFI (cfiCond25) NoFunction
        CFI (cfiCond25) Conditional ??CrossCallReturnLabel_2
        CFI (cfiCond25) R6 load(1, XDATA, add(CFA_XSP16, literal(-11)))
        CFI (cfiCond25) VB load(1, XDATA, add(CFA_XSP16, literal(-10)))
        CFI (cfiCond25) V0 load(1, XDATA, add(CFA_XSP16, literal(-9)))
        CFI (cfiCond25) V1 load(1, XDATA, add(CFA_XSP16, literal(-8)))
        CFI (cfiCond25) V2 load(1, XDATA, add(CFA_XSP16, literal(-7)))
        CFI (cfiCond25) R7 load(1, XDATA, add(CFA_XSP16, literal(-6)))
        CFI (cfiCond25) ?RET_LOW load(1, XDATA, add(CFA_XSP16, literal(-5)))
        CFI (cfiCond25) ?RET_HIGH load(1, XDATA, add(CFA_XSP16, literal(-4)))
        CFI (cfiCond25) ?BRET_EXT load(1, XDATA, add(CFA_XSP16, literal(-3)))
        CFI (cfiCond25) DPL0 load(1, XDATA, add(CFA_XSP16, literal(-2)))
        CFI (cfiCond25) DPH0 load(1, XDATA, add(CFA_XSP16, literal(-1)))
        CFI (cfiCond25) CFA_SP SP+0
        CFI (cfiCond25) CFA_XSP16 add(XSP16, 34)
        CFI Block cfiCond26 Using cfiCommon0
        CFI (cfiCond26) NoFunction
        CFI (cfiCond26) Conditional ??CrossCallReturnLabel_3
        CFI (cfiCond26) R6 load(1, XDATA, add(CFA_XSP16, literal(-11)))
        CFI (cfiCond26) VB load(1, XDATA, add(CFA_XSP16, literal(-10)))
        CFI (cfiCond26) V0 load(1, XDATA, add(CFA_XSP16, literal(-9)))
        CFI (cfiCond26) V1 load(1, XDATA, add(CFA_XSP16, literal(-8)))
        CFI (cfiCond26) V2 load(1, XDATA, add(CFA_XSP16, literal(-7)))
        CFI (cfiCond26) R7 load(1, XDATA, add(CFA_XSP16, literal(-6)))
        CFI (cfiCond26) ?RET_LOW load(1, XDATA, add(CFA_XSP16, literal(-5)))
        CFI (cfiCond26) ?RET_HIGH load(1, XDATA, add(CFA_XSP16, literal(-4)))
        CFI (cfiCond26) ?BRET_EXT load(1, XDATA, add(CFA_XSP16, literal(-3)))
        CFI (cfiCond26) DPL0 load(1, XDATA, add(CFA_XSP16, literal(-2)))
        CFI (cfiCond26) DPH0 load(1, XDATA, add(CFA_XSP16, literal(-1)))
        CFI (cfiCond26) CFA_SP SP+0
        CFI (cfiCond26) CFA_XSP16 add(XSP16, 34)
        CFI Block cfiCond27 Using cfiCommon0
        CFI (cfiCond27) NoFunction
        CFI (cfiCond27) Conditional ??CrossCallReturnLabel_4
        CFI (cfiCond27) R6 load(1, XDATA, add(CFA_XSP16, literal(-11)))
        CFI (cfiCond27) VB load(1, XDATA, add(CFA_XSP16, literal(-10)))
        CFI (cfiCond27) V0 load(1, XDATA, add(CFA_XSP16, literal(-9)))
        CFI (cfiCond27) V1 load(1, XDATA, add(CFA_XSP16, literal(-8)))
        CFI (cfiCond27) V2 load(1, XDATA, add(CFA_XSP16, literal(-7)))
        CFI (cfiCond27) R7 load(1, XDATA, add(CFA_XSP16, literal(-6)))
        CFI (cfiCond27) ?RET_LOW load(1, XDATA, add(CFA_XSP16, literal(-5)))
        CFI (cfiCond27) ?RET_HIGH load(1, XDATA, add(CFA_XSP16, literal(-4)))
        CFI (cfiCond27) ?BRET_EXT load(1, XDATA, add(CFA_XSP16, literal(-3)))
        CFI (cfiCond27) DPL0 load(1, XDATA, add(CFA_XSP16, literal(-2)))
        CFI (cfiCond27) DPH0 load(1, XDATA, add(CFA_XSP16, literal(-1)))
        CFI (cfiCond27) CFA_SP SP+0
        CFI (cfiCond27) CFA_XSP16 add(XSP16, 34)
        CFI Block cfiCond28 Using cfiCommon0
        CFI (cfiCond28) NoFunction
        CFI (cfiCond28) Conditional ??CrossCallReturnLabel_5
        CFI (cfiCond28) R6 load(1, XDATA, add(CFA_XSP16, literal(-11)))
        CFI (cfiCond28) VB load(1, XDATA, add(CFA_XSP16, literal(-10)))
        CFI (cfiCond28) V0 load(1, XDATA, add(CFA_XSP16, literal(-9)))
        CFI (cfiCond28) V1 load(1, XDATA, add(CFA_XSP16, literal(-8)))
        CFI (cfiCond28) V2 load(1, XDATA, add(CFA_XSP16, literal(-7)))
        CFI (cfiCond28) R7 load(1, XDATA, add(CFA_XSP16, literal(-6)))
        CFI (cfiCond28) ?RET_LOW load(1, XDATA, add(CFA_XSP16, literal(-5)))
        CFI (cfiCond28) ?RET_HIGH load(1, XDATA, add(CFA_XSP16, literal(-4)))
        CFI (cfiCond28) ?BRET_EXT load(1, XDATA, add(CFA_XSP16, literal(-3)))
        CFI (cfiCond28) DPL0 load(1, XDATA, add(CFA_XSP16, literal(-2)))
        CFI (cfiCond28) DPH0 load(1, XDATA, add(CFA_XSP16, literal(-1)))
        CFI (cfiCond28) CFA_SP SP+0
        CFI (cfiCond28) CFA_XSP16 add(XSP16, 34)
        CFI Block cfiCond29 Using cfiCommon0
        CFI (cfiCond29) NoFunction
        CFI (cfiCond29) Conditional ??CrossCallReturnLabel_6
        CFI (cfiCond29) R6 load(1, XDATA, add(CFA_XSP16, literal(-11)))
        CFI (cfiCond29) VB load(1, XDATA, add(CFA_XSP16, literal(-10)))
        CFI (cfiCond29) V0 load(1, XDATA, add(CFA_XSP16, literal(-9)))
        CFI (cfiCond29) V1 load(1, XDATA, add(CFA_XSP16, literal(-8)))
        CFI (cfiCond29) V2 load(1, XDATA, add(CFA_XSP16, literal(-7)))
        CFI (cfiCond29) R7 load(1, XDATA, add(CFA_XSP16, literal(-6)))
        CFI (cfiCond29) ?RET_LOW load(1, XDATA, add(CFA_XSP16, literal(-5)))
        CFI (cfiCond29) ?RET_HIGH load(1, XDATA, add(CFA_XSP16, literal(-4)))
        CFI (cfiCond29) ?BRET_EXT load(1, XDATA, add(CFA_XSP16, literal(-3)))
        CFI (cfiCond29) DPL0 load(1, XDATA, add(CFA_XSP16, literal(-2)))
        CFI (cfiCond29) DPH0 load(1, XDATA, add(CFA_XSP16, literal(-1)))
        CFI (cfiCond29) CFA_SP SP+0
        CFI (cfiCond29) CFA_XSP16 add(XSP16, 61)
        CFI Block cfiCond30 Using cfiCommon0
        CFI (cfiCond30) NoFunction
        CFI (cfiCond30) Conditional ??CrossCallReturnLabel_7
        CFI (cfiCond30) R6 load(1, XDATA, add(CFA_XSP16, literal(-11)))
        CFI (cfiCond30) VB load(1, XDATA, add(CFA_XSP16, literal(-10)))
        CFI (cfiCond30) V0 load(1, XDATA, add(CFA_XSP16, literal(-9)))
        CFI (cfiCond30) V1 load(1, XDATA, add(CFA_XSP16, literal(-8)))
        CFI (cfiCond30) V2 load(1, XDATA, add(CFA_XSP16, literal(-7)))
        CFI (cfiCond30) R7 load(1, XDATA, add(CFA_XSP16, literal(-6)))
        CFI (cfiCond30) ?RET_LOW load(1, XDATA, add(CFA_XSP16, literal(-5)))
        CFI (cfiCond30) ?RET_HIGH load(1, XDATA, add(CFA_XSP16, literal(-4)))
        CFI (cfiCond30) ?BRET_EXT load(1, XDATA, add(CFA_XSP16, literal(-3)))
        CFI (cfiCond30) DPL0 load(1, XDATA, add(CFA_XSP16, literal(-2)))
        CFI (cfiCond30) DPH0 load(1, XDATA, add(CFA_XSP16, literal(-1)))
        CFI (cfiCond30) CFA_SP SP+0
        CFI (cfiCond30) CFA_XSP16 add(XSP16, 61)
        CFI Block cfiCond31 Using cfiCommon0
        CFI (cfiCond31) NoFunction
        CFI (cfiCond31) Conditional ??CrossCallReturnLabel_8
        CFI (cfiCond31) R6 load(1, XDATA, add(CFA_XSP16, literal(-11)))
        CFI (cfiCond31) VB load(1, XDATA, add(CFA_XSP16, literal(-10)))
        CFI (cfiCond31) V0 load(1, XDATA, add(CFA_XSP16, literal(-9)))
        CFI (cfiCond31) V1 load(1, XDATA, add(CFA_XSP16, literal(-8)))
        CFI (cfiCond31) V2 load(1, XDATA, add(CFA_XSP16, literal(-7)))
        CFI (cfiCond31) R7 load(1, XDATA, add(CFA_XSP16, literal(-6)))
        CFI (cfiCond31) ?RET_LOW load(1, XDATA, add(CFA_XSP16, literal(-5)))
        CFI (cfiCond31) ?RET_HIGH load(1, XDATA, add(CFA_XSP16, literal(-4)))
        CFI (cfiCond31) ?BRET_EXT load(1, XDATA, add(CFA_XSP16, literal(-3)))
        CFI (cfiCond31) DPL0 load(1, XDATA, add(CFA_XSP16, literal(-2)))
        CFI (cfiCond31) DPH0 load(1, XDATA, add(CFA_XSP16, literal(-1)))
        CFI (cfiCond31) CFA_SP SP+0
        CFI (cfiCond31) CFA_XSP16 add(XSP16, 61)
        CFI Block cfiPicker32 Using cfiCommon1
        CFI (cfiPicker32) NoFunction
        CFI (cfiPicker32) Picker
        LCALL   ??memcpy?relay
        MOV     A,#0x2
        RET
        CFI EndBlock cfiCond24
        CFI EndBlock cfiCond25
        CFI EndBlock cfiCond26
        CFI EndBlock cfiCond27
        CFI EndBlock cfiCond28
        CFI EndBlock cfiCond29
        CFI EndBlock cfiCond30
        CFI EndBlock cfiCond31
        CFI EndBlock cfiPicker32

        RSEG BANKED_CODE:CODE:NOROOT(0)
?Subroutine6:
        CFI Block cfiCond33 Using cfiCommon0
        CFI NoFunction
        CFI Conditional ??CrossCallReturnLabel_12
        CFI R6 load(1, XDATA, add(CFA_XSP16, literal(-12)))
        CFI VB load(1, XDATA, add(CFA_XSP16, literal(-11)))
        CFI V0 load(1, XDATA, add(CFA_XSP16, literal(-10)))
        CFI V1 load(1, XDATA, add(CFA_XSP16, literal(-9)))
        CFI V2 load(1, XDATA, add(CFA_XSP16, literal(-8)))
        CFI V3 load(1, XDATA, add(CFA_XSP16, literal(-7)))
        CFI R7 load(1, XDATA, add(CFA_XSP16, literal(-6)))
        CFI ?RET_LOW load(1, XDATA, add(CFA_XSP16, literal(-5)))
        CFI ?RET_HIGH load(1, XDATA, add(CFA_XSP16, literal(-4)))
        CFI ?BRET_EXT load(1, XDATA, add(CFA_XSP16, literal(-3)))
        CFI DPL0 load(1, XDATA, add(CFA_XSP16, literal(-2)))
        CFI DPH0 load(1, XDATA, add(CFA_XSP16, literal(-1)))
        CFI CFA_SP SP+0
        CFI CFA_XSP16 add(XSP16, 12)
        CFI Block cfiCond34 Using cfiCommon0
        CFI (cfiCond34) NoFunction
        CFI (cfiCond34) Conditional ??CrossCallReturnLabel_13
        CFI (cfiCond34) R6 load(1, XDATA, add(CFA_XSP16, literal(-12)))
        CFI (cfiCond34) VB load(1, XDATA, add(CFA_XSP16, literal(-11)))
        CFI (cfiCond34) V0 load(1, XDATA, add(CFA_XSP16, literal(-10)))
        CFI (cfiCond34) V1 load(1, XDATA, add(CFA_XSP16, literal(-9)))
        CFI (cfiCond34) V2 load(1, XDATA, add(CFA_XSP16, literal(-8)))
        CFI (cfiCond34) V3 load(1, XDATA, add(CFA_XSP16, literal(-7)))
        CFI (cfiCond34) R7 load(1, XDATA, add(CFA_XSP16, literal(-6)))
        CFI (cfiCond34) ?RET_LOW load(1, XDATA, add(CFA_XSP16, literal(-5)))
        CFI (cfiCond34) ?RET_HIGH load(1, XDATA, add(CFA_XSP16, literal(-4)))
        CFI (cfiCond34) ?BRET_EXT load(1, XDATA, add(CFA_XSP16, literal(-3)))
        CFI (cfiCond34) DPL0 load(1, XDATA, add(CFA_XSP16, literal(-2)))
        CFI (cfiCond34) DPH0 load(1, XDATA, add(CFA_XSP16, literal(-1)))
        CFI (cfiCond34) CFA_SP SP+0
        CFI (cfiCond34) CFA_XSP16 add(XSP16, 15)
        CFI Block cfiCond35 Using cfiCommon0
        CFI (cfiCond35) NoFunction
        CFI (cfiCond35) Conditional ??CrossCallReturnLabel_14
        CFI (cfiCond35) R6 load(1, XDATA, add(CFA_XSP16, literal(-12)))
        CFI (cfiCond35) VB load(1, XDATA, add(CFA_XSP16, literal(-11)))
        CFI (cfiCond35) V0 load(1, XDATA, add(CFA_XSP16, literal(-10)))
        CFI (cfiCond35) V1 load(1, XDATA, add(CFA_XSP16, literal(-9)))
        CFI (cfiCond35) V2 load(1, XDATA, add(CFA_XSP16, literal(-8)))
        CFI (cfiCond35) V3 load(1, XDATA, add(CFA_XSP16, literal(-7)))
        CFI (cfiCond35) R7 load(1, XDATA, add(CFA_XSP16, literal(-6)))
        CFI (cfiCond35) ?RET_LOW load(1, XDATA, add(CFA_XSP16, literal(-5)))
        CFI (cfiCond35) ?RET_HIGH load(1, XDATA, add(CFA_XSP16, literal(-4)))
        CFI (cfiCond35) ?BRET_EXT load(1, XDATA, add(CFA_XSP16, literal(-3)))
        CFI (cfiCond35) DPL0 load(1, XDATA, add(CFA_XSP16, literal(-2)))
        CFI (cfiCond35) DPH0 load(1, XDATA, add(CFA_XSP16, literal(-1)))
        CFI (cfiCond35) CFA_SP SP+0
        CFI (cfiCond35) CFA_XSP16 add(XSP16, 12)
        CFI Block cfiPicker36 Using cfiCommon1
        CFI (cfiPicker36) NoFunction
        CFI (cfiPicker36) Picker
        MOV     DPTR,#optData
        CFI EndBlock cfiCond33
        CFI EndBlock cfiCond34
        CFI EndBlock cfiCond35
        CFI EndBlock cfiPicker36
        REQUIRE ??Subroutine10_0
        ; // Fall through to label ??Subroutine10_0

        RSEG BANKED_CODE:CODE:NOROOT(0)
??Subroutine10_0:
        CFI Block cfiCond37 Using cfiCommon0
        CFI NoFunction
        CFI Conditional ??CrossCallReturnLabel_10
        CFI R6 load(1, XDATA, add(CFA_XSP16, literal(-14)))
        CFI VB load(1, XDATA, add(CFA_XSP16, literal(-13)))
        CFI V0 load(1, XDATA, add(CFA_XSP16, literal(-12)))
        CFI V1 load(1, XDATA, add(CFA_XSP16, literal(-11)))
        CFI V2 load(1, XDATA, add(CFA_XSP16, literal(-10)))
        CFI V3 load(1, XDATA, add(CFA_XSP16, literal(-9)))
        CFI V4 load(1, XDATA, add(CFA_XSP16, literal(-8)))
        CFI V5 load(1, XDATA, add(CFA_XSP16, literal(-7)))
        CFI R7 load(1, XDATA, add(CFA_XSP16, literal(-6)))
        CFI ?RET_LOW load(1, XDATA, add(CFA_XSP16, literal(-5)))
        CFI ?RET_HIGH load(1, XDATA, add(CFA_XSP16, literal(-4)))
        CFI ?BRET_EXT load(1, XDATA, add(CFA_XSP16, literal(-3)))
        CFI DPL0 load(1, XDATA, add(CFA_XSP16, literal(-2)))
        CFI DPH0 load(1, XDATA, add(CFA_XSP16, literal(-1)))
        CFI CFA_SP SP+0
        CFI CFA_XSP16 add(XSP16, 14)
        CFI Block cfiCond38 Using cfiCommon0
        CFI (cfiCond38) NoFunction
        CFI (cfiCond38) Conditional ??CrossCallReturnLabel_11
        CFI (cfiCond38) R6 load(1, XDATA, add(CFA_XSP16, literal(-11)))
        CFI (cfiCond38) VB load(1, XDATA, add(CFA_XSP16, literal(-10)))
        CFI (cfiCond38) V0 load(1, XDATA, add(CFA_XSP16, literal(-9)))
        CFI (cfiCond38) V1 load(1, XDATA, add(CFA_XSP16, literal(-8)))
        CFI (cfiCond38) V2 load(1, XDATA, add(CFA_XSP16, literal(-7)))
        CFI (cfiCond38) R7 load(1, XDATA, add(CFA_XSP16, literal(-6)))
        CFI (cfiCond38) ?RET_LOW load(1, XDATA, add(CFA_XSP16, literal(-5)))
        CFI (cfiCond38) ?RET_HIGH load(1, XDATA, add(CFA_XSP16, literal(-4)))
        CFI (cfiCond38) ?BRET_EXT load(1, XDATA, add(CFA_XSP16, literal(-3)))
        CFI (cfiCond38) DPL0 load(1, XDATA, add(CFA_XSP16, literal(-2)))
        CFI (cfiCond38) DPH0 load(1, XDATA, add(CFA_XSP16, literal(-1)))
        CFI (cfiCond38) CFA_SP SP+0
        CFI (cfiCond38) CFA_XSP16 add(XSP16, 32)
        CFI Block cfiCond39 Using cfiCommon0
        CFI (cfiCond39) NoFunction
        CFI (cfiCond39) Conditional ??CrossCallReturnLabel_12
        CFI (cfiCond39) R6 load(1, XDATA, add(CFA_XSP16, literal(-12)))
        CFI (cfiCond39) VB load(1, XDATA, add(CFA_XSP16, literal(-11)))
        CFI (cfiCond39) V0 load(1, XDATA, add(CFA_XSP16, literal(-10)))
        CFI (cfiCond39) V1 load(1, XDATA, add(CFA_XSP16, literal(-9)))
        CFI (cfiCond39) V2 load(1, XDATA, add(CFA_XSP16, literal(-8)))
        CFI (cfiCond39) V3 load(1, XDATA, add(CFA_XSP16, literal(-7)))
        CFI (cfiCond39) R7 load(1, XDATA, add(CFA_XSP16, literal(-6)))
        CFI (cfiCond39) ?RET_LOW load(1, XDATA, add(CFA_XSP16, literal(-5)))
        CFI (cfiCond39) ?RET_HIGH load(1, XDATA, add(CFA_XSP16, literal(-4)))
        CFI (cfiCond39) ?BRET_EXT load(1, XDATA, add(CFA_XSP16, literal(-3)))
        CFI (cfiCond39) DPL0 load(1, XDATA, add(CFA_XSP16, literal(-2)))
        CFI (cfiCond39) DPH0 load(1, XDATA, add(CFA_XSP16, literal(-1)))
        CFI (cfiCond39) CFA_SP SP+0
        CFI (cfiCond39) CFA_XSP16 add(XSP16, 12)
        CFI Block cfiCond40 Using cfiCommon0
        CFI (cfiCond40) NoFunction
        CFI (cfiCond40) Conditional ??CrossCallReturnLabel_13
        CFI (cfiCond40) R6 load(1, XDATA, add(CFA_XSP16, literal(-12)))
        CFI (cfiCond40) VB load(1, XDATA, add(CFA_XSP16, literal(-11)))
        CFI (cfiCond40) V0 load(1, XDATA, add(CFA_XSP16, literal(-10)))
        CFI (cfiCond40) V1 load(1, XDATA, add(CFA_XSP16, literal(-9)))
        CFI (cfiCond40) V2 load(1, XDATA, add(CFA_XSP16, literal(-8)))
        CFI (cfiCond40) V3 load(1, XDATA, add(CFA_XSP16, literal(-7)))
        CFI (cfiCond40) R7 load(1, XDATA, add(CFA_XSP16, literal(-6)))
        CFI (cfiCond40) ?RET_LOW load(1, XDATA, add(CFA_XSP16, literal(-5)))
        CFI (cfiCond40) ?RET_HIGH load(1, XDATA, add(CFA_XSP16, literal(-4)))
        CFI (cfiCond40) ?BRET_EXT load(1, XDATA, add(CFA_XSP16, literal(-3)))
        CFI (cfiCond40) DPL0 load(1, XDATA, add(CFA_XSP16, literal(-2)))
        CFI (cfiCond40) DPH0 load(1, XDATA, add(CFA_XSP16, literal(-1)))
        CFI (cfiCond40) CFA_SP SP+0
        CFI (cfiCond40) CFA_XSP16 add(XSP16, 15)
        CFI Block cfiCond41 Using cfiCommon0
        CFI (cfiCond41) NoFunction
        CFI (cfiCond41) Conditional ??CrossCallReturnLabel_14
        CFI (cfiCond41) R6 load(1, XDATA, add(CFA_XSP16, literal(-12)))
        CFI (cfiCond41) VB load(1, XDATA, add(CFA_XSP16, literal(-11)))
        CFI (cfiCond41) V0 load(1, XDATA, add(CFA_XSP16, literal(-10)))
        CFI (cfiCond41) V1 load(1, XDATA, add(CFA_XSP16, literal(-9)))
        CFI (cfiCond41) V2 load(1, XDATA, add(CFA_XSP16, literal(-8)))
        CFI (cfiCond41) V3 load(1, XDATA, add(CFA_XSP16, literal(-7)))
        CFI (cfiCond41) R7 load(1, XDATA, add(CFA_XSP16, literal(-6)))
        CFI (cfiCond41) ?RET_LOW load(1, XDATA, add(CFA_XSP16, literal(-5)))
        CFI (cfiCond41) ?RET_HIGH load(1, XDATA, add(CFA_XSP16, literal(-4)))
        CFI (cfiCond41) ?BRET_EXT load(1, XDATA, add(CFA_XSP16, literal(-3)))
        CFI (cfiCond41) DPL0 load(1, XDATA, add(CFA_XSP16, literal(-2)))
        CFI (cfiCond41) DPH0 load(1, XDATA, add(CFA_XSP16, literal(-1)))
        CFI (cfiCond41) CFA_SP SP+0
        CFI (cfiCond41) CFA_XSP16 add(XSP16, 12)
        CFI Block cfiPicker42 Using cfiCommon1
        CFI (cfiPicker42) NoFunction
        CFI (cfiPicker42) Picker
        MOVX    A,@DPTR
        MOV     R2,A
        INC     DPTR
        MOVX    A,@DPTR
        MOV     R3,A
        RET
        CFI EndBlock cfiCond37
        CFI EndBlock cfiCond38
        CFI EndBlock cfiCond39
        CFI EndBlock cfiCond40
        CFI EndBlock cfiCond41
        CFI EndBlock cfiPicker42
//  703 #endif
//  704 
//  705 

        RSEG BANKED_CODE:CODE:NOROOT(0)
//  706 void PermitJoin_Refresh(uint8 *data, uint8 length)
PermitJoin_Refresh:
        CFI Block cfiBlock43 Using cfiCommon0
        CFI Function PermitJoin_Refresh
        CODE
//  707 {
        FUNCALL PermitJoin_Refresh, memcpy
        LOCFRAME ISTACK, 0, STACK
        LOCFRAME PSTACK, 0, STACK
        LOCFRAME XSTACK, 61, STACK
        LOCFRAME IOVERLAY, 0, STATIC
        LOCFRAME DOVERLAY, 0, STATIC
        ARGFRAME ISTACK, 0, STACK
        ARGFRAME PSTACK, 0, STACK
        ARGFRAME XSTACK, 61, STACK
        ARGFRAME IOVERLAY, 0, STATIC
        ARGFRAME DOVERLAY, 0, STATIC
        FUNCALL PermitJoin_Refresh, memcpy
        LOCFRAME ISTACK, 0, STACK
        LOCFRAME PSTACK, 0, STACK
        LOCFRAME XSTACK, 61, STACK
        LOCFRAME IOVERLAY, 0, STATIC
        LOCFRAME DOVERLAY, 0, STATIC
        ARGFRAME ISTACK, 0, STACK
        ARGFRAME PSTACK, 0, STACK
        ARGFRAME XSTACK, 61, STACK
        ARGFRAME IOVERLAY, 0, STATIC
        ARGFRAME DOVERLAY, 0, STATIC
        FUNCALL PermitJoin_Refresh, memcpy
        LOCFRAME ISTACK, 0, STACK
        LOCFRAME PSTACK, 0, STACK
        LOCFRAME XSTACK, 61, STACK
        LOCFRAME IOVERLAY, 0, STATIC
        LOCFRAME DOVERLAY, 0, STATIC
        ARGFRAME ISTACK, 0, STACK
        ARGFRAME PSTACK, 0, STACK
        ARGFRAME XSTACK, 61, STACK
        ARGFRAME IOVERLAY, 0, STATIC
        ARGFRAME DOVERLAY, 0, STATIC
        FUNCALL PermitJoin_Refresh, memcpy
        LOCFRAME ISTACK, 0, STACK
        LOCFRAME PSTACK, 0, STACK
        LOCFRAME XSTACK, 61, STACK
        LOCFRAME IOVERLAY, 0, STATIC
        LOCFRAME DOVERLAY, 0, STATIC
        ARGFRAME ISTACK, 0, STACK
        ARGFRAME PSTACK, 0, STACK
        ARGFRAME XSTACK, 61, STACK
        ARGFRAME IOVERLAY, 0, STATIC
        ARGFRAME DOVERLAY, 0, STATIC
        FUNCALL PermitJoin_Refresh, HalUARTWrite
        LOCFRAME ISTACK, 0, STACK
        LOCFRAME PSTACK, 0, STACK
        LOCFRAME XSTACK, 59, STACK
        LOCFRAME IOVERLAY, 0, STATIC
        LOCFRAME DOVERLAY, 0, STATIC
        ARGFRAME ISTACK, 0, STACK
        ARGFRAME PSTACK, 0, STACK
        ARGFRAME XSTACK, 59, STACK
        ARGFRAME IOVERLAY, 0, STATIC
        ARGFRAME DOVERLAY, 0, STATIC
        MOV     A,#-0xb
        LCALL   ?BANKED_ENTER_XDATA
        CFI DPH0 load(1, XDATA, add(CFA_XSP16, literal(-1)))
        CFI DPL0 load(1, XDATA, add(CFA_XSP16, literal(-2)))
        CFI ?BRET_EXT load(1, XDATA, add(CFA_XSP16, literal(-3)))
        CFI ?RET_HIGH load(1, XDATA, add(CFA_XSP16, literal(-4)))
        CFI ?RET_LOW load(1, XDATA, add(CFA_XSP16, literal(-5)))
        CFI R7 load(1, XDATA, add(CFA_XSP16, literal(-6)))
        CFI V2 load(1, XDATA, add(CFA_XSP16, literal(-7)))
        CFI V1 load(1, XDATA, add(CFA_XSP16, literal(-8)))
        CFI V0 load(1, XDATA, add(CFA_XSP16, literal(-9)))
        CFI VB load(1, XDATA, add(CFA_XSP16, literal(-10)))
        CFI R6 load(1, XDATA, add(CFA_XSP16, literal(-11)))
        CFI CFA_SP SP+0
        CFI CFA_XSP16 add(XSP16, 11)
        ; Saved register size: 11
        ; Auto size: 48
        MOV     A,#-0x30
        LCALL   ?ALLOC_XSTACK8
        CFI CFA_XSP16 add(XSP16, 59)
        MOV     A,R2
        MOV     R6,A
        MOV     A,R3
        MOV     R7,A
        MOV     ?V0 + 2,R1
//  708     uint8 buf[48] = {0};
        MOV     DPL,?XSP + 0
        MOV     DPH,?XSP + 1
        MOV     R4,DPL
        MOV     R5,DPH
        MOV     DPH,#(`?<Constant {0}>_1` >> 8) & 0xff
        MOV     DPL,#`?<Constant {0}>_1` & 0xff
        MOV     A,#0x30
        LCALL   ?MOVE_LONG8_XDATA_XDATA
//  709 	memcpy(buf, FR_HEAD_UJ, 3);
        ; Setup parameters for call to function memcpy
        MOV     ?V0 + 0,#0x3
        MOV     ?V0 + 1,A
        MOV     R0,#?V0 + 0
        LCALL   ?PUSH_XSTACK_I_TWO
        CFI CFA_XSP16 add(XSP16, 61)
        MOV     R4,#`?<Constant "UJ:">` & 0xff
        MOV     R5,#(`?<Constant "UJ:">` >> 8) & 0xff
        MOV     A,#0x2
        LCALL   ?XSTACK_DISP0_8
        LCALL   ?Subroutine7 & 0xFFFF
??CrossCallReturnLabel_6:
        LCALL   ?DEALLOC_XSTACK8
        CFI CFA_XSP16 add(XSP16, 59)
//  710 	memcpy(buf+3, SHORT_ADDR_G, 4);
        ; Setup parameters for call to function memcpy
        MOV     ?V0 + 0,#0x4
        MOV     R0,#?V0 + 0
        LCALL   ?PUSH_XSTACK_I_TWO
        CFI CFA_XSP16 add(XSP16, 61)
        MOV     R4,#SHORT_ADDR_G & 0xff
        MOV     R5,#(SHORT_ADDR_G >> 8) & 0xff
        MOV     A,#0x5
        LCALL   ?XSTACK_DISP0_8
        LCALL   ?Subroutine7 & 0xFFFF
??CrossCallReturnLabel_7:
        LCALL   ?DEALLOC_XSTACK8
        CFI CFA_XSP16 add(XSP16, 59)
//  711 	memcpy(buf+7, data, length);
        ; Setup parameters for call to function memcpy
        MOV     ?V0 + 0,?V0 + 2
        MOV     R0,#?V0 + 0
        LCALL   ?PUSH_XSTACK_I_TWO
        CFI CFA_XSP16 add(XSP16, 61)
        MOV     A,R6
        MOV     R4,A
        MOV     A,R7
        MOV     R5,A
        MOV     A,#0x9
        LCALL   ?XSTACK_DISP0_8
        LCALL   ?Subroutine7 & 0xFFFF
??CrossCallReturnLabel_8:
        LCALL   ?DEALLOC_XSTACK8
        CFI CFA_XSP16 add(XSP16, 59)
//  712 	memcpy(buf+7+length, f_tail, 4);
        MOV     DPL,?V0 + 2
        MOV     R6,DPL
        ; Setup parameters for call to function memcpy
        MOV     ?V0 + 0,#0x4
        MOV     R0,#?V0 + 0
        LCALL   ?PUSH_XSTACK_I_TWO
        CFI CFA_XSP16 add(XSP16, 61)
        MOV     R4,#f_tail & 0xff
        MOV     R5,#(f_tail >> 8) & 0xff
        MOV     A,#0x2
        LCALL   ?XSTACK_DISP0_8
        MOV     A,DPL
        ADD     A,R6
        MOV     R0,A
        MOV     A,DPH
        ADDC    A,#0x0
        MOV     R1,A
        MOV     A,R0
        ADD     A,#0x7
        MOV     R2,A
        MOV     A,R1
        ADDC    A,#0x0
        MOV     R3,A
        LCALL   ??Subroutine9_0 & 0xFFFF
??CrossCallReturnLabel_9:
        LCALL   ?DEALLOC_XSTACK8
        CFI CFA_XSP16 add(XSP16, 59)
//  713 	
//  714 #ifdef SSA_CONNECTOR
//  715 	CommonApp_GetDevDataSend(buf, 11+length);
        ; Setup parameters for call to function HalUARTWrite
        MOV     A,R6
        ADD     A,#0xb
        MOV     R4,A
        CLR     A
        ADDC    A,#0x0
        MOV     R5,A
        MOV     DPL,?XSP + 0
        MOV     DPH,?XSP + 1
        MOV     R2,DPL
        MOV     R3,DPH
        MOV     R1,#0x0
        LCALL   ??HalUARTWrite?relay
//  716 #else
//  717 	CommonApp_SendTheMessage(COORDINATOR_ADDR, buf, 11+length);
//  718 #endif
//  719 }
        MOV     A,#0x30
        LJMP    ?Subroutine2 & 0xFFFF
        CFI EndBlock cfiBlock43
//  720 

        RSEG XDATA_Z:XDATA:NOROOT(0)
        DATA8
//  721 bool isPermitJoining = 0;
isPermitJoining:
        DS 1
        REQUIRE __INIT_XDATA_Z
//  722 #ifdef RTR_NWK

        RSEG BANKED_CODE:CODE:NOROOT(0)
//  723 void CommonApp_PermitJoiningLedIndicate(
CommonApp_PermitJoiningLedIndicate:
        CFI Block cfiBlock44 Using cfiCommon0
        CFI Function CommonApp_PermitJoiningLedIndicate
        CODE
//  724 				void *params, uint16 *duration, uint8 *count)
//  725 {
        FUNCALL CommonApp_PermitJoiningLedIndicate, HalLedSet
        LOCFRAME ISTACK, 2, STACK
        LOCFRAME PSTACK, 0, STACK
        LOCFRAME XSTACK, 0, STACK
        LOCFRAME IOVERLAY, 0, STATIC
        LOCFRAME DOVERLAY, 0, STATIC
        ARGFRAME ISTACK, 2, STACK
        ARGFRAME PSTACK, 0, STACK
        ARGFRAME XSTACK, 0, STACK
        ARGFRAME IOVERLAY, 0, STATIC
        ARGFRAME DOVERLAY, 0, STATIC
        FUNCALL CommonApp_PermitJoiningLedIndicate, HalLedSet
        LOCFRAME ISTACK, 2, STACK
        LOCFRAME PSTACK, 0, STACK
        LOCFRAME XSTACK, 0, STACK
        LOCFRAME IOVERLAY, 0, STATIC
        LOCFRAME DOVERLAY, 0, STATIC
        ARGFRAME ISTACK, 2, STACK
        ARGFRAME PSTACK, 0, STACK
        ARGFRAME XSTACK, 0, STACK
        ARGFRAME IOVERLAY, 0, STATIC
        ARGFRAME DOVERLAY, 0, STATIC
        PUSH    DPL
        CFI DPL0 Frame(CFA_SP, 4)
        CFI CFA_SP SP+-4
        PUSH    DPH
        CFI DPH0 Frame(CFA_SP, 5)
        CFI CFA_SP SP+-5
        ; Saved register size: 2
        ; Auto size: 0
//  726 	uint8 mode = (int)params;
//  727 	switch(mode)
        MOV     A,R2
        JZ      ??CommonApp_PermitJoiningLedIndicate_0
        DEC     A
        JNZ     ??CommonApp_PermitJoiningLedIndicate_1
//  728 	{
//  729 	case HAL_LED_MODE_ON:
//  730 		isPermitJoining = TRUE;
        MOV     DPTR,#isPermitJoining
        MOV     A,#0x1
        MOVX    @DPTR,A
//  731 #if (defined(HAL_MT7620_GPIO_MAP) && !(DEVICE_TYPE_ID==0xF0))  || (DEVICE_TYPE_ID==13)
//  732 		HalLedSet( HAL_LED_2,  mode);
//  733 #else
//  734 		HalLedSet( HAL_LED_1,  mode);
        ; Setup parameters for call to function HalLedSet
        MOV     R2,A
        MOV     R1,A
        SJMP    ??CommonApp_PermitJoiningLedIndicate_2
//  735 #endif
//  736 		break;
//  737 
//  738 	case HAL_LED_MODE_OFF:
//  739 		isPermitJoining = FALSE;
??CommonApp_PermitJoiningLedIndicate_0:
        MOV     DPTR,#isPermitJoining
        CLR     A
        MOVX    @DPTR,A
//  740 #if (defined(HAL_MT7620_GPIO_MAP) && !(DEVICE_TYPE_ID==0xF0))  || (DEVICE_TYPE_ID==13)
//  741 		HalLedSet( HAL_LED_2,  mode);
//  742 #else
//  743 		HalLedSet( HAL_LED_1,  mode);
        ; Setup parameters for call to function HalLedSet
        MOV     R2,A
        MOV     R1,#0x1
??CommonApp_PermitJoiningLedIndicate_2:
        LCALL   ??HalLedSet?relay
        CFI EndBlock cfiBlock44
//  744 #endif
//  745 		break;
//  746 	}
//  747 }
??CommonApp_PermitJoiningLedIndicate_1:
        REQUIRE ?Subroutine3
        ; // Fall through to label ?Subroutine3

        RSEG BANKED_CODE:CODE:NOROOT(0)
?Subroutine3:
        CFI Block cfiBlock45 Using cfiCommon0
        CFI NoFunction
        CFI CFA_SP SP+-5
        CFI DPL0 Frame(CFA_SP, 4)
        CFI DPH0 Frame(CFA_SP, 5)
        POP     DPH
        CFI CFA_SP SP+-4
        CFI DPH0 SameValue
        POP     DPL
        CFI CFA_SP SP+-3
        CFI DPL0 SameValue
        LJMP    ?BRET
        CFI EndBlock cfiBlock45
//  748 #endif
//  749 

        RSEG BANKED_CODE:CODE:NOROOT(0)
//  750 ZStatus_t CommonApp_PermitJoiningRequest( byte PermitDuration )
CommonApp_PermitJoiningRequest:
        CFI Block cfiBlock46 Using cfiCommon0
        CFI Function CommonApp_PermitJoiningRequest
        CODE
//  751 {
        FUNCALL CommonApp_PermitJoiningRequest, CommonApp_PermitJoiningLedIndicate
        LOCFRAME ISTACK, 0, STACK
        LOCFRAME PSTACK, 0, STACK
        LOCFRAME XSTACK, 12, STACK
        LOCFRAME IOVERLAY, 0, STATIC
        LOCFRAME DOVERLAY, 0, STATIC
        ARGFRAME ISTACK, 0, STACK
        ARGFRAME PSTACK, 0, STACK
        ARGFRAME XSTACK, 12, STACK
        ARGFRAME IOVERLAY, 0, STATIC
        ARGFRAME DOVERLAY, 0, STATIC
        FUNCALL CommonApp_PermitJoiningRequest, update_user_event
        LOCFRAME ISTACK, 0, STACK
        LOCFRAME PSTACK, 0, STACK
        LOCFRAME XSTACK, 15, STACK
        LOCFRAME IOVERLAY, 0, STATIC
        LOCFRAME DOVERLAY, 0, STATIC
        ARGFRAME ISTACK, 0, STACK
        ARGFRAME PSTACK, 0, STACK
        ARGFRAME XSTACK, 15, STACK
        ARGFRAME IOVERLAY, 0, STATIC
        ARGFRAME DOVERLAY, 0, STATIC
        FUNCALL CommonApp_PermitJoiningRequest, CommonApp_PermitJoiningLedIndicate
        LOCFRAME ISTACK, 0, STACK
        LOCFRAME PSTACK, 0, STACK
        LOCFRAME XSTACK, 12, STACK
        LOCFRAME IOVERLAY, 0, STATIC
        LOCFRAME DOVERLAY, 0, STATIC
        ARGFRAME ISTACK, 0, STACK
        ARGFRAME PSTACK, 0, STACK
        ARGFRAME XSTACK, 12, STACK
        ARGFRAME IOVERLAY, 0, STATIC
        ARGFRAME DOVERLAY, 0, STATIC
        FUNCALL CommonApp_PermitJoiningRequest, update_user_event
        LOCFRAME ISTACK, 0, STACK
        LOCFRAME PSTACK, 0, STACK
        LOCFRAME XSTACK, 15, STACK
        LOCFRAME IOVERLAY, 0, STATIC
        LOCFRAME DOVERLAY, 0, STATIC
        ARGFRAME ISTACK, 0, STACK
        ARGFRAME PSTACK, 0, STACK
        ARGFRAME XSTACK, 15, STACK
        ARGFRAME IOVERLAY, 0, STATIC
        ARGFRAME DOVERLAY, 0, STATIC
        FUNCALL CommonApp_PermitJoiningRequest, NLME_PermitJoiningRequest
        LOCFRAME ISTACK, 0, STACK
        LOCFRAME PSTACK, 0, STACK
        LOCFRAME XSTACK, 10, STACK
        LOCFRAME IOVERLAY, 0, STATIC
        LOCFRAME DOVERLAY, 0, STATIC
        ARGFRAME ISTACK, 0, STACK
        ARGFRAME PSTACK, 0, STACK
        ARGFRAME XSTACK, 10, STACK
        ARGFRAME IOVERLAY, 0, STATIC
        ARGFRAME DOVERLAY, 0, STATIC
        MOV     A,#-0xa
        LCALL   ?BANKED_ENTER_XDATA
        CFI DPH0 load(1, XDATA, add(CFA_XSP16, literal(-1)))
        CFI DPL0 load(1, XDATA, add(CFA_XSP16, literal(-2)))
        CFI ?BRET_EXT load(1, XDATA, add(CFA_XSP16, literal(-3)))
        CFI ?RET_HIGH load(1, XDATA, add(CFA_XSP16, literal(-4)))
        CFI ?RET_LOW load(1, XDATA, add(CFA_XSP16, literal(-5)))
        CFI R7 load(1, XDATA, add(CFA_XSP16, literal(-6)))
        CFI V1 load(1, XDATA, add(CFA_XSP16, literal(-7)))
        CFI V0 load(1, XDATA, add(CFA_XSP16, literal(-8)))
        CFI VB load(1, XDATA, add(CFA_XSP16, literal(-9)))
        CFI R6 load(1, XDATA, add(CFA_XSP16, literal(-10)))
        CFI CFA_SP SP+0
        CFI CFA_XSP16 add(XSP16, 10)
        ; Saved register size: 10
        ; Auto size: 0
        MOV     A,R1
        MOV     R6,A
//  752 #ifdef RTR_NWK
//  753 	if(PermitDuration)
        JZ      ??CommonApp_PermitJoiningRequest_0
//  754 	{
//  755 		CommonApp_PermitJoiningLedIndicate( (void *)HAL_LED_MODE_ON, NULL, NULL );
        ; Setup parameters for call to function CommonApp_PermitJoiningLedIndicate
        CLR     A
        MOV     ?V0 + 0,A
        MOV     ?V0 + 1,A
        MOV     R0,#?V0 + 0
        LCALL   ?PUSH_XSTACK_I_TWO
        CFI CFA_XSP16 add(XSP16, 12)
        MOV     R4,#0x0
        MOV     R5,#0x0
        MOV     R2,#0x1
        MOV     R3,#0x0
        LCALL   ??CommonApp_PermitJoiningLedIndicate?relay
        MOV     A,#0x2
        LCALL   ?DEALLOC_XSTACK8
        CFI CFA_XSP16 add(XSP16, 10)
//  756 		
//  757 		update_user_event(CommonApp_TaskID, PERMIT_JOIN_EVT, 
//  758 							CommonApp_PermitJoiningLedIndicate, 
//  759 	  						PermitDuration*1000, TIMER_ONE_EXECUTION, 
//  760 	  						(void *)HAL_LED_MODE_OFF);
        ; Setup parameters for call to function update_user_event
        MOV     R0,#?V0 + 0
        LCALL   ?PUSH_XSTACK_I_TWO
        CFI CFA_XSP16 add(XSP16, 12)
        MOV     ?V0 + 0,#0x1
        MOV     R0,#?V0 + 0
        LCALL   ?PUSH_XSTACK_I_ONE
        CFI CFA_XSP16 add(XSP16, 13)
        MOV     A,R6
        MOV     ?V0 + 0,A
        MOV     B,#-0x18
        MUL     AB
        XCH     A,?V0 + 0
        MOV     R0,B
        MOV     B,#0x3
        MUL     AB
        ADD     A,R0
        MOV     ?V0 + 1,A
        MOV     R0,#?V0 + 0
        LCALL   ?PUSH_XSTACK_I_TWO
        CFI CFA_XSP16 add(XSP16, 15)
        MOV     R4,#??CommonApp_PermitJoiningLedIndicate?relay & 0xff
        MOV     R5,#(??CommonApp_PermitJoiningLedIndicate?relay >> 8) & 0xff
        SJMP    ??CommonApp_PermitJoiningRequest_1
        CFI CFA_XSP16 add(XSP16, 10)
//  761 	}
//  762 	else
//  763 	{
//  764 		CommonApp_PermitJoiningLedIndicate( (void *)HAL_LED_MODE_OFF, NULL, NULL );
??CommonApp_PermitJoiningRequest_0:
        ; Setup parameters for call to function CommonApp_PermitJoiningLedIndicate
        CLR     A
        MOV     ?V0 + 0,A
        MOV     ?V0 + 1,A
        MOV     R0,#?V0 + 0
        LCALL   ?PUSH_XSTACK_I_TWO
        CFI CFA_XSP16 add(XSP16, 12)
        MOV     R4,#0x0
        MOV     R5,#0x0
        MOV     R2,#0x0
        MOV     R3,#0x0
        LCALL   ??CommonApp_PermitJoiningLedIndicate?relay
        MOV     A,#0x2
        LCALL   ?DEALLOC_XSTACK8
        CFI CFA_XSP16 add(XSP16, 10)
//  765 
//  766 		update_user_event(CommonApp_TaskID, PERMIT_JOIN_EVT, 
//  767 				NULL, TIMER_NO_LIMIT, TIMER_CLEAR_EXECUTION, NULL);
        ; Setup parameters for call to function update_user_event
        MOV     R0,#?V0 + 0
        LCALL   ?PUSH_XSTACK_I_TWO
        CFI CFA_XSP16 add(XSP16, 12)
        MOV     R0,#?V0 + 0
        LCALL   ?PUSH_XSTACK_I_ONE
        CFI CFA_XSP16 add(XSP16, 13)
        MOV     R0,#?V0 + 0
        LCALL   ?PUSH_XSTACK_I_TWO
        CFI CFA_XSP16 add(XSP16, 15)
        MOV     R4,#0x0
        MOV     R5,#0x0
??CommonApp_PermitJoiningRequest_1:
        MOV     R2,#0x4
        MOV     R3,#0x0
        MOV     DPTR,#CommonApp_TaskID
        MOVX    A,@DPTR
        MOV     R1,A
        LCALL   ??update_user_event?relay
        MOV     A,#0x5
        LCALL   ?DEALLOC_XSTACK8
        CFI CFA_XSP16 add(XSP16, 10)
//  768 	}
//  769 
//  770 	return NLME_PermitJoiningRequest(PermitDuration);
        ; Setup parameters for call to function NLME_PermitJoiningRequest
        MOV     A,R6
        MOV     R1,A
        LCALL   ??NLME_PermitJoiningRequest?relay
        CFI EndBlock cfiBlock46
        REQUIRE ?Subroutine4
        ; // Fall through to label ?Subroutine4
//  771 #else 
//  772 	return 0;
//  773 #endif
//  774 }

        RSEG BANKED_CODE:CODE:NOROOT(0)
?Subroutine4:
        CFI Block cfiBlock47 Using cfiCommon0
        CFI NoFunction
        CFI CFA_SP SP+0
        CFI CFA_XSP16 add(XSP16, 10)
        CFI VB load(1, XDATA, add(CFA_XSP16, literal(-9)))
        CFI DPL0 load(1, XDATA, add(CFA_XSP16, literal(-2)))
        CFI DPH0 load(1, XDATA, add(CFA_XSP16, literal(-1)))
        CFI R6 load(1, XDATA, add(CFA_XSP16, literal(-10)))
        CFI R7 load(1, XDATA, add(CFA_XSP16, literal(-6)))
        CFI V0 load(1, XDATA, add(CFA_XSP16, literal(-8)))
        CFI V1 load(1, XDATA, add(CFA_XSP16, literal(-7)))
        CFI ?BRET_EXT load(1, XDATA, add(CFA_XSP16, literal(-3)))
        CFI ?RET_HIGH load(1, XDATA, add(CFA_XSP16, literal(-4)))
        CFI ?RET_LOW load(1, XDATA, add(CFA_XSP16, literal(-5)))
        MOV     R7,#0x2
        LJMP    ?BANKED_LEAVE_XDATA
        CFI EndBlock cfiBlock47
//  775 
//  776 /*********************************************************************
//  777  * @fn      CommonApp_SendTheMessage
//  778  *
//  779  * @brief   Send "the" message.
//  780  *
//  781  * @param   none
//  782  *
//  783  * @return  none
//  784  */

        RSEG BANKED_CODE:CODE:NOROOT(0)
//  785 void CommonApp_SendTheMessage(uint16 dstNwkAddr, uint8 *data, uint8 length)
CommonApp_SendTheMessage:
        CFI Block cfiBlock48 Using cfiCommon0
        CFI Function CommonApp_SendTheMessage
        CODE
//  786 {
        FUNCALL CommonApp_SendTheMessage, AF_DataRequest
        LOCFRAME ISTACK, 0, STACK
        LOCFRAME PSTACK, 0, STACK
        LOCFRAME XSTACK, 19, STACK
        LOCFRAME IOVERLAY, 0, STATIC
        LOCFRAME DOVERLAY, 0, STATIC
        ARGFRAME ISTACK, 0, STACK
        ARGFRAME PSTACK, 0, STACK
        ARGFRAME XSTACK, 19, STACK
        ARGFRAME IOVERLAY, 0, STATIC
        ARGFRAME DOVERLAY, 0, STATIC
        MOV     A,#-0xa
        LCALL   ?BANKED_ENTER_XDATA
        CFI DPH0 load(1, XDATA, add(CFA_XSP16, literal(-1)))
        CFI DPL0 load(1, XDATA, add(CFA_XSP16, literal(-2)))
        CFI ?BRET_EXT load(1, XDATA, add(CFA_XSP16, literal(-3)))
        CFI ?RET_HIGH load(1, XDATA, add(CFA_XSP16, literal(-4)))
        CFI ?RET_LOW load(1, XDATA, add(CFA_XSP16, literal(-5)))
        CFI R7 load(1, XDATA, add(CFA_XSP16, literal(-6)))
        CFI V1 load(1, XDATA, add(CFA_XSP16, literal(-7)))
        CFI V0 load(1, XDATA, add(CFA_XSP16, literal(-8)))
        CFI VB load(1, XDATA, add(CFA_XSP16, literal(-9)))
        CFI R6 load(1, XDATA, add(CFA_XSP16, literal(-10)))
        CFI CFA_SP SP+0
        CFI CFA_XSP16 add(XSP16, 10)
        ; Saved register size: 10
        ; Auto size: 0
        MOV     A,R1
        MOV     R6,A
//  787   CommonApp_DstAddr.addrMode = (afAddrMode_t)Addr16Bit;
        MOV     DPTR,#CommonApp_DstAddr + 8
        MOV     A,#0x2
        MOVX    @DPTR,A
//  788   CommonApp_DstAddr.endPoint = COMMONAPP_ENDPOINT;
        INC     DPTR
        MOV     A,#0x10
        MOVX    @DPTR,A
//  789   CommonApp_DstAddr.addr.shortAddr = dstNwkAddr;
        MOV     DPTR,#CommonApp_DstAddr
        MOV     A,R2
        MOVX    @DPTR,A
        INC     DPTR
        MOV     A,R3
        MOVX    @DPTR,A
//  790   
//  791   AF_DataRequest( &CommonApp_DstAddr, &CommonApp_epDesc,
//  792                        COMMONAPP_CLUSTERID,
//  793                        length,
//  794                        data,
//  795                        &CommonApp_TransID,
//  796                        AF_DISCV_ROUTE, AF_DEFAULT_RADIUS );
        ; Setup parameters for call to function AF_DataRequest
        MOV     ?V0 + 0,#0x1e
        MOV     R0,#?V0 + 0
        LCALL   ?PUSH_XSTACK_I_ONE
        CFI CFA_XSP16 add(XSP16, 11)
        MOV     ?V0 + 0,#CommonApp_TransID & 0xff
        MOV     ?V0 + 1,#(CommonApp_TransID >> 8) & 0xff
        MOV     R0,#?V0 + 0
        LCALL   ?PUSH_XSTACK_I_TWO
        CFI CFA_XSP16 add(XSP16, 13)
        MOV     ?V0 + 0,R4
        MOV     ?V0 + 1,R5
        MOV     R0,#?V0 + 0
        LCALL   ?PUSH_XSTACK_I_TWO
        CFI CFA_XSP16 add(XSP16, 15)
        MOV     ?V0 + 0,R6
        MOV     ?V0 + 1,#0x0
        MOV     R0,#?V0 + 0
        LCALL   ?PUSH_XSTACK_I_TWO
        CFI CFA_XSP16 add(XSP16, 17)
        MOV     ?V0 + 0,#0x1
        MOV     R0,#?V0 + 0
        LCALL   ?PUSH_XSTACK_I_TWO
        CFI CFA_XSP16 add(XSP16, 19)
        MOV     R1,#0x20
        MOV     R4,#CommonApp_epDesc & 0xff
        MOV     R5,#(CommonApp_epDesc >> 8) & 0xff
        MOV     R2,#CommonApp_DstAddr & 0xff
        MOV     R3,#(CommonApp_DstAddr >> 8) & 0xff
        LCALL   ??AF_DataRequest?relay
        MOV     A,#0x9
        LCALL   ?DEALLOC_XSTACK8
        CFI CFA_XSP16 add(XSP16, 10)
//  797 }
        SJMP    ?Subroutine4
        CFI EndBlock cfiBlock48
//  798 

        RSEG BANKED_CODE:CODE:NOROOT(0)
//  799 void CommonApp_GetDevDataSend(uint8 *buf, uint16 len)
CommonApp_GetDevDataSend:
        CFI Block cfiBlock49 Using cfiCommon0
        CFI Function CommonApp_GetDevDataSend
        CODE
//  800 {
        FUNCALL CommonApp_GetDevDataSend, HalUARTWrite
        LOCFRAME ISTACK, 2, STACK
        LOCFRAME PSTACK, 0, STACK
        LOCFRAME XSTACK, 0, STACK
        LOCFRAME IOVERLAY, 0, STATIC
        LOCFRAME DOVERLAY, 0, STATIC
        ARGFRAME ISTACK, 2, STACK
        ARGFRAME PSTACK, 0, STACK
        ARGFRAME XSTACK, 0, STACK
        ARGFRAME IOVERLAY, 0, STATIC
        ARGFRAME DOVERLAY, 0, STATIC
        PUSH    DPL
        CFI DPL0 Frame(CFA_SP, 4)
        CFI CFA_SP SP+-4
        PUSH    DPH
        CFI DPH0 Frame(CFA_SP, 5)
        CFI CFA_SP SP+-5
        ; Saved register size: 2
        ; Auto size: 0
//  801 #if (HAL_UART==TRUE)
//  802   #ifndef HAL_UART01_BOTH
//  803         
//  804 	HalUARTWrite(SERIAL_COM_PORT, buf, len);
        ; Setup parameters for call to function HalUARTWrite
        MOV     R1,#0x0
        LCALL   ??HalUARTWrite?relay
//  805   #else
//  806   	HalUARTWrite(SERIAL_COM_PORT1, buf, len);
//  807   #endif
//  808 #endif
//  809 }
        LJMP    ?Subroutine3 & 0xFFFF
        CFI EndBlock cfiBlock49
//  810 

        RSEG BANKED_CODE:CODE:NOROOT(0)
//  811 void RS485_GetDevDataSend(uint8 *buf, uint16 len)
RS485_GetDevDataSend:
        CFI Block cfiBlock50 Using cfiCommon0
        CFI Function RS485_GetDevDataSend
        CODE
//  812 {
        FUNCALL RS485_GetDevDataSend, setNodeList
        LOCFRAME ISTACK, 2, STACK
        LOCFRAME PSTACK, 0, STACK
        LOCFRAME XSTACK, 0, STACK
        LOCFRAME IOVERLAY, 0, STATIC
        LOCFRAME DOVERLAY, 0, STATIC
        ARGFRAME ISTACK, 2, STACK
        ARGFRAME PSTACK, 0, STACK
        ARGFRAME XSTACK, 0, STACK
        ARGFRAME IOVERLAY, 0, STATIC
        ARGFRAME DOVERLAY, 0, STATIC
        FUNCALL RS485_GetDevDataSend, HalUARTWrite
        LOCFRAME ISTACK, 2, STACK
        LOCFRAME PSTACK, 0, STACK
        LOCFRAME XSTACK, 0, STACK
        LOCFRAME IOVERLAY, 0, STATIC
        LOCFRAME DOVERLAY, 0, STATIC
        ARGFRAME ISTACK, 2, STACK
        ARGFRAME PSTACK, 0, STACK
        ARGFRAME XSTACK, 0, STACK
        ARGFRAME IOVERLAY, 0, STATIC
        ARGFRAME DOVERLAY, 0, STATIC
        PUSH    DPL
        CFI DPL0 Frame(CFA_SP, 4)
        CFI CFA_SP SP+-4
        PUSH    DPH
        CFI DPH0 Frame(CFA_SP, 5)
        CFI CFA_SP SP+-5
        ; Saved register size: 2
        ; Auto size: 0
//  813   uint8 lenght = len;
//  814 
//  815   if(lenght==3)
        MOV     A,R4
        XRL     A,#0x3
        JNZ     ??RS485_GetDevDataSend_0
//  816   {
//  817    //≈–∂œ «∑Ò «‘⁄¡¥±Ì÷–
//  818     setNodeList(buf,len);
        ; Setup parameters for call to function setNodeList
        LCALL   ??setNodeList?relay
        SJMP    ??RS485_GetDevDataSend_1
//  819   }
//  820   else
//  821   HalUARTWrite(SERIAL_COM_PORT, buf, len);
??RS485_GetDevDataSend_0:
        ; Setup parameters for call to function HalUARTWrite
        MOV     R1,#0x0
        LCALL   ??HalUARTWrite?relay
//  822 }
??RS485_GetDevDataSend_1:
        LJMP    ?Subroutine3 & 0xFFFF
        CFI EndBlock cfiBlock50

        RSEG XDATA_ID:CODE:NOROOT(0)
`?<Initializer for isFirstState>`:
        DATA8
        DB 1

        RSEG BANK_RELAYS:CODE:REORDER:NOROOT(0)
??CommonApp_Init?relay:
        LCALL   ?BDISPATCH
        DATA
        DC24    CommonApp_Init

        RSEG BANK_RELAYS:CODE:REORDER:NOROOT(0)
??CommonApp_ProcessEvent?relay:
        LCALL   ?BDISPATCH
        DATA
        DC24    CommonApp_ProcessEvent

        RSEG BANK_RELAYS:CODE:REORDER:NOROOT(0)
??CommonApp_HandleKeys?relay:
        LCALL   ?BDISPATCH
        DATA
        DC24    CommonApp_HandleKeys

        RSEG BANK_RELAYS:CODE:REORDER:NOROOT(0)
??CommonApp_GetDeviceInfo?relay:
        LCALL   ?BDISPATCH
        DATA
        DC24    CommonApp_GetDeviceInfo

        RSEG BANK_RELAYS:CODE:REORDER:NOROOT(0)
??CommonDevice_SetData?relay:
        LCALL   ?BDISPATCH
        DATA
        DC24    CommonDevice_SetData

        RSEG BANK_RELAYS:CODE:REORDER:NOROOT(0)
??CommonDevice_GetData?relay:
        LCALL   ?BDISPATCH
        DATA
        DC24    CommonDevice_GetData

        RSEG BANK_RELAYS:CODE:REORDER:NOROOT(0)
??CommonApp_CmdPeroidCB?relay:
        LCALL   ?BDISPATCH
        DATA
        DC24    CommonApp_CmdPeroidCB

        RSEG BANK_RELAYS:CODE:REORDER:NOROOT(0)
??DataCmd_Ctrl?relay:
        LCALL   ?BDISPATCH
        DATA
        DC24    DataCmd_Ctrl

        RSEG BANK_RELAYS:CODE:REORDER:NOROOT(0)
??Update_Refresh?relay:
        LCALL   ?BDISPATCH
        DATA
        DC24    Update_Refresh

        RSEG BANK_RELAYS:CODE:REORDER:NOROOT(0)
??PermitJoin_Refresh?relay:
        LCALL   ?BDISPATCH
        DATA
        DC24    PermitJoin_Refresh

        RSEG BANK_RELAYS:CODE:REORDER:NOROOT(0)
??CommonApp_PermitJoiningLedIndicate?relay:
        LCALL   ?BDISPATCH
        DATA
        DC24    CommonApp_PermitJoiningLedIndicate

        RSEG BANK_RELAYS:CODE:REORDER:NOROOT(0)
??CommonApp_PermitJoiningRequest?relay:
        LCALL   ?BDISPATCH
        DATA
        DC24    CommonApp_PermitJoiningRequest

        RSEG BANK_RELAYS:CODE:REORDER:NOROOT(0)
??CommonApp_SendTheMessage?relay:
        LCALL   ?BDISPATCH
        DATA
        DC24    CommonApp_SendTheMessage

        RSEG BANK_RELAYS:CODE:REORDER:NOROOT(0)
??CommonApp_GetDevDataSend?relay:
        LCALL   ?BDISPATCH
        DATA
        DC24    CommonApp_GetDevDataSend

        RSEG BANK_RELAYS:CODE:REORDER:NOROOT(0)
??RS485_GetDevDataSend?relay:
        LCALL   ?BDISPATCH
        DATA
        DC24    RS485_GetDevDataSend

        RSEG XDATA_ROM_C:CONST:REORDER:NOROOT(0)
        DATA8
`?<Constant {0}>`:
        DB 0
        DB 0, 0, 0, 0, 0, 0, 0, 0
        DB 0, 0, 0, 0, 0, 0, 0, 0
        DB 0, 0, 0, 0, 0, 0, 0, 0
        DB 0, 0, 0, 0, 0, 0, 0, 0
        DB 0, 0, 0, 0, 0, 0, 0, 0
        DB 0, 0, 0, 0, 0, 0, 0, 0
        DB 0, 0, 0, 0, 0, 0, 0, 0
        DB 0, 0, 0, 0, 0, 0, 0, 0
        DB 0, 0, 0, 0, 0, 0, 0, 0
        DB 0, 0, 0, 0, 0, 0, 0, 0
        DB 0, 0, 0, 0, 0, 0, 0, 0
        DB 0, 0, 0, 0, 0, 0, 0, 0
        DB 0, 0, 0, 0, 0, 0, 0, 0
        DB 0, 0, 0, 0, 0, 0, 0, 0
        DB 0, 0, 0, 0, 0, 0, 0, 0
        DB 0, 0, 0, 0, 0, 0, 0

        RSEG XDATA_ROM_C:CONST:REORDER:NOROOT(0)
        DATA32
`?<Constant "UR:">`:
        DB "UR:"

        RSEG XDATA_ROM_C:CONST:REORDER:NOROOT(0)
        DATA8
`?<Constant "FE">`:
        DB "FE"

        RSEG XDATA_ROM_C:CONST:REORDER:NOROOT(0)
        DATA8
`?<Constant {0}>_1`:
        DB 0
        DB 0, 0, 0, 0, 0, 0, 0, 0
        DB 0, 0, 0, 0, 0, 0, 0, 0
        DB 0, 0, 0, 0, 0, 0, 0, 0
        DB 0, 0, 0, 0, 0, 0, 0, 0
        DB 0, 0, 0, 0, 0, 0, 0, 0
        DB 0, 0, 0, 0, 0, 0, 0

        RSEG XDATA_ROM_C:CONST:REORDER:NOROOT(0)
        DATA32
`?<Constant "UJ:">`:
        DB "UJ:"

        END
// 
// 1 779 bytes in segment BANKED_CODE
//    90 bytes in segment BANK_RELAYS
//     1 byte  in segment XDATA_I
//     1 byte  in segment XDATA_ID
//   203 bytes in segment XDATA_ROM_C
//    58 bytes in segment XDATA_Z
// 
// 1 870 bytes of CODE  memory
//   203 bytes of CONST memory
//    59 bytes of XDATA memory
//
//Errors: none
//Warnings: none
