///////////////////////////////////////////////////////////////////////////////
//                                                                            /
// IAR C/C++ Compiler V8.10.1.10194/W32 for 8051        01/Dec/2016  17:11:16 /
// Copyright 2004-2011 IAR Systems AB.                                        /
//                                                                            /
//    Core               =  plain                                             /
//    Code model         =  banked                                            /
//    Data model         =  large                                             /
//    Calling convention =  xdata reentrant                                   /
//    Constant location  =  data_rom                                          /
//    Dptr setup         =  1,16                                              /
//    Source file        =  E:\work\zigbee\ZStack-Smart-2.5.2b\Projects\zstac /
//                          k\Applications\SmartApp\Source\Manage\HeartBeat\H /
//                          eartBeat.c                                        /
//    Command line       =  -f E:\work\zigbee\ZStack-Smart-2.5.2b\Projects\zs /
//                          tack\Applications\SmartApp\CC2530DB\Devices\..\.. /
//                          \..\..\Tools\CC2530DB\f8wCoord.cfg (-DCPU32MHZ    /
//                          -DROOT=__near_func -DMAC_CFG_APP_PENDING_QUEUE=TR /
//                          UE -DMAC_CFG_TX_DATA_MAX=5 -DMAC_CFG_TX_MAX=8     /
//                          -DMAC_CFG_RX_MAX=5 -DZDO_COORDINATOR -DRTR_NWK    /
//                          -DSSA_CONNECTOR) -f E:\work\zigbee\ZStack-Smart-2 /
//                          .5.2b\Projects\zstack\Applications\SmartApp\CC253 /
//                          0DB\Devices\..\..\..\..\Tools\CC2530DB\f8wConfig. /
//                          cfg (-DZIGBEEPRO -DSECURE=1                       /
//                          -DZG_SECURE_DYNAMIC=1 -DREFLECTOR                 /
//                          -DDEFAULT_CHANLIST=0x00000800                     /
//                          -DZDAPP_CONFIG_PAN_ID=0xFFFF                      /
//                          -DNWK_START_DELAY=100 -DEXTENDED_JOINING_RANDOM_M /
//                          ASK=0x007F -DBEACON_REQUEST_DELAY=100             /
//                          -DBEACON_REQ_DELAY_MASK=0x00FF                    /
//                          -DLINK_STATUS_JITTER_MASK=0x007F                  /
//                          -DROUTE_EXPIRY_TIME=30 -DAPSC_ACK_WAIT_DURATION_P /
//                          OLLED=3000 -DNWK_INDIRECT_MSG_TIMEOUT=7           /
//                          -DMAX_RREQ_ENTRIES=8 -DAPSC_MAX_FRAME_RETRIES=3   /
//                          -DNWK_MAX_DATA_RETRIES=2                          /
//                          -DMAX_POLL_FAILURE_RETRIES=2 -DMAX_BCAST=9        /
//                          -DAPS_MAX_GROUPS=16 -DMAX_RTG_ENTRIES=40          /
//                          -DNWK_MAX_BINDING_ENTRIES=4                       /
//                          -DMAX_BINDING_CLUSTER_IDS=4                       /
//                          "-DDEFAULT_KEY={0x01, 0x03, 0x05, 0x07, 0x09,     /
//                          0x0B, 0x0D, 0x0F, 0x00, 0x02, 0x04, 0x06, 0x08,   /
//                          0x0A, 0x0C, 0x0D}" -DMAC_MAX_FRAME_SIZE=116       /
//                          -DZDNWKMGR_MIN_TRANSMISSIONS=20 "-DCONST=const    /
//                          __code" -DGENERIC=__generic                       /
//                          -DRFD_RCVC_ALWAYS_ON=TRUE -DPOLL_RATE=1000        /
//                          -DQUEUED_POLL_RATE=100 -DRESPONSE_POLL_RATE=100)  /
//                          -DREJOIN_POLL_RATE=440 E:\work\zigbee\ZStack-Smar /
//                          t-2.5.2b\Projects\zstack\Applications\SmartApp\So /
//                          urce\Manage\HeartBeat\HeartBeat.c -D SECURE=1 -D  /
//                          ZTOOL_P1 -D DEVICE_TYPE_ID=0xFE -D                /
//                          SIGNAL_AMPLIFIER_SETTING -D                       /
//                          xPOWER_AMPLIFIER_POSITION_1 -D xNWK_AUTO_POLL -D  /
//                          xHAL_UART_DMA=2 -D xHAL_UART_DMA_ALT1 -D          /
//                          xJIAJU_BUILDIN -D MT_TASK -D MT_SYS_FUNC -D       /
//                          MT_ZDO_FUNC -D NV_INIT -D NV_RESTORE -lC          /
//                          E:\work\zigbee\ZStack-Smart-2.5.2b\Projects\zstac /
//                          k\Applications\SmartApp\CC2530DB\bin\DemoBaseZC\L /
//                          ist\ -lA E:\work\zigbee\ZStack-Smart-2.5.2b\Proje /
//                          cts\zstack\Applications\SmartApp\CC2530DB\bin\Dem /
//                          oBaseZC\List\ --diag_suppress Pe001,Pa010 -o      /
//                          E:\work\zigbee\ZStack-Smart-2.5.2b\Projects\zstac /
//                          k\Applications\SmartApp\CC2530DB\bin\DemoBaseZC\O /
//                          bj\ -e --debug --core=plain --dptr=16,1           /
//                          --data_model=large --code_model=banked            /
//                          --calling_convention=xdata_reentrant              /
//                          --place_constants=data_rom --nr_virtual_regs 16   /
//                          -I E:\work\zigbee\ZStack-Smart-2.5.2b\Projects\zs /
//                          tack\Applications\SmartApp\CC2530DB\Devices\ -I   /
//                          E:\work\zigbee\ZStack-Smart-2.5.2b\Projects\zstac /
//                          k\Applications\SmartApp\CC2530DB\Devices\..\..\So /
//                          urce\Common\ -I E:\work\zigbee\ZStack-Smart-2.5.2 /
//                          b\Projects\zstack\Applications\SmartApp\CC2530DB\ /
//                          Devices\..\..\Source\Connector\ -I                /
//                          E:\work\zigbee\ZStack-Smart-2.5.2b\Projects\zstac /
//                          k\Applications\SmartApp\CC2530DB\Devices\..\..\So /
//                          urce\\EndNode\ -I E:\work\zigbee\ZStack-Smart-2.5 /
//                          .2b\Projects\zstack\Applications\SmartApp\CC2530D /
//                          B\Devices\..\..\Source\Board\ -I                  /
//                          E:\work\zigbee\ZStack-Smart-2.5.2b\Projects\zstac /
//                          k\Applications\SmartApp\CC2530DB\Devices\..\..\So /
//                          urce\Manage\ -I E:\work\zigbee\ZStack-Smart-2.5.2 /
//                          b\Projects\zstack\Applications\SmartApp\CC2530DB\ /
//                          Devices\..\..\Source\Manage\Callbacks\ -I         /
//                          E:\work\zigbee\ZStack-Smart-2.5.2b\Projects\zstac /
//                          k\Applications\SmartApp\CC2530DB\Devices\..\..\So /
//                          urce\Manage\debug\ -I E:\work\zigbee\ZStack-Smart /
//                          -2.5.2b\Projects\zstack\Applications\SmartApp\CC2 /
//                          530DB\Devices\..\..\Source\Manage\HeartBeat\ -I   /
//                          E:\work\zigbee\ZStack-Smart-2.5.2b\Projects\zstac /
//                          k\Applications\SmartApp\CC2530DB\Devices\..\..\So /
//                          urce\Manage\incode\ -I E:\work\zigbee\ZStack-Smar /
//                          t-2.5.2b\Projects\zstack\Applications\SmartApp\CC /
//                          2530DB\Devices\..\..\..\..\ZMain\TI2530DB\ -I     /
//                          E:\work\zigbee\ZStack-Smart-2.5.2b\Projects\zstac /
//                          k\Applications\SmartApp\CC2530DB\Devices\..\..\.. /
//                          \..\..\..\Components\hal\include\ -I              /
//                          E:\work\zigbee\ZStack-Smart-2.5.2b\Projects\zstac /
//                          k\Applications\SmartApp\CC2530DB\Devices\..\..\.. /
//                          \..\..\..\Components\hal\target\CC2530EB\ -I      /
//                          E:\work\zigbee\ZStack-Smart-2.5.2b\Projects\zstac /
//                          k\Applications\SmartApp\CC2530DB\Devices\..\..\.. /
//                          \..\..\..\Components\mac\include\ -I              /
//                          E:\work\zigbee\ZStack-Smart-2.5.2b\Projects\zstac /
//                          k\Applications\SmartApp\CC2530DB\Devices\..\..\.. /
//                          \..\..\..\Components\mac\high_level\ -I           /
//                          E:\work\zigbee\ZStack-Smart-2.5.2b\Projects\zstac /
//                          k\Applications\SmartApp\CC2530DB\Devices\..\..\.. /
//                          \..\..\..\Components\mac\low_level\srf04\ -I      /
//                          E:\work\zigbee\ZStack-Smart-2.5.2b\Projects\zstac /
//                          k\Applications\SmartApp\CC2530DB\Devices\..\..\.. /
//                          \..\..\..\Components\mac\low_level\srf04\single_c /
//                          hip\ -I E:\work\zigbee\ZStack-Smart-2.5.2b\Projec /
//                          ts\zstack\Applications\SmartApp\CC2530DB\Devices\ /
//                          ..\..\..\..\..\..\Components\mt\ -I               /
//                          E:\work\zigbee\ZStack-Smart-2.5.2b\Projects\zstac /
//                          k\Applications\SmartApp\CC2530DB\Devices\..\..\.. /
//                          \..\..\..\Components\osal\include\ -I             /
//                          E:\work\zigbee\ZStack-Smart-2.5.2b\Projects\zstac /
//                          k\Applications\SmartApp\CC2530DB\Devices\..\..\.. /
//                          \..\..\..\Components\services\saddr\ -I           /
//                          E:\work\zigbee\ZStack-Smart-2.5.2b\Projects\zstac /
//                          k\Applications\SmartApp\CC2530DB\Devices\..\..\.. /
//                          \..\..\..\Components\services\sdata\ -I           /
//                          E:\work\zigbee\ZStack-Smart-2.5.2b\Projects\zstac /
//                          k\Applications\SmartApp\CC2530DB\Devices\..\..\.. /
//                          \..\..\..\Components\stack\af\ -I                 /
//                          E:\work\zigbee\ZStack-Smart-2.5.2b\Projects\zstac /
//                          k\Applications\SmartApp\CC2530DB\Devices\..\..\.. /
//                          \..\..\..\Components\stack\nwk\ -I                /
//                          E:\work\zigbee\ZStack-Smart-2.5.2b\Projects\zstac /
//                          k\Applications\SmartApp\CC2530DB\Devices\..\..\.. /
//                          \..\..\..\Components\stack\sapi\ -I               /
//                          E:\work\zigbee\ZStack-Smart-2.5.2b\Projects\zstac /
//                          k\Applications\SmartApp\CC2530DB\Devices\..\..\.. /
//                          \..\..\..\Components\stack\sec\ -I                /
//                          E:\work\zigbee\ZStack-Smart-2.5.2b\Projects\zstac /
//                          k\Applications\SmartApp\CC2530DB\Devices\..\..\.. /
//                          \..\..\..\Components\stack\sys\ -I                /
//                          E:\work\zigbee\ZStack-Smart-2.5.2b\Projects\zstac /
//                          k\Applications\SmartApp\CC2530DB\Devices\..\..\.. /
//                          \..\..\..\Components\stack\zdo\ -I                /
//                          E:\work\zigbee\ZStack-Smart-2.5.2b\Projects\zstac /
//                          k\Applications\SmartApp\CC2530DB\Devices\..\..\.. /
//                          \..\..\..\Components\zmac\ -I                     /
//                          E:\work\zigbee\ZStack-Smart-2.5.2b\Projects\zstac /
//                          k\Applications\SmartApp\CC2530DB\Devices\..\..\.. /
//                          \..\..\..\Components\zmac\f8w\ -Oh                /
//                          --require_prototypes                              /
//    List file          =  E:\work\zigbee\ZStack-Smart-2.5.2b\Projects\zstac /
//                          k\Applications\SmartApp\CC2530DB\bin\DemoBaseZC\L /
//                          ist\HeartBeat.s51                                 /
//                                                                            /
//                                                                            /
///////////////////////////////////////////////////////////////////////////////

        NAME HeartBeat

        RTMODEL "__SystemLibrary", "CLib"
        RTMODEL "__calling_convention", "xdata_reentrant"
        RTMODEL "__code_model", "banked"
        RTMODEL "__core", "plain"
        RTMODEL "__data_model", "large"
        RTMODEL "__dptr_size", "16"
        RTMODEL "__extended_stack", "disabled"
        RTMODEL "__location_for_constants", "data"
        RTMODEL "__number_of_dptrs", "1"
        RTMODEL "__rt_version", "1"

        RSEG DOVERLAY:DATA:NOROOT(0)
        RSEG IOVERLAY:IDATA:NOROOT(0)
        RSEG ISTACK:IDATA:NOROOT(0)
        RSEG PSTACK:XDATA:NOROOT(0)
        RSEG XSTACK:XDATA:NOROOT(0)

        EXTERN ?ALLOC_XSTACK8
        EXTERN ?BANKED_ENTER_XDATA
        EXTERN ?BANKED_LEAVE_XDATA
        EXTERN ?BDISPATCH
        EXTERN ?BRET
        EXTERN ?DEALLOC_XSTACK8
        EXTERN ?PUSH_XSTACK_I_TWO
        EXTERN ?V0
        EXTERN ?XSP
        EXTERN ?XSTACK_DISP0_8

        PUBLIC ??CommonApp_HeartBeatCB?relay
        FUNCTION ??CommonApp_HeartBeatCB?relay,0203H
        PUBLIC ??RS485_HeartBeatCB?relay
        FUNCTION ??RS485_HeartBeatCB?relay,0203H
        PUBLIC CommonApp_HeartBeatCB
        FUNCTION CommonApp_HeartBeatCB,021203H
        ARGFRAME XSTACK, 2, STACK
        LOCFRAME XSTACK, 27, STACK
        PUBLIC RS485_HeartBeatCB
        FUNCTION RS485_HeartBeatCB,021203H
        ARGFRAME XSTACK, 2, STACK
        LOCFRAME ISTACK, 2, STACK
        
        CFI Names cfiNames0
        CFI StackFrame CFA_SP SP IDATA
        CFI StackFrame CFA_PSP16 PSP16 XDATA
        CFI StackFrame CFA_XSP16 XSP16 XDATA
        CFI StaticOverlayFrame CFA_IOVERLAY IOVERLAY
        CFI StaticOverlayFrame CFA_DOVERLAY DOVERLAY
        CFI Resource `PSW.CY`:1, `B.BR0`:1, `B.BR1`:1, `B.BR2`:1, `B.BR3`:1
        CFI Resource `B.BR4`:1, `B.BR5`:1, `B.BR6`:1, `B.BR7`:1, `VB.BR8`:1
        CFI Resource `VB.BR9`:1, `VB.BR10`:1, `VB.BR11`:1, `VB.BR12`:1
        CFI Resource `VB.BR13`:1, `VB.BR14`:1, `VB.BR15`:1, VB:8, B:8, A:8
        CFI Resource PSW:8, DPL0:8, DPH0:8, R0:8, R1:8, R2:8, R3:8, R4:8, R5:8
        CFI Resource R6:8, R7:8, V0:8, V1:8, V2:8, V3:8, V4:8, V5:8, V6:8, V7:8
        CFI Resource V8:8, V9:8, V10:8, V11:8, V12:8, V13:8, V14:8, V15:8, SP:8
        CFI Resource PSPH:8, PSPL:8, PSP16:16, XSPH:8, XSPL:8, XSP16:16
        CFI VirtualResource ?RET:24
        CFI Resource ?BRET_EXT:8
        CFI VirtualResource ?RET_HIGH:8, ?RET_LOW:8
        CFI ResourceParts PSP16 PSPH, PSPL
        CFI ResourceParts XSP16 XSPH, XSPL
        CFI ResourceParts ?RET ?BRET_EXT, ?RET_HIGH, ?RET_LOW
        CFI EndNames cfiNames0
        
        CFI Common cfiCommon0 Using cfiNames0
        CFI CodeAlign 1
        CFI DataAlign -1
        CFI ReturnAddress ?RET CODE
        CFI CFA_DOVERLAY Used
        CFI CFA_IOVERLAY Used
        CFI CFA_SP SP+-3
        CFI CFA_PSP16 PSP16+0
        CFI CFA_XSP16 XSP16+0
        CFI `PSW.CY` SameValue
        CFI `B.BR0` SameValue
        CFI `B.BR1` SameValue
        CFI `B.BR2` SameValue
        CFI `B.BR3` SameValue
        CFI `B.BR4` SameValue
        CFI `B.BR5` SameValue
        CFI `B.BR6` SameValue
        CFI `B.BR7` SameValue
        CFI `VB.BR8` SameValue
        CFI `VB.BR9` SameValue
        CFI `VB.BR10` SameValue
        CFI `VB.BR11` SameValue
        CFI `VB.BR12` SameValue
        CFI `VB.BR13` SameValue
        CFI `VB.BR14` SameValue
        CFI `VB.BR15` SameValue
        CFI VB SameValue
        CFI B Undefined
        CFI A Undefined
        CFI PSW SameValue
        CFI DPL0 SameValue
        CFI DPH0 SameValue
        CFI R0 Undefined
        CFI R1 Undefined
        CFI R2 Undefined
        CFI R3 Undefined
        CFI R4 Undefined
        CFI R5 Undefined
        CFI R6 SameValue
        CFI R7 SameValue
        CFI V0 SameValue
        CFI V1 SameValue
        CFI V2 SameValue
        CFI V3 SameValue
        CFI V4 SameValue
        CFI V5 SameValue
        CFI V6 SameValue
        CFI V7 SameValue
        CFI V8 SameValue
        CFI V9 SameValue
        CFI V10 SameValue
        CFI V11 SameValue
        CFI V12 SameValue
        CFI V13 SameValue
        CFI V14 SameValue
        CFI V15 SameValue
        CFI PSPH Undefined
        CFI PSPL Undefined
        CFI XSPH Undefined
        CFI XSPL Undefined
        CFI ?RET Concat
        CFI ?BRET_EXT Frame(CFA_SP, 3)
        CFI ?RET_HIGH Frame(CFA_SP, 2)
        CFI ?RET_LOW Frame(CFA_SP, 1)
        CFI EndCommon cfiCommon0
        
memcpy              SYMBOL "memcpy"
SSAFrame_Package    SYMBOL "SSAFrame_Package"
CommonApp_SendTheMessage SYMBOL "CommonApp_SendTheMessage"
??CommonApp_SendTheMessage?relay SYMBOL "?relay", CommonApp_SendTheMessage
??SSAFrame_Package?relay SYMBOL "?relay", SSAFrame_Package
??memcpy?relay      SYMBOL "?relay", memcpy
CommonApp_HeartBeatCB SYMBOL "CommonApp_HeartBeatCB"
??CommonApp_HeartBeatCB?relay SYMBOL "?relay", CommonApp_HeartBeatCB
RS485_HeartBeatCB   SYMBOL "RS485_HeartBeatCB"
??RS485_HeartBeatCB?relay SYMBOL "?relay", RS485_HeartBeatCB

        EXTERN memcpy
        FUNCTION memcpy,010202H
        ARGFRAME ISTACK, 0, STACK
        ARGFRAME PSTACK, 0, STACK
        ARGFRAME XSTACK, 27, STACK
        ARGFRAME IOVERLAY, 0, STATIC
        ARGFRAME DOVERLAY, 0, STATIC
        EXTERN SSAFrame_Package
        FUNCTION SSAFrame_Package,0202H
        ARGFRAME ISTACK, 0, STACK
        ARGFRAME PSTACK, 0, STACK
        ARGFRAME XSTACK, 27, STACK
        ARGFRAME IOVERLAY, 0, STATIC
        ARGFRAME DOVERLAY, 0, STATIC
        EXTERN CommonApp_SendTheMessage
        FUNCTION CommonApp_SendTheMessage,0202H
        ARGFRAME ISTACK, 2, STACK
        ARGFRAME PSTACK, 0, STACK
        ARGFRAME XSTACK, 25, STACK
        ARGFRAME IOVERLAY, 0, STATIC
        ARGFRAME DOVERLAY, 0, STATIC
        EXTERN ??CommonApp_SendTheMessage?relay
        FUNCTION ??CommonApp_SendTheMessage?relay,00H
        EXTERN ??SSAFrame_Package?relay
        FUNCTION ??SSAFrame_Package?relay,00H
        EXTERN ??memcpy?relay
        FUNCTION ??memcpy?relay,00H
        EXTERN Address_dev
        EXTERN SHORT_ADDR_G
        EXTERN f_tail
        EXTERN nwkAddr_buf
        EXTERN value_addr_H
        EXTERN value_addr_L

// E:\work\zigbee\ZStack-Smart-2.5.2b\Projects\zstack\Applications\SmartApp\Source\Manage\HeartBeat\HeartBeat.c
//    1 /**************************************************************************************************
//    2   Filename:       HeartBeart.c
//    3   Revised:        $Date: 2014-12-01 11:25:17 -0800 (Thu, 29 dec 2014) $
//    4   Revision:       $Revision: 29218 $
//    5 
//    6   Description:    This file contains heart beat callbacks
//    7 **************************************************************************************************/
//    8 
//    9 /**************************************************************************************************
//   10 Modify by Sam_Chen
//   11 Date:2015-07-31
//   12 **************************************************************************************************/
//   13 
//   14 
//   15 /*********************************************************************
//   16  * INCLUDES
//   17  */
//   18 #include "HeartBeat.h"
//   19 #include "CommonApp.h"
//   20 
//   21 
//   22 /*********************************************************************
//   23  * MACROS
//   24  */
//   25 
//   26 /*********************************************************************
//   27  * CONSTANTS
//   28  */
//   29 
//   30 /*********************************************************************
//   31  * EXTERNAL VARIABLES
//   32  */
//   33 
//   34 /*********************************************************************
//   35  * EXTERNAL FUNCTIONS
//   36  */
//   37 extern uint8 SHORT_ADDR_G[4];
//   38 extern uint8 EXT_ADDR_G[16];
//   39 extern const uint8 f_tail[4]; 
//   40  
//   41 /*********************************************************************
//   42  * GLOBAL VARIABLES
//   43  */
//   44 
//   45 /*********************************************************************
//   46  * LOCAL VARIABLES
//   47  */
//   48 
//   49 /*********************************************************************
//   50  * LOCAL FUNCTIONS
//   51  */
//   52 
//   53 /*********************************************************************
//   54  * PUBLIC FUNCTIONS
//   55  */
//   56 
//   57 /*********************************************************************
//   58  * @fn      CommonApp_HeartBeatCB
//   59  *
//   60  * @brief   handler heart beat event
//   61  *
//   62  * @param   none
//   63  *
//   64  * @return  none
//   65  */
//   66 

        RSEG BANKED_CODE:CODE:NOROOT(0)
//   67 void CommonApp_HeartBeatCB( void *params, uint16 *duration, uint8 *count)
CommonApp_HeartBeatCB:
        CFI Block cfiBlock0 Using cfiCommon0
        CFI Function CommonApp_HeartBeatCB
        CODE
//   68 {
        FUNCALL CommonApp_HeartBeatCB, memcpy
        LOCFRAME ISTACK, 0, STACK
        LOCFRAME PSTACK, 0, STACK
        LOCFRAME XSTACK, 27, STACK
        LOCFRAME IOVERLAY, 0, STATIC
        LOCFRAME DOVERLAY, 0, STATIC
        ARGFRAME ISTACK, 0, STACK
        ARGFRAME PSTACK, 0, STACK
        ARGFRAME XSTACK, 27, STACK
        ARGFRAME IOVERLAY, 0, STATIC
        ARGFRAME DOVERLAY, 0, STATIC
        FUNCALL CommonApp_HeartBeatCB, memcpy
        LOCFRAME ISTACK, 0, STACK
        LOCFRAME PSTACK, 0, STACK
        LOCFRAME XSTACK, 27, STACK
        LOCFRAME IOVERLAY, 0, STATIC
        LOCFRAME DOVERLAY, 0, STATIC
        ARGFRAME ISTACK, 0, STACK
        ARGFRAME PSTACK, 0, STACK
        ARGFRAME XSTACK, 27, STACK
        ARGFRAME IOVERLAY, 0, STATIC
        ARGFRAME DOVERLAY, 0, STATIC
        FUNCALL CommonApp_HeartBeatCB, memcpy
        LOCFRAME ISTACK, 0, STACK
        LOCFRAME PSTACK, 0, STACK
        LOCFRAME XSTACK, 27, STACK
        LOCFRAME IOVERLAY, 0, STATIC
        LOCFRAME DOVERLAY, 0, STATIC
        ARGFRAME ISTACK, 0, STACK
        ARGFRAME PSTACK, 0, STACK
        ARGFRAME XSTACK, 27, STACK
        ARGFRAME IOVERLAY, 0, STATIC
        ARGFRAME DOVERLAY, 0, STATIC
        FUNCALL CommonApp_HeartBeatCB, SSAFrame_Package
        LOCFRAME ISTACK, 0, STACK
        LOCFRAME PSTACK, 0, STACK
        LOCFRAME XSTACK, 27, STACK
        LOCFRAME IOVERLAY, 0, STATIC
        LOCFRAME DOVERLAY, 0, STATIC
        ARGFRAME ISTACK, 0, STACK
        ARGFRAME PSTACK, 0, STACK
        ARGFRAME XSTACK, 27, STACK
        ARGFRAME IOVERLAY, 0, STATIC
        ARGFRAME DOVERLAY, 0, STATIC
        FUNCALL CommonApp_HeartBeatCB, CommonApp_SendTheMessage
        LOCFRAME ISTACK, 0, STACK
        LOCFRAME PSTACK, 0, STACK
        LOCFRAME XSTACK, 25, STACK
        LOCFRAME IOVERLAY, 0, STATIC
        LOCFRAME DOVERLAY, 0, STATIC
        ARGFRAME ISTACK, 0, STACK
        ARGFRAME PSTACK, 0, STACK
        ARGFRAME XSTACK, 25, STACK
        ARGFRAME IOVERLAY, 0, STATIC
        ARGFRAME DOVERLAY, 0, STATIC
        MOV     A,#-0xa
        LCALL   ?BANKED_ENTER_XDATA
        CFI DPH0 load(1, XDATA, add(CFA_XSP16, literal(-1)))
        CFI DPL0 load(1, XDATA, add(CFA_XSP16, literal(-2)))
        CFI ?BRET_EXT load(1, XDATA, add(CFA_XSP16, literal(-3)))
        CFI ?RET_HIGH load(1, XDATA, add(CFA_XSP16, literal(-4)))
        CFI ?RET_LOW load(1, XDATA, add(CFA_XSP16, literal(-5)))
        CFI R7 load(1, XDATA, add(CFA_XSP16, literal(-6)))
        CFI V1 load(1, XDATA, add(CFA_XSP16, literal(-7)))
        CFI V0 load(1, XDATA, add(CFA_XSP16, literal(-8)))
        CFI VB load(1, XDATA, add(CFA_XSP16, literal(-9)))
        CFI R6 load(1, XDATA, add(CFA_XSP16, literal(-10)))
        CFI CFA_SP SP+0
        CFI CFA_XSP16 add(XSP16, 10)
        ; Saved register size: 10
        ; Auto size: 15
        MOV     A,#-0xf
        LCALL   ?ALLOC_XSTACK8
        CFI CFA_XSP16 add(XSP16, 25)
//   69 	UH_t mFrame;
//   70 	uint8 *fBuf;		//pointer data buffer
//   71 	uint16 fLen;		//buffer data length
//   72 
//   73 	memcpy(mFrame.head, FR_HEAD_UH, 3);
        ; Setup parameters for call to function memcpy
        MOV     ?V0 + 0,#0x3
        MOV     ?V0 + 1,#0x0
        MOV     R0,#?V0 + 0
        LCALL   ?PUSH_XSTACK_I_TWO
        CFI CFA_XSP16 add(XSP16, 27)
        MOV     R4,#`?<Constant "UH:">` & 0xff
        MOV     R5,#(`?<Constant "UH:">` >> 8) & 0xff
        MOV     A,#0x6
        LCALL   ?XSTACK_DISP0_8
        MOV     R2,DPL
        MOV     R3,DPH
        LCALL   ??memcpy?relay
        MOV     A,#0x2
        LCALL   ?DEALLOC_XSTACK8
        CFI CFA_XSP16 add(XSP16, 25)
//   74 	memcpy(mFrame.short_addr, SHORT_ADDR_G, 4);
        ; Setup parameters for call to function memcpy
        MOV     ?V0 + 0,#0x4
        MOV     R0,#?V0 + 0
        LCALL   ?PUSH_XSTACK_I_TWO
        CFI CFA_XSP16 add(XSP16, 27)
        MOV     R4,#SHORT_ADDR_G & 0xff
        MOV     R5,#(SHORT_ADDR_G >> 8) & 0xff
        MOV     A,#0x9
        LCALL   ?XSTACK_DISP0_8
        MOV     R2,DPL
        MOV     R3,DPH
        LCALL   ??memcpy?relay
        MOV     A,#0x2
        LCALL   ?DEALLOC_XSTACK8
        CFI CFA_XSP16 add(XSP16, 25)
//   75 	memcpy(mFrame.tail, f_tail, 4);
        ; Setup parameters for call to function memcpy
        MOV     R0,#?V0 + 0
        LCALL   ?PUSH_XSTACK_I_TWO
        CFI CFA_XSP16 add(XSP16, 27)
        MOV     R4,#f_tail & 0xff
        MOV     R5,#(f_tail >> 8) & 0xff
        MOV     A,#0xd
        LCALL   ?XSTACK_DISP0_8
        MOV     R2,DPL
        MOV     R3,DPH
        LCALL   ??memcpy?relay
        MOV     A,#0x2
        LCALL   ?DEALLOC_XSTACK8
        CFI CFA_XSP16 add(XSP16, 25)
//   76 
//   77 	if(!SSAFrame_Package(HEAD_UH, &mFrame, &fBuf, &fLen))
        ; Setup parameters for call to function SSAFrame_Package
        MOV     DPL,?XSP + 0
        MOV     DPH,?XSP + 1
        MOV     ?V0 + 0,DPL
        MOV     ?V0 + 1,DPH
        MOV     R0,#?V0 + 0
        LCALL   ?PUSH_XSTACK_I_TWO
        CFI CFA_XSP16 add(XSP16, 27)
        MOV     A,#0x4
        LCALL   ?XSTACK_DISP0_8
        MOV     R4,DPL
        MOV     R5,DPH
        MOV     A,#0x6
        LCALL   ?XSTACK_DISP0_8
        MOV     R2,DPL
        MOV     R3,DPH
        MOV     R1,#0x2
        LCALL   ??SSAFrame_Package?relay
        MOV     A,#0x2
        LCALL   ?DEALLOC_XSTACK8
        CFI CFA_XSP16 add(XSP16, 25)
        MOV     A,R1
        JNZ     ??CommonApp_HeartBeatCB_0
//   78 	{
//   79 	  CommonApp_SendTheMessage(COORDINATOR_ADDR, fBuf, fLen);
        ; Setup parameters for call to function CommonApp_SendTheMessage
        MOV     DPL,?XSP + 0
        MOV     DPH,?XSP + 1
        MOVX    A,@DPTR
        MOV     R1,A
        MOV     A,#0x2
        LCALL   ?XSTACK_DISP0_8
        MOVX    A,@DPTR
        MOV     R4,A
        INC     DPTR
        MOVX    A,@DPTR
        MOV     R5,A
        MOV     R2,#0x0
        MOV     R3,#0x0
        LCALL   ??CommonApp_SendTheMessage?relay
//   80 	}
//   81 
//   82 #if defined(POWER_SAVING)
//   83 	UO_t oFrame;
//   84 	uint8 dbuf[16];
//   85 
//   86 	memcpy(oFrame.head, FR_HEAD_UO, 3);
//   87 	oFrame.type = FR_DEV_ENDDEV;
//   88 	memcpy(oFrame.ed_type, FR_APP_DEV, 2);
//   89 	memcpy(oFrame.short_addr, SHORT_ADDR_G, 4);
//   90 	memcpy(oFrame.ext_addr, EXT_ADDR_G, 16);
//   91 	oFrame.data = dbuf;
//   92         CommonDevice_GetData(oFrame.data, &oFrame.data_len);
//   93 	memcpy(oFrame.tail, f_tail, 4);
//   94 
//   95 	if(!SSAFrame_Package(HEAD_UO, &oFrame, &fBuf, &fLen))
//   96 	{
//   97 		CommonApp_SendTheMessage(COORDINATOR_ADDR, fBuf, fLen);
//   98 	}
//   99 #endif
//  100 }
??CommonApp_HeartBeatCB_0:
        MOV     A,#0xf
        LCALL   ?DEALLOC_XSTACK8
        CFI CFA_XSP16 add(XSP16, 10)
        MOV     R7,#0x2
        LJMP    ?BANKED_LEAVE_XDATA
        CFI EndBlock cfiBlock0
//  101 

        RSEG BANKED_CODE:CODE:NOROOT(0)
//  102 void RS485_HeartBeatCB( void *params, uint16 *duration, uint8 *count)
RS485_HeartBeatCB:
        CFI Block cfiBlock1 Using cfiCommon0
        CFI Function RS485_HeartBeatCB
        CODE
//  103 {
        FUNCALL RS485_HeartBeatCB, CommonApp_SendTheMessage
        LOCFRAME ISTACK, 2, STACK
        LOCFRAME PSTACK, 0, STACK
        LOCFRAME XSTACK, 0, STACK
        LOCFRAME IOVERLAY, 0, STATIC
        LOCFRAME DOVERLAY, 0, STATIC
        ARGFRAME ISTACK, 2, STACK
        ARGFRAME PSTACK, 0, STACK
        ARGFRAME XSTACK, 0, STACK
        ARGFRAME IOVERLAY, 0, STATIC
        ARGFRAME DOVERLAY, 0, STATIC
        PUSH    DPL
        CFI DPL0 Frame(CFA_SP, 4)
        CFI CFA_SP SP+-4
        PUSH    DPH
        CFI DPH0 Frame(CFA_SP, 5)
        CFI CFA_SP SP+-5
        ; Saved register size: 2
        ; Auto size: 0
//  104       nwkAddr_buf[0]=value_addr_L;
        MOV     DPTR,#value_addr_L
        MOVX    A,@DPTR
        MOV     DPTR,#nwkAddr_buf
        MOVX    @DPTR,A
//  105       nwkAddr_buf[1]=value_addr_H;
        MOV     DPTR,#value_addr_H
        MOVX    A,@DPTR
        MOV     DPTR,#nwkAddr_buf + 1
        MOVX    @DPTR,A
//  106       nwkAddr_buf[2]=Address_dev;
        MOV     DPTR,#Address_dev
        MOVX    A,@DPTR
        MOV     DPTR,#nwkAddr_buf + 2
        MOVX    @DPTR,A
//  107       CommonApp_SendTheMessage(COORDINATOR_ADDR,nwkAddr_buf, 3);
        ; Setup parameters for call to function CommonApp_SendTheMessage
        MOV     R1,#0x3
        MOV     R4,#nwkAddr_buf & 0xff
        MOV     R5,#(nwkAddr_buf >> 8) & 0xff
        MOV     R2,#0x0
        MOV     R3,#0x0
        LCALL   ??CommonApp_SendTheMessage?relay
//  108 }
        POP     DPH
        CFI DPH0 SameValue
        CFI CFA_SP SP+-4
        POP     DPL
        CFI DPL0 SameValue
        CFI CFA_SP SP+-3
        LJMP    ?BRET
        CFI EndBlock cfiBlock1

        RSEG BANK_RELAYS:CODE:REORDER:NOROOT(0)
??CommonApp_HeartBeatCB?relay:
        LCALL   ?BDISPATCH
        DATA
        DC24    CommonApp_HeartBeatCB

        RSEG BANK_RELAYS:CODE:REORDER:NOROOT(0)
??RS485_HeartBeatCB?relay:
        LCALL   ?BDISPATCH
        DATA
        DC24    RS485_HeartBeatCB

        RSEG XDATA_ROM_C:CONST:REORDER:NOROOT(0)
        DATA32
`?<Constant "UH:">`:
        DB "UH:"

        END
// 
// 228 bytes in segment BANKED_CODE
//  12 bytes in segment BANK_RELAYS
//   4 bytes in segment XDATA_ROM_C
// 
// 240 bytes of CODE  memory
//   4 bytes of CONST memory
//
//Errors: none
//Warnings: none
