///////////////////////////////////////////////////////////////////////////////
//                                                                            /
// IAR C/C++ Compiler V8.10.1.10194/W32 for 8051        24/Nov/2016  11:15:35 /
// Copyright 2004-2011 IAR Systems AB.                                        /
//                                                                            /
//    Core               =  plain                                             /
//    Code model         =  banked                                            /
//    Data model         =  large                                             /
//    Calling convention =  xdata reentrant                                   /
//    Constant location  =  data_rom                                          /
//    Dptr setup         =  1,16                                              /
//    Source file        =  E:\work\zigbee\ZStack-Smart-2.5.2b\Projects\zstac /
//                          k\Applications\SmartApp\Source\Manage\incode\inco /
//                          de.c                                              /
//    Command line       =  -f E:\work\zigbee\ZStack-Smart-2.5.2b\Projects\zs /
//                          tack\Applications\SmartApp\CC2530DB\Devices\..\.. /
//                          \..\..\Tools\CC2530DB\f8wCoord.cfg (-DCPU32MHZ    /
//                          -DROOT=__near_func -DMAC_CFG_APP_PENDING_QUEUE=TR /
//                          UE -DMAC_CFG_TX_DATA_MAX=5 -DMAC_CFG_TX_MAX=8     /
//                          -DMAC_CFG_RX_MAX=5 -DZDO_COORDINATOR -DRTR_NWK    /
//                          -DSSA_CONNECTOR) -f E:\work\zigbee\ZStack-Smart-2 /
//                          .5.2b\Projects\zstack\Applications\SmartApp\CC253 /
//                          0DB\Devices\..\..\..\..\Tools\CC2530DB\f8wConfig. /
//                          cfg (-DZIGBEEPRO -DSECURE=1                       /
//                          -DZG_SECURE_DYNAMIC=1 -DREFLECTOR                 /
//                          -DDEFAULT_CHANLIST=0x00000800                     /
//                          -DZDAPP_CONFIG_PAN_ID=0xFFFF                      /
//                          -DNWK_START_DELAY=100 -DEXTENDED_JOINING_RANDOM_M /
//                          ASK=0x007F -DBEACON_REQUEST_DELAY=100             /
//                          -DBEACON_REQ_DELAY_MASK=0x00FF                    /
//                          -DLINK_STATUS_JITTER_MASK=0x007F                  /
//                          -DROUTE_EXPIRY_TIME=30 -DAPSC_ACK_WAIT_DURATION_P /
//                          OLLED=3000 -DNWK_INDIRECT_MSG_TIMEOUT=7           /
//                          -DMAX_RREQ_ENTRIES=8 -DAPSC_MAX_FRAME_RETRIES=3   /
//                          -DNWK_MAX_DATA_RETRIES=2                          /
//                          -DMAX_POLL_FAILURE_RETRIES=2 -DMAX_BCAST=9        /
//                          -DAPS_MAX_GROUPS=16 -DMAX_RTG_ENTRIES=40          /
//                          -DNWK_MAX_BINDING_ENTRIES=4                       /
//                          -DMAX_BINDING_CLUSTER_IDS=4                       /
//                          "-DDEFAULT_KEY={0x01, 0x03, 0x05, 0x07, 0x09,     /
//                          0x0B, 0x0D, 0x0F, 0x00, 0x02, 0x04, 0x06, 0x08,   /
//                          0x0A, 0x0C, 0x0D}" -DMAC_MAX_FRAME_SIZE=116       /
//                          -DZDNWKMGR_MIN_TRANSMISSIONS=20 "-DCONST=const    /
//                          __code" -DGENERIC=__generic                       /
//                          -DRFD_RCVC_ALWAYS_ON=FALSE -DPOLL_RATE=600        /
//                          -DQUEUED_POLL_RATE=100 -DRESPONSE_POLL_RATE=100)  /
//                          -DREJOIN_POLL_RATE=440 E:\work\zigbee\ZStack-Smar /
//                          t-2.5.2b\Projects\zstack\Applications\SmartApp\So /
//                          urce\Manage\incode\incode.c -D SECURE=1 -D        /
//                          ZTOOL_P1 -D DEVICE_TYPE_ID=0xFE -D                /
//                          SIGNAL_AMPLIFIER_SETTING -D                       /
//                          xPOWER_AMPLIFIER_POSITION_1 -D xNWK_AUTO_POLL -D  /
//                          xHAL_UART_DMA=2 -D xHAL_UART_DMA_ALT1 -D          /
//                          xJIAJU_BUILDIN -D MT_TASK -D MT_SYS_FUNC -D       /
//                          MT_ZDO_FUNC -D NV_INIT -D NV_RESTORE -lC          /
//                          E:\work\zigbee\ZStack-Smart-2.5.2b\Projects\zstac /
//                          k\Applications\SmartApp\CC2530DB\bin\DemoBaseZC\L /
//                          ist\ -lA E:\work\zigbee\ZStack-Smart-2.5.2b\Proje /
//                          cts\zstack\Applications\SmartApp\CC2530DB\bin\Dem /
//                          oBaseZC\List\ --diag_suppress Pe001,Pa010 -o      /
//                          E:\work\zigbee\ZStack-Smart-2.5.2b\Projects\zstac /
//                          k\Applications\SmartApp\CC2530DB\bin\DemoBaseZC\O /
//                          bj\ -e --debug --core=plain --dptr=16,1           /
//                          --data_model=large --code_model=banked            /
//                          --calling_convention=xdata_reentrant              /
//                          --place_constants=data_rom --nr_virtual_regs 16   /
//                          -I E:\work\zigbee\ZStack-Smart-2.5.2b\Projects\zs /
//                          tack\Applications\SmartApp\CC2530DB\Devices\ -I   /
//                          E:\work\zigbee\ZStack-Smart-2.5.2b\Projects\zstac /
//                          k\Applications\SmartApp\CC2530DB\Devices\..\..\So /
//                          urce\Common\ -I E:\work\zigbee\ZStack-Smart-2.5.2 /
//                          b\Projects\zstack\Applications\SmartApp\CC2530DB\ /
//                          Devices\..\..\Source\Connector\ -I                /
//                          E:\work\zigbee\ZStack-Smart-2.5.2b\Projects\zstac /
//                          k\Applications\SmartApp\CC2530DB\Devices\..\..\So /
//                          urce\\EndNode\ -I E:\work\zigbee\ZStack-Smart-2.5 /
//                          .2b\Projects\zstack\Applications\SmartApp\CC2530D /
//                          B\Devices\..\..\Source\Board\ -I                  /
//                          E:\work\zigbee\ZStack-Smart-2.5.2b\Projects\zstac /
//                          k\Applications\SmartApp\CC2530DB\Devices\..\..\So /
//                          urce\Manage\ -I E:\work\zigbee\ZStack-Smart-2.5.2 /
//                          b\Projects\zstack\Applications\SmartApp\CC2530DB\ /
//                          Devices\..\..\Source\Manage\Callbacks\ -I         /
//                          E:\work\zigbee\ZStack-Smart-2.5.2b\Projects\zstac /
//                          k\Applications\SmartApp\CC2530DB\Devices\..\..\So /
//                          urce\Manage\debug\ -I E:\work\zigbee\ZStack-Smart /
//                          -2.5.2b\Projects\zstack\Applications\SmartApp\CC2 /
//                          530DB\Devices\..\..\Source\Manage\HeartBeat\ -I   /
//                          E:\work\zigbee\ZStack-Smart-2.5.2b\Projects\zstac /
//                          k\Applications\SmartApp\CC2530DB\Devices\..\..\So /
//                          urce\Manage\incode\ -I E:\work\zigbee\ZStack-Smar /
//                          t-2.5.2b\Projects\zstack\Applications\SmartApp\CC /
//                          2530DB\Devices\..\..\..\..\ZMain\TI2530DB\ -I     /
//                          E:\work\zigbee\ZStack-Smart-2.5.2b\Projects\zstac /
//                          k\Applications\SmartApp\CC2530DB\Devices\..\..\.. /
//                          \..\..\..\Components\hal\include\ -I              /
//                          E:\work\zigbee\ZStack-Smart-2.5.2b\Projects\zstac /
//                          k\Applications\SmartApp\CC2530DB\Devices\..\..\.. /
//                          \..\..\..\Components\hal\target\CC2530EB\ -I      /
//                          E:\work\zigbee\ZStack-Smart-2.5.2b\Projects\zstac /
//                          k\Applications\SmartApp\CC2530DB\Devices\..\..\.. /
//                          \..\..\..\Components\mac\include\ -I              /
//                          E:\work\zigbee\ZStack-Smart-2.5.2b\Projects\zstac /
//                          k\Applications\SmartApp\CC2530DB\Devices\..\..\.. /
//                          \..\..\..\Components\mac\high_level\ -I           /
//                          E:\work\zigbee\ZStack-Smart-2.5.2b\Projects\zstac /
//                          k\Applications\SmartApp\CC2530DB\Devices\..\..\.. /
//                          \..\..\..\Components\mac\low_level\srf04\ -I      /
//                          E:\work\zigbee\ZStack-Smart-2.5.2b\Projects\zstac /
//                          k\Applications\SmartApp\CC2530DB\Devices\..\..\.. /
//                          \..\..\..\Components\mac\low_level\srf04\single_c /
//                          hip\ -I E:\work\zigbee\ZStack-Smart-2.5.2b\Projec /
//                          ts\zstack\Applications\SmartApp\CC2530DB\Devices\ /
//                          ..\..\..\..\..\..\Components\mt\ -I               /
//                          E:\work\zigbee\ZStack-Smart-2.5.2b\Projects\zstac /
//                          k\Applications\SmartApp\CC2530DB\Devices\..\..\.. /
//                          \..\..\..\Components\osal\include\ -I             /
//                          E:\work\zigbee\ZStack-Smart-2.5.2b\Projects\zstac /
//                          k\Applications\SmartApp\CC2530DB\Devices\..\..\.. /
//                          \..\..\..\Components\services\saddr\ -I           /
//                          E:\work\zigbee\ZStack-Smart-2.5.2b\Projects\zstac /
//                          k\Applications\SmartApp\CC2530DB\Devices\..\..\.. /
//                          \..\..\..\Components\services\sdata\ -I           /
//                          E:\work\zigbee\ZStack-Smart-2.5.2b\Projects\zstac /
//                          k\Applications\SmartApp\CC2530DB\Devices\..\..\.. /
//                          \..\..\..\Components\stack\af\ -I                 /
//                          E:\work\zigbee\ZStack-Smart-2.5.2b\Projects\zstac /
//                          k\Applications\SmartApp\CC2530DB\Devices\..\..\.. /
//                          \..\..\..\Components\stack\nwk\ -I                /
//                          E:\work\zigbee\ZStack-Smart-2.5.2b\Projects\zstac /
//                          k\Applications\SmartApp\CC2530DB\Devices\..\..\.. /
//                          \..\..\..\Components\stack\sapi\ -I               /
//                          E:\work\zigbee\ZStack-Smart-2.5.2b\Projects\zstac /
//                          k\Applications\SmartApp\CC2530DB\Devices\..\..\.. /
//                          \..\..\..\Components\stack\sec\ -I                /
//                          E:\work\zigbee\ZStack-Smart-2.5.2b\Projects\zstac /
//                          k\Applications\SmartApp\CC2530DB\Devices\..\..\.. /
//                          \..\..\..\Components\stack\sys\ -I                /
//                          E:\work\zigbee\ZStack-Smart-2.5.2b\Projects\zstac /
//                          k\Applications\SmartApp\CC2530DB\Devices\..\..\.. /
//                          \..\..\..\Components\stack\zdo\ -I                /
//                          E:\work\zigbee\ZStack-Smart-2.5.2b\Projects\zstac /
//                          k\Applications\SmartApp\CC2530DB\Devices\..\..\.. /
//                          \..\..\..\Components\zmac\ -I                     /
//                          E:\work\zigbee\ZStack-Smart-2.5.2b\Projects\zstac /
//                          k\Applications\SmartApp\CC2530DB\Devices\..\..\.. /
//                          \..\..\..\Components\zmac\f8w\ -Oh                /
//                          --require_prototypes                              /
//    List file          =  E:\work\zigbee\ZStack-Smart-2.5.2b\Projects\zstac /
//                          k\Applications\SmartApp\CC2530DB\bin\DemoBaseZC\L /
//                          ist\incode.s51                                    /
//                                                                            /
//                                                                            /
///////////////////////////////////////////////////////////////////////////////

        NAME incode

        RTMODEL "__SystemLibrary", "CLib"
        RTMODEL "__calling_convention", "xdata_reentrant"
        RTMODEL "__code_model", "banked"
        RTMODEL "__core", "plain"
        RTMODEL "__data_model", "large"
        RTMODEL "__dptr_size", "16"
        RTMODEL "__extended_stack", "disabled"
        RTMODEL "__location_for_constants", "data"
        RTMODEL "__number_of_dptrs", "1"
        RTMODEL "__rt_version", "1"

        RSEG DOVERLAY:DATA:NOROOT(0)
        RSEG IOVERLAY:IDATA:NOROOT(0)
        RSEG ISTACK:IDATA:NOROOT(0)
        RSEG PSTACK:XDATA:NOROOT(0)
        RSEG XSTACK:XDATA:NOROOT(0)

        EXTERN ?BANKED_ENTER_XDATA
        EXTERN ?BANKED_LEAVE_XDATA
        EXTERN ?BDISPATCH
        EXTERN ?S_SHL
        EXTERN ?V0

        PUBLIC ??atox?relay
        FUNCTION ??atox?relay,0203H
        PUBLIC ??incode_16_to_2?relay
        FUNCTION ??incode_16_to_2?relay,0203H
        PUBLIC ??incode_2_to_16?relay
        FUNCTION ??incode_2_to_16?relay,0203H
        PUBLIC atox
        FUNCTION atox,0203H
        ARGFRAME XSTACK, 0, STACK
        LOCFRAME XSTACK, 10, STACK
        PUBLIC incode_16_to_2
        FUNCTION incode_16_to_2,0203H
        ARGFRAME XSTACK, 0, STACK
        LOCFRAME XSTACK, 11, STACK
        PUBLIC incode_2_to_16
        FUNCTION incode_2_to_16,0203H
        ARGFRAME XSTACK, 0, STACK
        LOCFRAME ISTACK, 1, STACK
        LOCFRAME XSTACK, 10, STACK
        
        CFI Names cfiNames0
        CFI StackFrame CFA_SP SP IDATA
        CFI StackFrame CFA_PSP16 PSP16 XDATA
        CFI StackFrame CFA_XSP16 XSP16 XDATA
        CFI StaticOverlayFrame CFA_IOVERLAY IOVERLAY
        CFI StaticOverlayFrame CFA_DOVERLAY DOVERLAY
        CFI Resource `PSW.CY`:1, `B.BR0`:1, `B.BR1`:1, `B.BR2`:1, `B.BR3`:1
        CFI Resource `B.BR4`:1, `B.BR5`:1, `B.BR6`:1, `B.BR7`:1, `VB.BR8`:1
        CFI Resource `VB.BR9`:1, `VB.BR10`:1, `VB.BR11`:1, `VB.BR12`:1
        CFI Resource `VB.BR13`:1, `VB.BR14`:1, `VB.BR15`:1, VB:8, B:8, A:8
        CFI Resource PSW:8, DPL0:8, DPH0:8, R0:8, R1:8, R2:8, R3:8, R4:8, R5:8
        CFI Resource R6:8, R7:8, V0:8, V1:8, V2:8, V3:8, V4:8, V5:8, V6:8, V7:8
        CFI Resource V8:8, V9:8, V10:8, V11:8, V12:8, V13:8, V14:8, V15:8, SP:8
        CFI Resource PSPH:8, PSPL:8, PSP16:16, XSPH:8, XSPL:8, XSP16:16
        CFI VirtualResource ?RET:24
        CFI Resource ?BRET_EXT:8
        CFI VirtualResource ?RET_HIGH:8, ?RET_LOW:8
        CFI ResourceParts PSP16 PSPH, PSPL
        CFI ResourceParts XSP16 XSPH, XSPL
        CFI ResourceParts ?RET ?BRET_EXT, ?RET_HIGH, ?RET_LOW
        CFI EndNames cfiNames0
        
        CFI Common cfiCommon0 Using cfiNames0
        CFI CodeAlign 1
        CFI DataAlign -1
        CFI ReturnAddress ?RET CODE
        CFI CFA_DOVERLAY Used
        CFI CFA_IOVERLAY Used
        CFI CFA_SP SP+-3
        CFI CFA_PSP16 PSP16+0
        CFI CFA_XSP16 XSP16+0
        CFI `PSW.CY` SameValue
        CFI `B.BR0` SameValue
        CFI `B.BR1` SameValue
        CFI `B.BR2` SameValue
        CFI `B.BR3` SameValue
        CFI `B.BR4` SameValue
        CFI `B.BR5` SameValue
        CFI `B.BR6` SameValue
        CFI `B.BR7` SameValue
        CFI `VB.BR8` SameValue
        CFI `VB.BR9` SameValue
        CFI `VB.BR10` SameValue
        CFI `VB.BR11` SameValue
        CFI `VB.BR12` SameValue
        CFI `VB.BR13` SameValue
        CFI `VB.BR14` SameValue
        CFI `VB.BR15` SameValue
        CFI VB SameValue
        CFI B Undefined
        CFI A Undefined
        CFI PSW SameValue
        CFI DPL0 SameValue
        CFI DPH0 SameValue
        CFI R0 Undefined
        CFI R1 Undefined
        CFI R2 Undefined
        CFI R3 Undefined
        CFI R4 Undefined
        CFI R5 Undefined
        CFI R6 SameValue
        CFI R7 SameValue
        CFI V0 SameValue
        CFI V1 SameValue
        CFI V2 SameValue
        CFI V3 SameValue
        CFI V4 SameValue
        CFI V5 SameValue
        CFI V6 SameValue
        CFI V7 SameValue
        CFI V8 SameValue
        CFI V9 SameValue
        CFI V10 SameValue
        CFI V11 SameValue
        CFI V12 SameValue
        CFI V13 SameValue
        CFI V14 SameValue
        CFI V15 SameValue
        CFI PSPH Undefined
        CFI PSPL Undefined
        CFI XSPH Undefined
        CFI XSPL Undefined
        CFI ?RET Concat
        CFI ?BRET_EXT Frame(CFA_SP, 3)
        CFI ?RET_HIGH Frame(CFA_SP, 2)
        CFI ?RET_LOW Frame(CFA_SP, 1)
        CFI EndCommon cfiCommon0
        
atox                SYMBOL "atox"
??atox?relay        SYMBOL "?relay", atox
incode_16_to_2      SYMBOL "incode_16_to_2"
??incode_16_to_2?relay SYMBOL "?relay", incode_16_to_2
incode_2_to_16      SYMBOL "incode_2_to_16"
??incode_2_to_16?relay SYMBOL "?relay", incode_2_to_16

// E:\work\zigbee\ZStack-Smart-2.5.2b\Projects\zstack\Applications\SmartApp\Source\Manage\incode\incode.c
//    1 /**************************************************************************************************
//    2   Filename:       incode.c
//    3   Revised:        $Date: 2014-12-03 09:38:12 -0800 (Wed, 03 dec 2014) $
//    4   Revision:       $Revision: 29217 $
//    5 
//    6   Description:    This file contains incode application interface definitions.
//    7 **************************************************************************************************/
//    8 
//    9 /**************************************************************************************************
//   10 Create by Sam_Chen
//   11 Date:2014-12-01
//   12 **************************************************************************************************/
//   13 
//   14 /**************************************************************************************************
//   15 Modify by Sam_Chen
//   16 Date:2014-12-01
//   17 **************************************************************************************************/
//   18 
//   19 
//   20 /*********************************************************************
//   21  * INCLUDES
//   22  */
//   23 #include "incode.h"
//   24 
//   25 /*********************************************************************
//   26  * MACROS
//   27  */
//   28 
//   29 /*********************************************************************
//   30  * CONSTANTS
//   31  */
//   32 
//   33 /*********************************************************************
//   34  * EXTERNAL VARIABLES
//   35  */
//   36 
//   37 /*********************************************************************
//   38  * EXTERNAL FUNCTIONS
//   39  */
//   40  
//   41 /*********************************************************************
//   42  * GLOBAL VARIABLES
//   43  */
//   44 
//   45 /*********************************************************************
//   46  * LOCAL VARIABLES
//   47  */
//   48 
//   49 /*********************************************************************
//   50  * LOCAL FUNCTIONS
//   51  */
//   52 static uint8 ctox(uint8 src);
//   53 /*********************************************************************
//   54  * PUBLIC FUNCTIONS
//   55  */
//   56 
//   57 /***************************************************************
//   58                      二进制转化为十六进制函数
//   59 *****************************************************************/

        RSEG BANKED_CODE:CODE:NOROOT(0)
//   60 void incode_2_to_16(uint8 *dest ,uint8 *src,uint8 len)
incode_2_to_16:
        CFI Block cfiBlock0 Using cfiCommon0
        CFI Function incode_2_to_16
        CODE
//   61 {
        MOV     A,#-0xa
        LCALL   ?BANKED_ENTER_XDATA
        CFI DPH0 load(1, XDATA, add(CFA_XSP16, literal(-1)))
        CFI DPL0 load(1, XDATA, add(CFA_XSP16, literal(-2)))
        CFI ?BRET_EXT load(1, XDATA, add(CFA_XSP16, literal(-3)))
        CFI ?RET_HIGH load(1, XDATA, add(CFA_XSP16, literal(-4)))
        CFI ?RET_LOW load(1, XDATA, add(CFA_XSP16, literal(-5)))
        CFI R7 load(1, XDATA, add(CFA_XSP16, literal(-6)))
        CFI V1 load(1, XDATA, add(CFA_XSP16, literal(-7)))
        CFI V0 load(1, XDATA, add(CFA_XSP16, literal(-8)))
        CFI VB load(1, XDATA, add(CFA_XSP16, literal(-9)))
        CFI R6 load(1, XDATA, add(CFA_XSP16, literal(-10)))
        CFI CFA_SP SP+0
        CFI CFA_XSP16 add(XSP16, 10)
        ; Saved register size: 10
        ; Auto size: 0
        MOV     A,R1
        MOV     R6,A
//   62      if(len <= 0 || dest==NULL || src == NULL)
        JZ      ??incode_2_to_16_0
        MOV     A,R2
        ORL     A,R3
        JZ      ??incode_2_to_16_0
        MOV     A,R4
        ORL     A,R5
        JZ      ??incode_2_to_16_0
//   63        return ;
//   64      uint8* xad;   
//   65      uint8 i=0;
//   66      uint8 ch; 
//   67      xad=src+len-1;  
        MOV     ?V0 + 0,R6
        MOV     A,R4
        ADD     A,?V0 + 0
        MOV     R0,A
        MOV     A,R5
        ADDC    A,#0x0
        MOV     R1,A
        MOV     A,R0
        ADD     A,#-0x1
        MOV     R4,A
        MOV     A,R1
        ADDC    A,#-0x1
        MOV     R5,A
//   68      for(i=0;i<len;i++,xad--)  
        MOV     A,R2
        MOV     R0,A
        MOV     A,R3
        MOV     R1,A
        MOV     A,R6
        MOV     R7,A
//   69      {      //高位
//   70             ch= (*xad >> 4) & 0x0F;     
??incode_2_to_16_1:
        MOV     DPL,R4
        MOV     DPH,R5
        MOVX    A,@DPTR
        SWAP    A
        ANL     A,#0xf
        MOV     ?V0 + 0,A
//   71             dest[i<<1]=ch+((ch<10)?'0':'7');
        CLR     C
        SUBB    A,#0xa
        JNC     ??incode_2_to_16_2
        MOV     R2,#0x30
        SJMP    ??incode_2_to_16_3
??incode_2_to_16_2:
        MOV     R2,#0x37
??incode_2_to_16_3:
        MOV     A,R2
        ADD     A,?V0 + 0
        MOV     DPL,R0
        MOV     DPH,R1
        MOVX    @DPTR,A
//   72             //低位
//   73             ch= *xad & 0x0F;  
        MOV     DPL,R4
        MOV     DPH,R5
        MOVX    A,@DPTR
        ANL     A,#0xf
        MOV     ?V0 + 0,A
//   74             dest[(i<<1)+1]=ch+((ch<10)?'0':'7');  
        CLR     C
        SUBB    A,#0xa
        JNC     ??incode_2_to_16_4
        MOV     R2,#0x30
        SJMP    ??incode_2_to_16_5
??incode_2_to_16_4:
        MOV     R2,#0x37
??incode_2_to_16_5:
        MOV     A,R2
        ADD     A,?V0 + 0
        MOV     DPL,R0
        MOV     DPH,R1
        INC     DPTR
        MOVX    @DPTR,A
//   75             
//   76       } 
        MOV     A,R4
        ADD     A,#-0x1
        MOV     A,R5
        ADDC    A,#-0x1
        DEC     R4
        MOV     R5,A
        MOV     A,R0
        ADD     A,#0x2
        INC     R0
        INC     R0
        MOV     A,R1
        ADDC    A,#0x0
        MOV     R1,A
        DEC     R7
        MOV     A,R7
        JNZ     ??incode_2_to_16_1
        CFI EndBlock cfiBlock0
??incode_2_to_16_0:
        REQUIRE ?Subroutine0
        ; // Fall through to label ?Subroutine0
//   77 }

        RSEG BANKED_CODE:CODE:NOROOT(0)
?Subroutine0:
        CFI Block cfiBlock1 Using cfiCommon0
        CFI NoFunction
        CFI CFA_SP SP+0
        CFI CFA_XSP16 add(XSP16, 10)
        CFI VB load(1, XDATA, add(CFA_XSP16, literal(-9)))
        CFI DPL0 load(1, XDATA, add(CFA_XSP16, literal(-2)))
        CFI DPH0 load(1, XDATA, add(CFA_XSP16, literal(-1)))
        CFI R6 load(1, XDATA, add(CFA_XSP16, literal(-10)))
        CFI R7 load(1, XDATA, add(CFA_XSP16, literal(-6)))
        CFI V0 load(1, XDATA, add(CFA_XSP16, literal(-8)))
        CFI V1 load(1, XDATA, add(CFA_XSP16, literal(-7)))
        CFI ?BRET_EXT load(1, XDATA, add(CFA_XSP16, literal(-3)))
        CFI ?RET_HIGH load(1, XDATA, add(CFA_XSP16, literal(-4)))
        CFI ?RET_LOW load(1, XDATA, add(CFA_XSP16, literal(-5)))
        MOV     R7,#0x2
        LJMP    ?BANKED_LEAVE_XDATA
        CFI EndBlock cfiBlock1
//   78 
//   79 
//   80 //16 进制字符转化为十进制
//   81 uint8 ctox(uint8 src)
//   82 {
//   83 	uint8 temp = 0;
//   84 
//   85 	if(src>='0' && src<='9')
//   86 		temp = src-'0';
//   87 	else if(src>='a' && src<='f')
//   88 		temp = src-'a'+10;
//   89 	else if(src>='A' && src<='F')
//   90 		temp = src-'A'+10;
//   91 
//   92 	return temp;
//   93 }
//   94 
//   95 
//   96 //16 进制短地址字符串转化为短地址

        RSEG BANKED_CODE:CODE:NOROOT(0)
//   97 void incode_16_to_2(uint16 *dest , uint8 *src,uint8 len)
incode_16_to_2:
        CFI Block cfiBlock2 Using cfiCommon0
        CFI Function incode_16_to_2
        CODE
//   98 {
        MOV     A,#-0xb
        LCALL   ?BANKED_ENTER_XDATA
        CFI DPH0 load(1, XDATA, add(CFA_XSP16, literal(-1)))
        CFI DPL0 load(1, XDATA, add(CFA_XSP16, literal(-2)))
        CFI ?BRET_EXT load(1, XDATA, add(CFA_XSP16, literal(-3)))
        CFI ?RET_HIGH load(1, XDATA, add(CFA_XSP16, literal(-4)))
        CFI ?RET_LOW load(1, XDATA, add(CFA_XSP16, literal(-5)))
        CFI R7 load(1, XDATA, add(CFA_XSP16, literal(-6)))
        CFI V2 load(1, XDATA, add(CFA_XSP16, literal(-7)))
        CFI V1 load(1, XDATA, add(CFA_XSP16, literal(-8)))
        CFI V0 load(1, XDATA, add(CFA_XSP16, literal(-9)))
        CFI VB load(1, XDATA, add(CFA_XSP16, literal(-10)))
        CFI R6 load(1, XDATA, add(CFA_XSP16, literal(-11)))
        CFI CFA_SP SP+0
        CFI CFA_XSP16 add(XSP16, 11)
        ; Saved register size: 11
        ; Auto size: 0
//   99     if(len <= 0 || src == NULL)
        MOV     A,R1
        JZ      ??incode_16_to_2_0
        MOV     A,R4
        ORL     A,R5
        JZ      ??incode_16_to_2_0
        MOV     A,#-0x1
        ADD     A,R1
        RLC     A
        RLC     A
        ANL     A,#0xfc
        MOV     R6,A
        MOV     A,R1
        MOV     R7,A
//  100        return ;
//  101     uint8 i  = 0;
//  102     uint8 temp = 0;
//  103     for(i = 0;i< len;i++){
//  104         temp = src[i]-'0';
??incode_16_to_2_1:
        MOV     DPL,R4
        MOV     DPH,R5
        MOVX    A,@DPTR
        ADD     A,#-0x30
        MOV     R0,A
//  105         temp = (temp<=9)?temp:(temp-7);
        CLR     C
        SUBB    A,#0xa
        JNC     ??incode_16_to_2_2
        MOV     ?V0 + 2,R0
        SJMP    ??incode_16_to_2_3
??incode_16_to_2_2:
        MOV     A,#-0x7
        ADD     A,R0
        MOV     ?V0 + 2,A
//  106         *dest += (temp << ((len-1-i)<<2));
??incode_16_to_2_3:
        MOV     ?V0 + 0,?V0 + 2
        MOV     ?V0 + 1,#0x0
        MOV     A,R6
        MOV     R0,#?V0 + 0
        LCALL   ?S_SHL
        MOV     DPL,R2
        MOV     DPH,R3
        MOVX    A,@DPTR
        ADD     A,?V0 + 0
        MOVX    @DPTR,A
        INC     DPTR
        MOVX    A,@DPTR
        ADDC    A,?V0 + 1
        MOVX    @DPTR,A
//  107     }
        MOV     A,#-0x4
        ADD     A,R6
        MOV     R6,A
        MOV     DPL,R4
        MOV     DPH,R5
        INC     DPTR
        MOV     R4,DPL
        MOV     R5,DPH
        DEC     R7
        MOV     A,R7
        JNZ     ??incode_16_to_2_1
??incode_16_to_2_0:
        MOV     R7,#0x3
        LJMP    ?BANKED_LEAVE_XDATA
        CFI EndBlock cfiBlock2
//  108 }
//  109 
//  110 

        RSEG BANKED_CODE:CODE:NOROOT(0)
//  111 uint8 atox(uint8 *src, uint8 len)
atox:
        CFI Block cfiBlock3 Using cfiCommon0
        CFI Function atox
        CODE
//  112 {
        MOV     A,#-0xa
        LCALL   ?BANKED_ENTER_XDATA
        CFI DPH0 load(1, XDATA, add(CFA_XSP16, literal(-1)))
        CFI DPL0 load(1, XDATA, add(CFA_XSP16, literal(-2)))
        CFI ?BRET_EXT load(1, XDATA, add(CFA_XSP16, literal(-3)))
        CFI ?RET_HIGH load(1, XDATA, add(CFA_XSP16, literal(-4)))
        CFI ?RET_LOW load(1, XDATA, add(CFA_XSP16, literal(-5)))
        CFI R7 load(1, XDATA, add(CFA_XSP16, literal(-6)))
        CFI V1 load(1, XDATA, add(CFA_XSP16, literal(-7)))
        CFI V0 load(1, XDATA, add(CFA_XSP16, literal(-8)))
        CFI VB load(1, XDATA, add(CFA_XSP16, literal(-9)))
        CFI R6 load(1, XDATA, add(CFA_XSP16, literal(-10)))
        CFI CFA_SP SP+0
        CFI CFA_XSP16 add(XSP16, 10)
        ; Saved register size: 10
        ; Auto size: 0
        MOV     A,R1
//  113 	uint8 temp=0, i=0, length;
        MOV     R1,#0x0
        MOV     R0,#0x0
//  114 	length = len;
        MOV     R4,A
        JZ      ??atox_0
??atox_1:
        DEC     R4
//  115 
//  116 	while(length--)
//  117 	{
//  118 		temp = ctox(*(src+i)) + temp*0x10;
        MOV     ?V0 + 0,R0
        MOV     A,R2
        ADD     A,?V0 + 0
        MOV     DPL,A
        MOV     A,R3
        ADDC    A,#0x0
        MOV     DPH,A
        MOVX    A,@DPTR
        MOV     R6,A
        MOV     R7,#0x0
        MOV     A,#-0x30
        ADD     A,R6
        MOV     ?V0 + 0,A
        CLR     C
        SUBB    A,#0xa
        JNC     ??atox_2
        MOV     R7,?V0 + 0
        SJMP    ??atox_3
??atox_2:
        MOV     A,#-0x61
        ADD     A,R6
        CLR     C
        SUBB    A,#0x6
        JNC     ??atox_4
        MOV     A,#-0x57
        SJMP    ??atox_5
??atox_4:
        MOV     A,#-0x41
        ADD     A,R6
        CLR     C
        SUBB    A,#0x6
        JNC     ??atox_3
        MOV     A,#-0x37
??atox_5:
        ADD     A,R6
        MOV     R7,A
??atox_3:
        MOV     A,R1
        SWAP    A
        ANL     A,#0xf0
        ADD     A,R7
        MOV     R1,A
//  119 		i++;
        INC     R0
        MOV     A,R4
        JNZ     ??atox_1
//  120 	}
//  121 
//  122 	return temp;
??atox_0:
        LJMP    ?Subroutine0 & 0xFFFF
        CFI EndBlock cfiBlock3
//  123 }

        RSEG BANK_RELAYS:CODE:REORDER:NOROOT(0)
??incode_2_to_16?relay:
        LCALL   ?BDISPATCH
        DATA
        DC24    incode_2_to_16

        RSEG BANK_RELAYS:CODE:REORDER:NOROOT(0)
??incode_16_to_2?relay:
        LCALL   ?BDISPATCH
        DATA
        DC24    incode_16_to_2

        RSEG BANK_RELAYS:CODE:REORDER:NOROOT(0)
??atox?relay:
        LCALL   ?BDISPATCH
        DATA
        DC24    atox

        END
//  124  
// 
// 297 bytes in segment BANKED_CODE
//  18 bytes in segment BANK_RELAYS
// 
// 315 bytes of CODE memory
//
//Errors: none
//Warnings: none
