###############################################################################
#                                                                             #
# IAR C/C++ Compiler V8.10.1.10194/W32 for 8051         01/Dec/2016  17:11:31 #
# Copyright 2004-2011 IAR Systems AB.                                         #
#                                                                             #
#    Core               =  plain                                              #
#    Code model         =  banked                                             #
#    Data model         =  large                                              #
#    Calling convention =  xdata reentrant                                    #
#    Constant location  =  data_rom                                           #
#    Dptr setup         =  1,16                                               #
#    Source file        =  E:\work\zigbee\ZStack-Smart-2.5.2b\Projects\zstack #
#                          \Applications\SmartApp\Source\Manage\list.c        #
#    Command line       =  -f E:\work\zigbee\ZStack-Smart-2.5.2b\Projects\zst #
#                          ack\Applications\SmartApp\CC2530DB\Devices\..\..\. #
#                          .\..\Tools\CC2530DB\f8wCoord.cfg (-DCPU32MHZ       #
#                          -DROOT=__near_func -DMAC_CFG_APP_PENDING_QUEUE=TRU #
#                          E -DMAC_CFG_TX_DATA_MAX=5 -DMAC_CFG_TX_MAX=8       #
#                          -DMAC_CFG_RX_MAX=5 -DZDO_COORDINATOR -DRTR_NWK     #
#                          -DSSA_CONNECTOR) -f E:\work\zigbee\ZStack-Smart-2. #
#                          5.2b\Projects\zstack\Applications\SmartApp\CC2530D #
#                          B\Devices\..\..\..\..\Tools\CC2530DB\f8wConfig.cfg #
#                           (-DZIGBEEPRO -DSECURE=1 -DZG_SECURE_DYNAMIC=1     #
#                          -DREFLECTOR -DDEFAULT_CHANLIST=0x00000800          #
#                          -DZDAPP_CONFIG_PAN_ID=0xFFFF                       #
#                          -DNWK_START_DELAY=100 -DEXTENDED_JOINING_RANDOM_MA #
#                          SK=0x007F -DBEACON_REQUEST_DELAY=100               #
#                          -DBEACON_REQ_DELAY_MASK=0x00FF                     #
#                          -DLINK_STATUS_JITTER_MASK=0x007F                   #
#                          -DROUTE_EXPIRY_TIME=30 -DAPSC_ACK_WAIT_DURATION_PO #
#                          LLED=3000 -DNWK_INDIRECT_MSG_TIMEOUT=7             #
#                          -DMAX_RREQ_ENTRIES=8 -DAPSC_MAX_FRAME_RETRIES=3    #
#                          -DNWK_MAX_DATA_RETRIES=2                           #
#                          -DMAX_POLL_FAILURE_RETRIES=2 -DMAX_BCAST=9         #
#                          -DAPS_MAX_GROUPS=16 -DMAX_RTG_ENTRIES=40           #
#                          -DNWK_MAX_BINDING_ENTRIES=4                        #
#                          -DMAX_BINDING_CLUSTER_IDS=4 "-DDEFAULT_KEY={0x01,  #
#                          0x03, 0x05, 0x07, 0x09, 0x0B, 0x0D, 0x0F, 0x00,    #
#                          0x02, 0x04, 0x06, 0x08, 0x0A, 0x0C, 0x0D}"         #
#                          -DMAC_MAX_FRAME_SIZE=116                           #
#                          -DZDNWKMGR_MIN_TRANSMISSIONS=20 "-DCONST=const     #
#                          __code" -DGENERIC=__generic                        #
#                          -DRFD_RCVC_ALWAYS_ON=TRUE -DPOLL_RATE=1000         #
#                          -DQUEUED_POLL_RATE=100 -DRESPONSE_POLL_RATE=100)   #
#                          -DREJOIN_POLL_RATE=440 E:\work\zigbee\ZStack-Smart #
#                          -2.5.2b\Projects\zstack\Applications\SmartApp\Sour #
#                          ce\Manage\list.c -D SECURE=1 -D ZTOOL_P1 -D        #
#                          DEVICE_TYPE_ID=0xFE -D SIGNAL_AMPLIFIER_SETTING    #
#                          -D xPOWER_AMPLIFIER_POSITION_1 -D xNWK_AUTO_POLL   #
#                          -D xHAL_UART_DMA=2 -D xHAL_UART_DMA_ALT1 -D        #
#                          xJIAJU_BUILDIN -D MT_TASK -D MT_SYS_FUNC -D        #
#                          MT_ZDO_FUNC -D NV_INIT -D NV_RESTORE -lC           #
#                          E:\work\zigbee\ZStack-Smart-2.5.2b\Projects\zstack #
#                          \Applications\SmartApp\CC2530DB\bin\DemoBaseZC\Lis #
#                          t\ -lA E:\work\zigbee\ZStack-Smart-2.5.2b\Projects #
#                          \zstack\Applications\SmartApp\CC2530DB\bin\DemoBas #
#                          eZC\List\ --diag_suppress Pe001,Pa010 -o           #
#                          E:\work\zigbee\ZStack-Smart-2.5.2b\Projects\zstack #
#                          \Applications\SmartApp\CC2530DB\bin\DemoBaseZC\Obj #
#                          \ -e --debug --core=plain --dptr=16,1              #
#                          --data_model=large --code_model=banked             #
#                          --calling_convention=xdata_reentrant               #
#                          --place_constants=data_rom --nr_virtual_regs 16    #
#                          -I E:\work\zigbee\ZStack-Smart-2.5.2b\Projects\zst #
#                          ack\Applications\SmartApp\CC2530DB\Devices\ -I     #
#                          E:\work\zigbee\ZStack-Smart-2.5.2b\Projects\zstack #
#                          \Applications\SmartApp\CC2530DB\Devices\..\..\Sour #
#                          ce\Common\ -I E:\work\zigbee\ZStack-Smart-2.5.2b\P #
#                          rojects\zstack\Applications\SmartApp\CC2530DB\Devi #
#                          ces\..\..\Source\Connector\ -I                     #
#                          E:\work\zigbee\ZStack-Smart-2.5.2b\Projects\zstack #
#                          \Applications\SmartApp\CC2530DB\Devices\..\..\Sour #
#                          ce\\EndNode\ -I E:\work\zigbee\ZStack-Smart-2.5.2b #
#                          \Projects\zstack\Applications\SmartApp\CC2530DB\De #
#                          vices\..\..\Source\Board\ -I                       #
#                          E:\work\zigbee\ZStack-Smart-2.5.2b\Projects\zstack #
#                          \Applications\SmartApp\CC2530DB\Devices\..\..\Sour #
#                          ce\Manage\ -I E:\work\zigbee\ZStack-Smart-2.5.2b\P #
#                          rojects\zstack\Applications\SmartApp\CC2530DB\Devi #
#                          ces\..\..\Source\Manage\Callbacks\ -I              #
#                          E:\work\zigbee\ZStack-Smart-2.5.2b\Projects\zstack #
#                          \Applications\SmartApp\CC2530DB\Devices\..\..\Sour #
#                          ce\Manage\debug\ -I E:\work\zigbee\ZStack-Smart-2. #
#                          5.2b\Projects\zstack\Applications\SmartApp\CC2530D #
#                          B\Devices\..\..\Source\Manage\HeartBeat\ -I        #
#                          E:\work\zigbee\ZStack-Smart-2.5.2b\Projects\zstack #
#                          \Applications\SmartApp\CC2530DB\Devices\..\..\Sour #
#                          ce\Manage\incode\ -I E:\work\zigbee\ZStack-Smart-2 #
#                          .5.2b\Projects\zstack\Applications\SmartApp\CC2530 #
#                          DB\Devices\..\..\..\..\ZMain\TI2530DB\ -I          #
#                          E:\work\zigbee\ZStack-Smart-2.5.2b\Projects\zstack #
#                          \Applications\SmartApp\CC2530DB\Devices\..\..\..\. #
#                          .\..\..\Components\hal\include\ -I                 #
#                          E:\work\zigbee\ZStack-Smart-2.5.2b\Projects\zstack #
#                          \Applications\SmartApp\CC2530DB\Devices\..\..\..\. #
#                          .\..\..\Components\hal\target\CC2530EB\ -I         #
#                          E:\work\zigbee\ZStack-Smart-2.5.2b\Projects\zstack #
#                          \Applications\SmartApp\CC2530DB\Devices\..\..\..\. #
#                          .\..\..\Components\mac\include\ -I                 #
#                          E:\work\zigbee\ZStack-Smart-2.5.2b\Projects\zstack #
#                          \Applications\SmartApp\CC2530DB\Devices\..\..\..\. #
#                          .\..\..\Components\mac\high_level\ -I              #
#                          E:\work\zigbee\ZStack-Smart-2.5.2b\Projects\zstack #
#                          \Applications\SmartApp\CC2530DB\Devices\..\..\..\. #
#                          .\..\..\Components\mac\low_level\srf04\ -I         #
#                          E:\work\zigbee\ZStack-Smart-2.5.2b\Projects\zstack #
#                          \Applications\SmartApp\CC2530DB\Devices\..\..\..\. #
#                          .\..\..\Components\mac\low_level\srf04\single_chip #
#                          \ -I E:\work\zigbee\ZStack-Smart-2.5.2b\Projects\z #
#                          stack\Applications\SmartApp\CC2530DB\Devices\..\.. #
#                          \..\..\..\..\Components\mt\ -I                     #
#                          E:\work\zigbee\ZStack-Smart-2.5.2b\Projects\zstack #
#                          \Applications\SmartApp\CC2530DB\Devices\..\..\..\. #
#                          .\..\..\Components\osal\include\ -I                #
#                          E:\work\zigbee\ZStack-Smart-2.5.2b\Projects\zstack #
#                          \Applications\SmartApp\CC2530DB\Devices\..\..\..\. #
#                          .\..\..\Components\services\saddr\ -I              #
#                          E:\work\zigbee\ZStack-Smart-2.5.2b\Projects\zstack #
#                          \Applications\SmartApp\CC2530DB\Devices\..\..\..\. #
#                          .\..\..\Components\services\sdata\ -I              #
#                          E:\work\zigbee\ZStack-Smart-2.5.2b\Projects\zstack #
#                          \Applications\SmartApp\CC2530DB\Devices\..\..\..\. #
#                          .\..\..\Components\stack\af\ -I                    #
#                          E:\work\zigbee\ZStack-Smart-2.5.2b\Projects\zstack #
#                          \Applications\SmartApp\CC2530DB\Devices\..\..\..\. #
#                          .\..\..\Components\stack\nwk\ -I                   #
#                          E:\work\zigbee\ZStack-Smart-2.5.2b\Projects\zstack #
#                          \Applications\SmartApp\CC2530DB\Devices\..\..\..\. #
#                          .\..\..\Components\stack\sapi\ -I                  #
#                          E:\work\zigbee\ZStack-Smart-2.5.2b\Projects\zstack #
#                          \Applications\SmartApp\CC2530DB\Devices\..\..\..\. #
#                          .\..\..\Components\stack\sec\ -I                   #
#                          E:\work\zigbee\ZStack-Smart-2.5.2b\Projects\zstack #
#                          \Applications\SmartApp\CC2530DB\Devices\..\..\..\. #
#                          .\..\..\Components\stack\sys\ -I                   #
#                          E:\work\zigbee\ZStack-Smart-2.5.2b\Projects\zstack #
#                          \Applications\SmartApp\CC2530DB\Devices\..\..\..\. #
#                          .\..\..\Components\stack\zdo\ -I                   #
#                          E:\work\zigbee\ZStack-Smart-2.5.2b\Projects\zstack #
#                          \Applications\SmartApp\CC2530DB\Devices\..\..\..\. #
#                          .\..\..\Components\zmac\ -I                        #
#                          E:\work\zigbee\ZStack-Smart-2.5.2b\Projects\zstack #
#                          \Applications\SmartApp\CC2530DB\Devices\..\..\..\. #
#                          .\..\..\Components\zmac\f8w\ -Oh                   #
#                          --require_prototypes                               #
#    List file          =  E:\work\zigbee\ZStack-Smart-2.5.2b\Projects\zstack #
#                          \Applications\SmartApp\CC2530DB\bin\DemoBaseZC\Lis #
#                          t\list.lst                                         #
#    Object file        =  E:\work\zigbee\ZStack-Smart-2.5.2b\Projects\zstack #
#                          \Applications\SmartApp\CC2530DB\bin\DemoBaseZC\Obj #
#                          \list.r51                                          #
#                                                                             #
#                                                                             #
###############################################################################

E:\work\zigbee\ZStack-Smart-2.5.2b\Projects\zstack\Applications\SmartApp\Source\Manage\list.c
      1          #include "OSAL.h"
      2          #include "serial-comm.h"
      3          #include "list.h"
      4          //创建链表，头结点data=0;pNext=null
      5          

   \                                 In  segment XDATA_Z, align 1, keep-with-next
      6          Node* head = NULL;
   \                     head:
   \   000000                DS 2
   \   000002                REQUIRE __INIT_XDATA_Z

   \                                 In  segment BANKED_CODE, align 1, keep-with-next
      7          bool createNodelist(void)
   \                     createNodelist:
      8          {
   \   000000   C082         PUSH    DPL
   \   000002   C083         PUSH    DPH
   \   000004                ; Saved register size: 2
   \   000004                ; Auto size: 0
      9          	head = (Node*)osal_mem_alloc(sizeof(Node));
   \   000004                ; Setup parameters for call to function osal_mem_alloc
   \   000004   7A05         MOV     R2,#0x5
   \   000006   7B00         MOV     R3,#0x0
   \   000008   12....       LCALL   ??osal_mem_alloc?relay
   \   00000B   90....       MOV     DPTR,#head
   \   00000E   EA           MOV     A,R2
   \   00000F   F0           MOVX    @DPTR,A
   \   000010   A3           INC     DPTR
   \   000011   EB           MOV     A,R3
   \   000012   F0           MOVX    @DPTR,A
     10                  //分配一个头结点
     11          	if(NULL == head){
   \   000013   12....       LCALL   ?Subroutine2 & 0xFFFF
   \                     ??CrossCallReturnLabel_13:
   \   000016   7004         JNZ     ??createNodelist_0
     12          		return list_false;
   \   000018   7900         MOV     R1,#0x0
   \   00001A   8016         SJMP    ??createNodelist_1
     13          		}
     14          	else {
     15          		head->short_dev =0;
   \                     ??createNodelist_0:
   \   00001C   E0           MOVX    A,@DPTR
   \   00001D   F583         MOV     DPH,A
   \   00001F   8882         MOV     DPL,R0
   \   000021   E4           CLR     A
   \   000022   F0           MOVX    @DPTR,A
   \   000023   A3           INC     DPTR
   \   000024   12....       LCALL   ?Subroutine3 & 0xFFFF
     16                          head->addr_dev =0;
   \                     ??CrossCallReturnLabel_0:
   \   000027   E4           CLR     A
   \   000028   12....       LCALL   ?Subroutine3 & 0xFFFF
     17          		head->pNext = NULL;
   \                     ??CrossCallReturnLabel_1:
   \   00002B   A3           INC     DPTR
   \   00002C   E4           CLR     A
   \   00002D   F0           MOVX    @DPTR,A
   \   00002E   A3           INC     DPTR
   \   00002F   F0           MOVX    @DPTR,A
     18          		return list_true;
   \   000030   7901         MOV     R1,#0x1
     19          		}
   \                     ??createNodelist_1:
   \   000032                REQUIRE ?Subroutine0
   \   000032                ; // Fall through to label ?Subroutine0
     20          }

   \                                 In  segment BANKED_CODE, align 1, keep-with-next
   \                     ?Subroutine0:
   \   000000   D083         POP     DPH
   \   000002   D082         POP     DPL
   \   000004   02....       LJMP    ?BRET

   \                                 In  segment BANKED_CODE, align 1, keep-with-next
   \                     ?Subroutine3:
   \   000000   F0           MOVX    @DPTR,A
   \   000001   12....       LCALL   ?Subroutine8 & 0xFFFF
   \                     ??CrossCallReturnLabel_9:
   \   000004   A3           INC     DPTR
   \   000005   A3           INC     DPTR
   \   000006   22           RET

   \                                 In  segment BANKED_CODE, align 1, keep-with-next
   \                     ?Subroutine2:
   \   000000   90....       MOV     DPTR,#head
   \   000003                REQUIRE ??Subroutine9_0
   \   000003                ; // Fall through to label ??Subroutine9_0

   \                                 In  segment BANKED_CODE, align 1, keep-with-next
   \                     ??Subroutine9_0:
   \   000000   E0           MOVX    A,@DPTR
   \   000001   F8           MOV     R0,A
   \   000002   A3           INC     DPTR
   \   000003   E0           MOVX    A,@DPTR
   \   000004   F9           MOV     R1,A
   \   000005   E8           MOV     A,R0
   \   000006   49           ORL     A,R1
   \   000007   22           RET

   \                                 In  segment BANKED_CODE, align 1, keep-with-next
   \                     ?Subroutine8:
   \   000000   90....       MOV     DPTR,#head
   \   000003   E0           MOVX    A,@DPTR
   \   000004   F8           MOV     R0,A
   \   000005   A3           INC     DPTR
   \   000006   E0           MOVX    A,@DPTR
   \   000007   F583         MOV     DPH,A
   \   000009   8882         MOV     DPL,R0
   \   00000B   22           RET
     21          
     22          //增加节点尾部添加

   \                                 In  segment BANKED_CODE, align 1, keep-with-next
     23          bool addNode(Node * node)
   \                     addNode:
     24          {
   \   000000   74F7         MOV     A,#-0x9
   \   000002   12....       LCALL   ?BANKED_ENTER_XDATA
   \   000005                ; Saved register size: 9
   \   000005                ; Auto size: 0
     25          	if(NULL == head){
   \   000005   12....       LCALL   ?Subroutine2 & 0xFFFF
   \                     ??CrossCallReturnLabel_14:
   \   000008   7004         JNZ     ??addNode_0
     26          	  return list_false;
   \   00000A   7900         MOV     R1,#0x0
   \   00000C   8033         SJMP    ??addNode_1
     27          		}
     28          	Node* p = head ->pNext;
   \                     ??addNode_0:
   \   00000E   12....       LCALL   ?Subroutine5 & 0xFFFF
   \                     ??CrossCallReturnLabel_4:
   \   000011   F8           MOV     R0,A
   \   000012   A3           INC     DPTR
   \   000013   E0           MOVX    A,@DPTR
   \   000014   F9           MOV     R1,A
     29          	Node* q = head;
   \   000015   90....       MOV     DPTR,#head
   \   000018   E0           MOVX    A,@DPTR
   \   000019   FC           MOV     R4,A
   \   00001A   A3           INC     DPTR
   \   00001B   E0           MOVX    A,@DPTR
   \   00001C   FD           MOV     R5,A
     30          	while(NULL !=p){
   \   00001D   E8           MOV     A,R0
   \   00001E   49           ORL     A,R1
   \   00001F   6010         JZ      ??addNode_2
     31          		q = p;
   \                     ??addNode_3:
   \   000021   E8           MOV     A,R0
   \   000022   FC           MOV     R4,A
   \   000023   E9           MOV     A,R1
   \   000024   FD           MOV     R5,A
     32          		p = p->pNext;
   \   000025   8882         MOV     DPL,R0
   \   000027   8983         MOV     DPH,R1
   \   000029   A3           INC     DPTR
   \   00002A   A3           INC     DPTR
   \   00002B   A3           INC     DPTR
   \   00002C   12....       LCALL   ??Subroutine9_0 & 0xFFFF
     33          		}
   \                     ??CrossCallReturnLabel_11:
   \   00002F   70F0         JNZ     ??addNode_3
     34          	q->pNext = node;
   \                     ??addNode_2:
   \   000031   8C82         MOV     DPL,R4
   \   000033   8D83         MOV     DPH,R5
   \   000035   A3           INC     DPTR
   \   000036   A3           INC     DPTR
   \   000037   A3           INC     DPTR
   \   000038   EA           MOV     A,R2
   \   000039   F0           MOVX    @DPTR,A
   \   00003A   A3           INC     DPTR
   \   00003B   EB           MOV     A,R3
   \   00003C   12....       LCALL   ?Subroutine4 & 0xFFFF
     35          	node ->pNext = NULL;	
     36          	return list_true;
   \                     ??CrossCallReturnLabel_2:
   \   00003F   7901         MOV     R1,#0x1
   \                     ??addNode_1:
   \   000041                REQUIRE ?Subroutine1
   \   000041                ; // Fall through to label ?Subroutine1
     37          }

   \                                 In  segment BANKED_CODE, align 1, keep-with-next
   \                     ?Subroutine1:
   \   000000   7F01         MOV     R7,#0x1
   \   000002   02....       LJMP    ?BANKED_LEAVE_XDATA

   \                                 In  segment BANKED_CODE, align 1, keep-with-next
   \                     ?Subroutine5:
   \   000000   12....       LCALL   ?Subroutine7 & 0xFFFF
   \                     ??CrossCallReturnLabel_7:
   \   000003   E0           MOVX    A,@DPTR
   \   000004   22           RET

   \                                 In  segment BANKED_CODE, align 1, keep-with-next
   \                     ?Subroutine7:
   \   000000   E0           MOVX    A,@DPTR
   \   000001   F583         MOV     DPH,A
   \   000003   8882         MOV     DPL,R0
   \   000005   A3           INC     DPTR
   \   000006   A3           INC     DPTR
   \   000007   A3           INC     DPTR
   \   000008   22           RET

   \                                 In  segment BANKED_CODE, align 1, keep-with-next
   \                     ?Subroutine4:
   \   000000   F0           MOVX    @DPTR,A
   \   000001   8A82         MOV     DPL,R2
   \   000003   8B83         MOV     DPH,R3
   \   000005   A3           INC     DPTR
   \   000006   A3           INC     DPTR
   \   000007   A3           INC     DPTR
   \   000008   E4           CLR     A
   \   000009   F0           MOVX    @DPTR,A
   \   00000A   A3           INC     DPTR
   \   00000B   F0           MOVX    @DPTR,A
   \   00000C   22           RET
     38          
     39          //删除节点

   \                                 In  segment BANKED_CODE, align 1, keep-with-next
     40          bool deleteNode(uint8 index)
   \                     deleteNode:
     41          {
   \   000000   C082         PUSH    DPL
   \   000002   C083         PUSH    DPH
   \   000004                ; Saved register size: 2
   \   000004                ; Auto size: 0
   \   000004   E9           MOV     A,R1
   \   000005   FC           MOV     R4,A
     42          	if(NULL == head){
   \   000006   12....       LCALL   ?Subroutine2 & 0xFFFF
   \                     ??CrossCallReturnLabel_15:
   \   000009   7004         JNZ     ??deleteNode_0
     43          	return list_false;
   \                     ??deleteNode_1:
   \   00000B   7900         MOV     R1,#0x0
   \   00000D   8055         SJMP    ??deleteNode_2
     44          		}
     45          	Node* perior = head;
   \                     ??deleteNode_0:
   \   00000F   12....       LCALL   ?Subroutine6 & 0xFFFF
     46          	Node* q = head->pNext;
   \                     ??CrossCallReturnLabel_20:
   \   000012   F583         MOV     DPH,A
   \   000014   8882         MOV     DPL,R0
   \   000016   8008         SJMP    ??deleteNode_3
     47          	while((q!=NULL)&&(q->addr_dev != index))
     48          		{
     49          		perior = q;
   \                     ??deleteNode_4:
   \   000018   E8           MOV     A,R0
   \   000019   FA           MOV     R2,A
   \   00001A   E9           MOV     A,R1
   \   00001B   FB           MOV     R3,A
     50          		q = q->pNext;
   \   00001C   8882         MOV     DPL,R0
   \   00001E   8983         MOV     DPH,R1
   \                     ??deleteNode_3:
   \   000020   A3           INC     DPTR
   \   000021   A3           INC     DPTR
   \   000022   A3           INC     DPTR
   \   000023   E0           MOVX    A,@DPTR
   \   000024   F8           MOV     R0,A
   \   000025   A3           INC     DPTR
   \   000026   E0           MOVX    A,@DPTR
   \   000027   F9           MOV     R1,A
     51          		}
   \   000028   E8           MOV     A,R0
   \   000029   2402         ADD     A,#0x2
   \   00002B   F582         MOV     DPL,A
   \   00002D   E9           MOV     A,R1
   \   00002E   3400         ADDC    A,#0x0
   \   000030   F583         MOV     DPH,A
   \   000032   E8           MOV     A,R0
   \   000033   49           ORL     A,R1
   \   000034   6004         JZ      ??deleteNode_5
   \   000036   E0           MOVX    A,@DPTR
   \   000037   6C           XRL     A,R4
   \   000038   70DE         JNZ     ??deleteNode_4
     52          	if(q->addr_dev == index)
   \                     ??deleteNode_5:
   \   00003A   E0           MOVX    A,@DPTR
   \   00003B   6C           XRL     A,R4
   \   00003C   70CD         JNZ     ??deleteNode_1
   \   00003E   8882         MOV     DPL,R0
   \   000040   8983         MOV     DPH,R1
   \   000042   A3           INC     DPTR
   \   000043   A3           INC     DPTR
   \   000044   A3           INC     DPTR
   \   000045   E0           MOVX    A,@DPTR
   \   000046   F8           MOV     R0,A
   \   000047   A3           INC     DPTR
   \   000048   E0           MOVX    A,@DPTR
   \   000049   F9           MOV     R1,A
   \   00004A   EA           MOV     A,R2
   \   00004B   2403         ADD     A,#0x3
   \   00004D   F582         MOV     DPL,A
   \   00004F   EB           MOV     A,R3
   \   000050   3400         ADDC    A,#0x0
   \   000052   F583         MOV     DPH,A
   \   000054   E8           MOV     A,R0
   \   000055   49           ORL     A,R1
   \   000056   7005         JNZ     ??deleteNode_6
     53          		{
     54          		if(q->pNext == NULL)
     55          			{
     56          			perior->pNext = NULL;
   \   000058   E4           CLR     A
   \   000059   F0           MOVX    @DPTR,A
   \   00005A   A3           INC     DPTR
   \   00005B   8004         SJMP    ??deleteNode_7
     57          			return list_true;
     58          			}
     59          		else
     60          			{
     61          			perior->pNext = q->pNext;
   \                     ??deleteNode_6:
   \   00005D   E8           MOV     A,R0
   \   00005E   F0           MOVX    @DPTR,A
   \   00005F   A3           INC     DPTR
   \   000060   E9           MOV     A,R1
   \                     ??deleteNode_7:
   \   000061   F0           MOVX    @DPTR,A
     62          			return list_true;
   \   000062   7901         MOV     R1,#0x1
     63          			}
     64          		}
   \                     ??deleteNode_2:
   \   000064   02....       LJMP    ?Subroutine0 & 0xFFFF
     65                  return list_false;
     66          }

   \                                 In  segment BANKED_CODE, align 1, keep-with-next
   \                     ?Subroutine6:
   \   000000   90....       MOV     DPTR,#head
   \   000003                REQUIRE ??Subroutine10_0
   \   000003                ; // Fall through to label ??Subroutine10_0

   \                                 In  segment BANKED_CODE, align 1, keep-with-next
   \                     ??Subroutine10_0:
   \   000000   E0           MOVX    A,@DPTR
   \   000001   FA           MOV     R2,A
   \   000002   A3           INC     DPTR
   \   000003   E0           MOVX    A,@DPTR
   \   000004   FB           MOV     R3,A
   \   000005   22           RET
     67          
     68          //销毁

   \                                 In  segment BANKED_CODE, align 1, keep-with-next
     69          void destroyNodeList(void)
   \                     destroyNodeList:
     70          {
   \   000000   74F7         MOV     A,#-0x9
   \   000002   12....       LCALL   ?BANKED_ENTER_XDATA
   \   000005                ; Saved register size: 9
   \   000005                ; Auto size: 0
     71          	if(NULL == head){
   \   000005   12....       LCALL   ?Subroutine2 & 0xFFFF
   \                     ??CrossCallReturnLabel_16:
   \   000008   6018         JZ      ??destroyNodeList_0
     72          		return;
     73          		}
     74          	if(NULL == head->pNext){
   \   00000A   12....       LCALL   ?Subroutine5 & 0xFFFF
   \                     ??CrossCallReturnLabel_5:
   \   00000D   FE           MOV     R6,A
   \   00000E   A3           INC     DPTR
   \   00000F   E0           MOVX    A,@DPTR
   \   000010   FF           MOV     R7,A
   \   000011   EE           MOV     A,R6
   \   000012   4F           ORL     A,R7
   \   000013   7010         JNZ     ??destroyNodeList_1
     75          		osal_mem_free(head);
   \                     ??destroyNodeList_2:
   \   000015                ; Setup parameters for call to function osal_mem_free
   \   000015   12....       LCALL   ?Subroutine6 & 0xFFFF
   \                     ??CrossCallReturnLabel_21:
   \   000018   12....       LCALL   ??osal_mem_free?relay
     76          		head =NULL;
   \   00001B   90....       MOV     DPTR,#head
   \   00001E   E4           CLR     A
   \   00001F   F0           MOVX    @DPTR,A
   \   000020   A3           INC     DPTR
   \   000021   F0           MOVX    @DPTR,A
     77          		return;
     78          		}
   \                     ??destroyNodeList_0:
   \   000022   02....       LJMP    ?Subroutine1 & 0xFFFF
     79          	Node* p = head->pNext;
     80          	while(NULL != p){
     81          		Node* tmp =p;
   \                     ??destroyNodeList_1:
   \   000025   EE           MOV     A,R6
   \   000026   FA           MOV     R2,A
   \   000027   EF           MOV     A,R7
   \   000028   FB           MOV     R3,A
     82          		p = p->pNext;
   \   000029   8E82         MOV     DPL,R6
   \   00002B   8F83         MOV     DPH,R7
   \   00002D   A3           INC     DPTR
   \   00002E   A3           INC     DPTR
   \   00002F   A3           INC     DPTR
   \   000030   E0           MOVX    A,@DPTR
   \   000031   FE           MOV     R6,A
   \   000032   A3           INC     DPTR
   \   000033   E0           MOVX    A,@DPTR
   \   000034   FF           MOV     R7,A
     83          		osal_mem_free(tmp);
   \   000035                ; Setup parameters for call to function osal_mem_free
   \   000035   12....       LCALL   ??osal_mem_free?relay
   \   000038   EE           MOV     A,R6
   \   000039   4F           ORL     A,R7
   \   00003A   60D9         JZ      ??destroyNodeList_2
   \   00003C   80E7         SJMP    ??destroyNodeList_1
     84          		}
     85          	osal_mem_free(head);
     86          	head = NULL;
     87          }
     88          
     89          

   \                                 In  segment BANKED_CODE, align 1, keep-with-next
     90          bool setNodeList(uint8 *buf, uint16 len)
   \                     setNodeList:
     91          {
   \   000000   74F4         MOV     A,#-0xc
   \   000002   12....       LCALL   ?BANKED_ENTER_XDATA
   \   000005                ; Saved register size: 12
   \   000005                ; Auto size: 3
   \   000005   74FD         MOV     A,#-0x3
   \   000007   12....       LCALL   ?ALLOC_XSTACK8
     92              uint16 dev_shortaddr;
     93              uint8 dev_addr;
     94              uint8 flag=1;
   \   00000A   75..01       MOV     ?V0 + 3,#0x1
     95              uint8 data_buf[3];
     96              osal_memcpy(data_buf,buf,len);
   \   00000D                ; Setup parameters for call to function osal_memcpy
   \   00000D   8A..         MOV     ?V0 + 0,R2
   \   00000F   8B..         MOV     ?V0 + 1,R3
   \   000011   75..00       MOV     ?V0 + 2,#0x0
   \   000014   78..         MOV     R0,#?V0 + 0
   \   000016   12....       LCALL   ?PUSH_XSTACK_I_THREE
   \   000019   7403         MOV     A,#0x3
   \   00001B   12....       LCALL   ?XSTACK_DISP0_8
   \   00001E   AA82         MOV     R2,DPL
   \   000020   AB83         MOV     R3,DPH
   \   000022   12....       LCALL   ??osal_memcpy?relay
   \   000025   7403         MOV     A,#0x3
   \   000027   12....       LCALL   ?DEALLOC_XSTACK8
     97              dev_shortaddr=(uint16)(data_buf[0])<<8 | (uint16)data_buf[1];
   \   00002A   85..82       MOV     DPL,?XSP + 0
   \   00002D   85..83       MOV     DPH,?XSP + 1
   \   000030   E0           MOVX    A,@DPTR
   \   000031   F9           MOV     R1,A
   \   000032   7401         MOV     A,#0x1
   \   000034   12....       LCALL   ?XSTACK_DISP0_8
   \   000037   E0           MOVX    A,@DPTR
   \   000038   FE           MOV     R6,A
   \   000039   E9           MOV     A,R1
   \   00003A   FF           MOV     R7,A
     98              dev_addr=data_buf[2];
   \   00003B   7402         MOV     A,#0x2
   \   00003D   12....       LCALL   ?XSTACK_DISP0_8
   \   000040   E0           MOVX    A,@DPTR
   \   000041   F5..         MOV     ?V0 + 0,A
     99              if(NULL == head)
   \   000043   12....       LCALL   ?Subroutine2 & 0xFFFF
   \                     ??CrossCallReturnLabel_17:
   \   000046   7004         JNZ     ??setNodeList_0
    100              {
    101                return list_false;
   \   000048   7900         MOV     R1,#0x0
   \   00004A   8051         SJMP    ??setNodeList_1
    102              }
    103              Node* p = head->pNext;
   \                     ??setNodeList_0:
   \   00004C   12....       LCALL   ?Subroutine7 & 0xFFFF
   \                     ??CrossCallReturnLabel_6:
   \   00004F   12....       LCALL   ??Subroutine9_0 & 0xFFFF
    104              while(NULL !=p)
   \                     ??CrossCallReturnLabel_10:
   \   000052   6029         JZ      ??setNodeList_2
    105              {
    106                if(p->addr_dev==dev_addr)
   \                     ??setNodeList_3:
   \   000054   8882         MOV     DPL,R0
   \   000056   8983         MOV     DPH,R1
   \   000058   A3           INC     DPTR
   \   000059   A3           INC     DPTR
   \   00005A   E0           MOVX    A,@DPTR
   \   00005B   65..         XRL     A,?V0 + 0
   \   00005D   700C         JNZ     ??setNodeList_4
    107                {
    108                  flag=0;
   \   00005F   75..00       MOV     ?V0 + 3,#0x0
    109                  p->short_dev=dev_shortaddr;//if in the list,cover the short_de
   \   000062   8882         MOV     DPL,R0
   \   000064   8983         MOV     DPH,R1
   \   000066   EE           MOV     A,R6
   \   000067   F0           MOVX    @DPTR,A
   \   000068   A3           INC     DPTR
   \   000069   EF           MOV     A,R7
   \   00006A   F0           MOVX    @DPTR,A
    110                }
    111                p = p->pNext;
   \                     ??setNodeList_4:
   \   00006B   8882         MOV     DPL,R0
   \   00006D   8983         MOV     DPH,R1
   \   00006F   A3           INC     DPTR
   \   000070   A3           INC     DPTR
   \   000071   A3           INC     DPTR
   \   000072   12....       LCALL   ??Subroutine9_0 & 0xFFFF
    112              }
   \                     ??CrossCallReturnLabel_12:
   \   000075   70DD         JNZ     ??setNodeList_3
    113              if(1==flag)
   \   000077   E5..         MOV     A,?V0 + 3
   \   000079   A2E0         MOV     C,0xE0 /* A   */.0
   \   00007B   501E         JNC     ??setNodeList_5
    114              {
    115                 Node *node = (Node*)osal_mem_alloc(sizeof(Node));
   \                     ??setNodeList_2:
   \   00007D                ; Setup parameters for call to function osal_mem_alloc
   \   00007D   7A05         MOV     R2,#0x5
   \   00007F   7B00         MOV     R3,#0x0
   \   000081   12....       LCALL   ??osal_mem_alloc?relay
    116                 node->short_dev=dev_shortaddr;
   \   000084   8A82         MOV     DPL,R2
   \   000086   8B83         MOV     DPH,R3
   \   000088   EE           MOV     A,R6
   \   000089   F0           MOVX    @DPTR,A
   \   00008A   A3           INC     DPTR
   \   00008B   EF           MOV     A,R7
   \   00008C   F0           MOVX    @DPTR,A
    117                 node->addr_dev=dev_addr;
   \   00008D   8A82         MOV     DPL,R2
   \   00008F   8B83         MOV     DPH,R3
   \   000091   A3           INC     DPTR
   \   000092   A3           INC     DPTR
   \   000093   E5..         MOV     A,?V0 + 0
   \   000095   12....       LCALL   ?Subroutine4 & 0xFFFF
    118                 node->pNext=NULL;
    119                 addNode(node);
   \                     ??CrossCallReturnLabel_3:
   \   000098                ; Setup parameters for call to function addNode
   \   000098   12....       LCALL   ??addNode?relay
    120              }
    121              return list_true;
   \                     ??setNodeList_5:
   \   00009B   7901         MOV     R1,#0x1
   \                     ??setNodeList_1:
   \   00009D   7403         MOV     A,#0x3
   \   00009F   12....       LCALL   ?DEALLOC_XSTACK8
   \   0000A2   7F04         MOV     R7,#0x4
   \   0000A4   02....       LJMP    ?BANKED_LEAVE_XDATA
    122          }
    123          

   \                                 In  segment BANKED_CODE, align 1, keep-with-next
    124          uint16 get_NodeList(uint8 dev)
   \                     get_NodeList:
    125          {
   \   000000   C082         PUSH    DPL
   \   000002   C083         PUSH    DPH
   \   000004                ; Saved register size: 2
   \   000004                ; Auto size: 0
    126             Node* p = head->pNext;
   \   000004   12....       LCALL   ?Subroutine8 & 0xFFFF
    127            while(NULL != p)
    128            {
    129              if(p->addr_dev==dev)
    130              {
    131               return p->short_dev;
    132              }
    133              else
    134              p=p->pNext;
   \                     ??CrossCallReturnLabel_8:
   \   000007   A3           INC     DPTR
   \   000008   A3           INC     DPTR
   \   000009   A3           INC     DPTR
   \   00000A   12....       LCALL   ??Subroutine10_0 & 0xFFFF
   \                     ??CrossCallReturnLabel_18:
   \   00000D   EA           MOV     A,R2
   \   00000E   4B           ORL     A,R3
   \   00000F   6013         JZ      ??get_NodeList_0
   \   000011   8A82         MOV     DPL,R2
   \   000013   8B83         MOV     DPH,R3
   \   000015   A3           INC     DPTR
   \   000016   A3           INC     DPTR
   \   000017   E0           MOVX    A,@DPTR
   \   000018   69           XRL     A,R1
   \   000019   8A82         MOV     DPL,R2
   \   00001B   8B83         MOV     DPH,R3
   \   00001D   70E8         JNZ     ??CrossCallReturnLabel_8
   \   00001F   12....       LCALL   ??Subroutine10_0 & 0xFFFF
    135            }
   \                     ??CrossCallReturnLabel_19:
   \   000022   8004         SJMP    ??get_NodeList_1
    136            return 0;
   \                     ??get_NodeList_0:
   \   000024   7A00         MOV     R2,#0x0
   \   000026   7B00         MOV     R3,#0x0
   \                     ??get_NodeList_1:
   \   000028   02....       LJMP    ?Subroutine0 & 0xFFFF
    137          }

   \                                 In  segment BANK_RELAYS, align 1
   \                     ??createNodelist?relay:
   \   000000   12....       LCALL   ?BDISPATCH
   \   000003   ......       DC24    createNodelist

   \                                 In  segment BANK_RELAYS, align 1
   \                     ??addNode?relay:
   \   000000   12....       LCALL   ?BDISPATCH
   \   000003   ......       DC24    addNode

   \                                 In  segment BANK_RELAYS, align 1
   \                     ??deleteNode?relay:
   \   000000   12....       LCALL   ?BDISPATCH
   \   000003   ......       DC24    deleteNode

   \                                 In  segment BANK_RELAYS, align 1
   \                     ??destroyNodeList?relay:
   \   000000   12....       LCALL   ?BDISPATCH
   \   000003   ......       DC24    destroyNodeList

   \                                 In  segment BANK_RELAYS, align 1
   \                     ??setNodeList?relay:
   \   000000   12....       LCALL   ?BDISPATCH
   \   000003   ......       DC24    setNodeList

   \                                 In  segment BANK_RELAYS, align 1
   \                     ??get_NodeList?relay:
   \   000000   12....       LCALL   ?BDISPATCH
   \   000003   ......       DC24    get_NodeList

   Maximum stack usage in bytes:

     Function            ISTACK PSTACK XSTACK
     --------            ------ ------ ------
     addNode                 0      0     24
     createNodelist          2      0      0
       -> osal_mem_alloc     4      0      0
     deleteNode              2      0      0
     destroyNodeList         0      0      9
       -> osal_mem_free      0      0     18
       -> osal_mem_free      0      0     18
     get_NodeList            2      0      0
     setNodeList             1      0     18
       -> osal_memcpy        0      0     36
       -> osal_mem_alloc     0      0     30
       -> addNode            0      0     30


   Segment part sizes:

     Function/Label          Bytes
     --------------          -----
     head                       2
     createNodelist            50
     ?Subroutine0               7
     ?Subroutine3               7
     ?Subroutine2               3
     ??Subroutine9_0            8
     ?Subroutine8              12
     addNode                   65
     ?Subroutine1               5
     ?Subroutine5               5
     ?Subroutine7               9
     ?Subroutine4              13
     deleteNode               103
     ?Subroutine6               3
     ??Subroutine10_0           6
     destroyNodeList           62
     setNodeList              167
     get_NodeList              43
     ??createNodelist?relay     6
     ??addNode?relay            6
     ??deleteNode?relay         6
     ??destroyNodeList?relay    6
     ??setNodeList?relay        6
     ??get_NodeList?relay       6

 
 568 bytes in segment BANKED_CODE
  36 bytes in segment BANK_RELAYS
   2 bytes in segment XDATA_Z
 
 604 bytes of CODE  memory
   2 bytes of XDATA memory

Errors: none
Warnings: none
