###############################################################################
#                                                                             #
# IAR C/C++ Compiler V8.10.1.10194/W32 for 8051         24/Nov/2016  14:18:07 #
# Copyright 2004-2011 IAR Systems AB.                                         #
#                                                                             #
#    Core               =  plain                                              #
#    Code model         =  banked                                             #
#    Data model         =  large                                              #
#    Calling convention =  xdata reentrant                                    #
#    Constant location  =  data_rom                                           #
#    Dptr setup         =  1,16                                               #
#    Source file        =  E:\work\zigbee\ZStack-Smart-2.5.2b\Projects\zstack #
#                          \Applications\SmartApp\Source\Manage\serial-comm.c #
#    Command line       =  -f E:\work\zigbee\ZStack-Smart-2.5.2b\Projects\zst #
#                          ack\Applications\SmartApp\CC2530DB\Devices\..\..\. #
#                          .\..\Tools\CC2530DB\f8wCoord.cfg (-DCPU32MHZ       #
#                          -DROOT=__near_func -DMAC_CFG_APP_PENDING_QUEUE=TRU #
#                          E -DMAC_CFG_TX_DATA_MAX=5 -DMAC_CFG_TX_MAX=8       #
#                          -DMAC_CFG_RX_MAX=5 -DZDO_COORDINATOR -DRTR_NWK     #
#                          -DSSA_CONNECTOR) -f E:\work\zigbee\ZStack-Smart-2. #
#                          5.2b\Projects\zstack\Applications\SmartApp\CC2530D #
#                          B\Devices\..\..\..\..\Tools\CC2530DB\f8wConfig.cfg #
#                           (-DZIGBEEPRO -DSECURE=1 -DZG_SECURE_DYNAMIC=1     #
#                          -DREFLECTOR -DDEFAULT_CHANLIST=0x00000800          #
#                          -DZDAPP_CONFIG_PAN_ID=0xFFFF                       #
#                          -DNWK_START_DELAY=100 -DEXTENDED_JOINING_RANDOM_MA #
#                          SK=0x007F -DBEACON_REQUEST_DELAY=100               #
#                          -DBEACON_REQ_DELAY_MASK=0x00FF                     #
#                          -DLINK_STATUS_JITTER_MASK=0x007F                   #
#                          -DROUTE_EXPIRY_TIME=30 -DAPSC_ACK_WAIT_DURATION_PO #
#                          LLED=3000 -DNWK_INDIRECT_MSG_TIMEOUT=7             #
#                          -DMAX_RREQ_ENTRIES=8 -DAPSC_MAX_FRAME_RETRIES=3    #
#                          -DNWK_MAX_DATA_RETRIES=2                           #
#                          -DMAX_POLL_FAILURE_RETRIES=2 -DMAX_BCAST=9         #
#                          -DAPS_MAX_GROUPS=16 -DMAX_RTG_ENTRIES=40           #
#                          -DNWK_MAX_BINDING_ENTRIES=4                        #
#                          -DMAX_BINDING_CLUSTER_IDS=4 "-DDEFAULT_KEY={0x01,  #
#                          0x03, 0x05, 0x07, 0x09, 0x0B, 0x0D, 0x0F, 0x00,    #
#                          0x02, 0x04, 0x06, 0x08, 0x0A, 0x0C, 0x0D}"         #
#                          -DMAC_MAX_FRAME_SIZE=116                           #
#                          -DZDNWKMGR_MIN_TRANSMISSIONS=20 "-DCONST=const     #
#                          __code" -DGENERIC=__generic                        #
#                          -DRFD_RCVC_ALWAYS_ON=FALSE -DPOLL_RATE=600         #
#                          -DQUEUED_POLL_RATE=100 -DRESPONSE_POLL_RATE=100)   #
#                          -DREJOIN_POLL_RATE=440 E:\work\zigbee\ZStack-Smart #
#                          -2.5.2b\Projects\zstack\Applications\SmartApp\Sour #
#                          ce\Manage\serial-comm.c -D SECURE=1 -D ZTOOL_P1    #
#                          -D DEVICE_TYPE_ID=0xFE -D                          #
#                          SIGNAL_AMPLIFIER_SETTING -D                        #
#                          xPOWER_AMPLIFIER_POSITION_1 -D xNWK_AUTO_POLL -D   #
#                          xHAL_UART_DMA=2 -D xHAL_UART_DMA_ALT1 -D           #
#                          xJIAJU_BUILDIN -D MT_TASK -D MT_SYS_FUNC -D        #
#                          MT_ZDO_FUNC -D NV_INIT -D NV_RESTORE -lC           #
#                          E:\work\zigbee\ZStack-Smart-2.5.2b\Projects\zstack #
#                          \Applications\SmartApp\CC2530DB\bin\DemoBaseZC\Lis #
#                          t\ -lA E:\work\zigbee\ZStack-Smart-2.5.2b\Projects #
#                          \zstack\Applications\SmartApp\CC2530DB\bin\DemoBas #
#                          eZC\List\ --diag_suppress Pe001,Pa010 -o           #
#                          E:\work\zigbee\ZStack-Smart-2.5.2b\Projects\zstack #
#                          \Applications\SmartApp\CC2530DB\bin\DemoBaseZC\Obj #
#                          \ -e --debug --core=plain --dptr=16,1              #
#                          --data_model=large --code_model=banked             #
#                          --calling_convention=xdata_reentrant               #
#                          --place_constants=data_rom --nr_virtual_regs 16    #
#                          -I E:\work\zigbee\ZStack-Smart-2.5.2b\Projects\zst #
#                          ack\Applications\SmartApp\CC2530DB\Devices\ -I     #
#                          E:\work\zigbee\ZStack-Smart-2.5.2b\Projects\zstack #
#                          \Applications\SmartApp\CC2530DB\Devices\..\..\Sour #
#                          ce\Common\ -I E:\work\zigbee\ZStack-Smart-2.5.2b\P #
#                          rojects\zstack\Applications\SmartApp\CC2530DB\Devi #
#                          ces\..\..\Source\Connector\ -I                     #
#                          E:\work\zigbee\ZStack-Smart-2.5.2b\Projects\zstack #
#                          \Applications\SmartApp\CC2530DB\Devices\..\..\Sour #
#                          ce\\EndNode\ -I E:\work\zigbee\ZStack-Smart-2.5.2b #
#                          \Projects\zstack\Applications\SmartApp\CC2530DB\De #
#                          vices\..\..\Source\Board\ -I                       #
#                          E:\work\zigbee\ZStack-Smart-2.5.2b\Projects\zstack #
#                          \Applications\SmartApp\CC2530DB\Devices\..\..\Sour #
#                          ce\Manage\ -I E:\work\zigbee\ZStack-Smart-2.5.2b\P #
#                          rojects\zstack\Applications\SmartApp\CC2530DB\Devi #
#                          ces\..\..\Source\Manage\Callbacks\ -I              #
#                          E:\work\zigbee\ZStack-Smart-2.5.2b\Projects\zstack #
#                          \Applications\SmartApp\CC2530DB\Devices\..\..\Sour #
#                          ce\Manage\debug\ -I E:\work\zigbee\ZStack-Smart-2. #
#                          5.2b\Projects\zstack\Applications\SmartApp\CC2530D #
#                          B\Devices\..\..\Source\Manage\HeartBeat\ -I        #
#                          E:\work\zigbee\ZStack-Smart-2.5.2b\Projects\zstack #
#                          \Applications\SmartApp\CC2530DB\Devices\..\..\Sour #
#                          ce\Manage\incode\ -I E:\work\zigbee\ZStack-Smart-2 #
#                          .5.2b\Projects\zstack\Applications\SmartApp\CC2530 #
#                          DB\Devices\..\..\..\..\ZMain\TI2530DB\ -I          #
#                          E:\work\zigbee\ZStack-Smart-2.5.2b\Projects\zstack #
#                          \Applications\SmartApp\CC2530DB\Devices\..\..\..\. #
#                          .\..\..\Components\hal\include\ -I                 #
#                          E:\work\zigbee\ZStack-Smart-2.5.2b\Projects\zstack #
#                          \Applications\SmartApp\CC2530DB\Devices\..\..\..\. #
#                          .\..\..\Components\hal\target\CC2530EB\ -I         #
#                          E:\work\zigbee\ZStack-Smart-2.5.2b\Projects\zstack #
#                          \Applications\SmartApp\CC2530DB\Devices\..\..\..\. #
#                          .\..\..\Components\mac\include\ -I                 #
#                          E:\work\zigbee\ZStack-Smart-2.5.2b\Projects\zstack #
#                          \Applications\SmartApp\CC2530DB\Devices\..\..\..\. #
#                          .\..\..\Components\mac\high_level\ -I              #
#                          E:\work\zigbee\ZStack-Smart-2.5.2b\Projects\zstack #
#                          \Applications\SmartApp\CC2530DB\Devices\..\..\..\. #
#                          .\..\..\Components\mac\low_level\srf04\ -I         #
#                          E:\work\zigbee\ZStack-Smart-2.5.2b\Projects\zstack #
#                          \Applications\SmartApp\CC2530DB\Devices\..\..\..\. #
#                          .\..\..\Components\mac\low_level\srf04\single_chip #
#                          \ -I E:\work\zigbee\ZStack-Smart-2.5.2b\Projects\z #
#                          stack\Applications\SmartApp\CC2530DB\Devices\..\.. #
#                          \..\..\..\..\Components\mt\ -I                     #
#                          E:\work\zigbee\ZStack-Smart-2.5.2b\Projects\zstack #
#                          \Applications\SmartApp\CC2530DB\Devices\..\..\..\. #
#                          .\..\..\Components\osal\include\ -I                #
#                          E:\work\zigbee\ZStack-Smart-2.5.2b\Projects\zstack #
#                          \Applications\SmartApp\CC2530DB\Devices\..\..\..\. #
#                          .\..\..\Components\services\saddr\ -I              #
#                          E:\work\zigbee\ZStack-Smart-2.5.2b\Projects\zstack #
#                          \Applications\SmartApp\CC2530DB\Devices\..\..\..\. #
#                          .\..\..\Components\services\sdata\ -I              #
#                          E:\work\zigbee\ZStack-Smart-2.5.2b\Projects\zstack #
#                          \Applications\SmartApp\CC2530DB\Devices\..\..\..\. #
#                          .\..\..\Components\stack\af\ -I                    #
#                          E:\work\zigbee\ZStack-Smart-2.5.2b\Projects\zstack #
#                          \Applications\SmartApp\CC2530DB\Devices\..\..\..\. #
#                          .\..\..\Components\stack\nwk\ -I                   #
#                          E:\work\zigbee\ZStack-Smart-2.5.2b\Projects\zstack #
#                          \Applications\SmartApp\CC2530DB\Devices\..\..\..\. #
#                          .\..\..\Components\stack\sapi\ -I                  #
#                          E:\work\zigbee\ZStack-Smart-2.5.2b\Projects\zstack #
#                          \Applications\SmartApp\CC2530DB\Devices\..\..\..\. #
#                          .\..\..\Components\stack\sec\ -I                   #
#                          E:\work\zigbee\ZStack-Smart-2.5.2b\Projects\zstack #
#                          \Applications\SmartApp\CC2530DB\Devices\..\..\..\. #
#                          .\..\..\Components\stack\sys\ -I                   #
#                          E:\work\zigbee\ZStack-Smart-2.5.2b\Projects\zstack #
#                          \Applications\SmartApp\CC2530DB\Devices\..\..\..\. #
#                          .\..\..\Components\stack\zdo\ -I                   #
#                          E:\work\zigbee\ZStack-Smart-2.5.2b\Projects\zstack #
#                          \Applications\SmartApp\CC2530DB\Devices\..\..\..\. #
#                          .\..\..\Components\zmac\ -I                        #
#                          E:\work\zigbee\ZStack-Smart-2.5.2b\Projects\zstack #
#                          \Applications\SmartApp\CC2530DB\Devices\..\..\..\. #
#                          .\..\..\Components\zmac\f8w\ -Oh                   #
#                          --require_prototypes                               #
#    List file          =  E:\work\zigbee\ZStack-Smart-2.5.2b\Projects\zstack #
#                          \Applications\SmartApp\CC2530DB\bin\DemoBaseZC\Lis #
#                          t\serial-comm.lst                                  #
#    Object file        =  E:\work\zigbee\ZStack-Smart-2.5.2b\Projects\zstack #
#                          \Applications\SmartApp\CC2530DB\bin\DemoBaseZC\Obj #
#                          \serial-comm.r51                                   #
#                                                                             #
#                                                                             #
###############################################################################

E:\work\zigbee\ZStack-Smart-2.5.2b\Projects\zstack\Applications\SmartApp\Source\Manage\serial-comm.c
      1          /**************************************************************************************************
      2            Filename:       serial-comm.c
      3            Revised:        $Date: 2014-04-25 17:25:52 -0800 (Wed, 25 Apr 2014) $
      4            Revision:       $Revision: 29217 $
      5          
      6            Description:    Analysis frame format.
      7          **************************************************************************************************/
      8          
      9          /**************************************************************************************************
     10          Modify by Sam_Chen
     11          Date:2015-07-31
     12          **************************************************************************************************/
     13          
     14          
     15          /*********************************************************************
     16           * INCLUDES
     17           */
     18          #include "serial-comm.h"
     19          #include "hal_led.h"
     20          
     21          /*********************************************************************
     22           * MACROS
     23           */
     24          
     25          /*********************************************************************
     26           * CONSTANTS
     27           */
     28          
     29          /*********************************************************************
     30           * TYPEDEFS
     31           */
     32          
     33          /*********************************************************************
     34           * GLOBAL VARIABLES
     35           */
     36          
     37          /*********************************************************************
     38           * EXTERNAL VARIABLES
     39           */
     40          
     41          /*********************************************************************
     42           * EXTERNAL FUNCTIONS
     43           */
     44          
     45          /*********************************************************************
     46           * LOCAL VARIABLES
     47           */
     48          /*´®¿Ú»º³åÇø*/
     49          #if(HAL_UART==TRUE)
     50          //static uint8 Serial_TxSeq;

   \                                 In  segment XDATA_Z, align 1, keep-with-next
     51          static uint8 Serial_TxBuf[SERIAL_COM_TX_MAX];
   \                     Serial_TxBuf:
   \   000000                DS 80
   \   000050                REQUIRE __INIT_XDATA_Z

   \                                 In  segment XDATA_Z, align 1, keep-with-next
     52          static uint8 Serial_TxLen;
   \                     Serial_TxLen:
   \   000000                DS 1
   \   000001                REQUIRE __INIT_XDATA_Z
     53          
     54          #ifndef HAL_UART01_BOTH

   \                                 In  segment XDATA_Z, align 1, keep-with-next
     55          static UART_TxHandler mData_TxHandler;
   \                     mData_TxHandler:
   \   000000                DS 2
   \   000002                REQUIRE __INIT_XDATA_Z
     56          #else
     57          static UART_TxHandler mData0_TxHandler;
     58          static UART_TxHandler mData1_TxHandler;
     59          #endif
     60          
     61          /*********************************************************************
     62           * LOCAL FUNCTIONS
     63           */
     64          static void SerialTx_CallBack(uint8 port, uint8 event);
     65          static void SerialTx_DataCB( uint8 port, uint8 txBuf[] , uint8 txLen);
     66          
     67          /*********************************************************************
     68           * NETWORK LAYER CALLBACKS
     69           */
     70          
     71          /*********************************************************************
     72           * PUBLIC FUNCTIONS
     73           */
     74          
     75          #ifndef HAL_UART01_BOTH

   \                                 In  segment BANKED_CODE, align 1, keep-with-next
     76          void Serial_Init(UART_TxHandler txHandler)
   \                     Serial_Init:
     77          {
   \   000000   C082         PUSH    DPL
   \   000002   C083         PUSH    DPH
   \   000004                ; Saved register size: 2
   \   000004                ; Auto size: 29
   \   000004   74E3         MOV     A,#-0x1d
   \   000006   12....       LCALL   ?ALLOC_XSTACK8
     78          	halUARTCfg_t uartConfig;
     79          
     80          	mData_TxHandler = txHandler;
   \   000009   90....       MOV     DPTR,#mData_TxHandler
   \   00000C   EA           MOV     A,R2
   \   00000D   F0           MOVX    @DPTR,A
   \   00000E   A3           INC     DPTR
   \   00000F   EB           MOV     A,R3
   \   000010   F0           MOVX    @DPTR,A
     81          	Serial_TxLen = 0;
   \   000011   90....       MOV     DPTR,#Serial_TxLen
   \   000014   E4           CLR     A
   \   000015   F0           MOVX    @DPTR,A
     82          
     83          	uartConfig.configured           = TRUE;
   \   000016   85..82       MOV     DPL,?XSP + 0
   \   000019   85..83       MOV     DPH,?XSP + 1
   \   00001C   04           INC     A
   \   00001D   F0           MOVX    @DPTR,A
     84          	uartConfig.baudRate             = SERIAL_COM_BAUD;
   \   00001E   12....       LCALL   ?XSTACK_DISP0_8
   \   000021   E4           CLR     A
   \   000022   F0           MOVX    @DPTR,A
     85          	uartConfig.flowControl          = HAL_UART_FLOW_OFF;
   \   000023   7402         MOV     A,#0x2
   \   000025   12....       LCALL   ?XSTACK_DISP0_8
   \   000028   E4           CLR     A
   \   000029   F0           MOVX    @DPTR,A
     86          	uartConfig.flowControlThreshold = SERIAL_COM_THRESH;
   \   00002A   7403         MOV     A,#0x3
   \   00002C   12....       LCALL   ?XSTACK_DISP0_8
   \   00002F   7440         MOV     A,#0x40
   \   000031   F0           MOVX    @DPTR,A
   \   000032   A3           INC     DPTR
   \   000033   E4           CLR     A
   \   000034   F0           MOVX    @DPTR,A
     87          	uartConfig.rx.maxBufSize        = SERIAL_COM_RX_SZ;
   \   000035   740A         MOV     A,#0xa
   \   000037   12....       LCALL   ?XSTACK_DISP0_8
   \   00003A   7480         MOV     A,#-0x80
   \   00003C   F0           MOVX    @DPTR,A
   \   00003D   A3           INC     DPTR
   \   00003E   E4           CLR     A
   \   00003F   F0           MOVX    @DPTR,A
     88          	uartConfig.tx.maxBufSize        = SERIAL_COM_TX_SZ;
   \   000040   7412         MOV     A,#0x12
   \   000042   12....       LCALL   ?XSTACK_DISP0_8
   \   000045   7480         MOV     A,#-0x80
   \   000047   F0           MOVX    @DPTR,A
   \   000048   A3           INC     DPTR
   \   000049   E4           CLR     A
   \   00004A   F0           MOVX    @DPTR,A
     89          	uartConfig.idleTimeout          = SERIAL_COM_IDLE;
   \   00004B   7405         MOV     A,#0x5
   \   00004D   12....       LCALL   ?XSTACK_DISP0_8
   \   000050   7406         MOV     A,#0x6
   \   000052   F0           MOVX    @DPTR,A
     90          	uartConfig.intEnable            = TRUE;
   \   000053   7416         MOV     A,#0x16
   \   000055   12....       LCALL   ?XSTACK_DISP0_8
   \   000058   7401         MOV     A,#0x1
   \   00005A   F0           MOVX    @DPTR,A
     91          	uartConfig.callBackFunc         = SerialTx_CallBack;
   \   00005B   741B         MOV     A,#0x1b
   \   00005D   12....       LCALL   ?XSTACK_DISP0_8
   \   000060   74..         MOV     A,#??SerialTx_CallBack?relay & 0xff
   \   000062   F0           MOVX    @DPTR,A
   \   000063   A3           INC     DPTR
   \   000064   74..         MOV     A,#(??SerialTx_CallBack?relay >> 8) & 0xff
   \   000066   F0           MOVX    @DPTR,A
     92          	
     93          	HalUARTOpen (SERIAL_COM_PORT, &uartConfig);
   \   000067                ; Setup parameters for call to function HalUARTOpen
   \   000067   85..82       MOV     DPL,?XSP + 0
   \   00006A   85..83       MOV     DPH,?XSP + 1
   \   00006D   AA82         MOV     R2,DPL
   \   00006F   AB83         MOV     R3,DPH
   \   000071   7900         MOV     R1,#0x0
   \   000073   12....       LCALL   ??HalUARTOpen?relay
     94          }
   \   000076   741D         MOV     A,#0x1d
   \   000078   12....       LCALL   ?DEALLOC_XSTACK8
   \   00007B                REQUIRE ?Subroutine0
   \   00007B                ; // Fall through to label ?Subroutine0

   \                                 In  segment BANKED_CODE, align 1, keep-with-next
   \                     ?Subroutine0:
   \   000000   D083         POP     DPH
   \   000002   D082         POP     DPL
   \   000004   02....       LJMP    ?BRET
     95          #else
     96          void Serial_Init(UART_TxHandler tx0Handler, UART_TxHandler tx1Handler)
     97          {
     98          	halUARTCfg_t uartConfig0, uartConfig1;
     99          	
    100          	mData0_TxHandler = tx0Handler;
    101          	mData1_TxHandler = tx1Handler;
    102          	Serial_TxLen = 0;
    103          
    104          	uartConfig0.configured           = TRUE;
    105          	uartConfig0.baudRate             = SERIAL_COM_BAUD0;
    106          	uartConfig0.flowControl          = HAL_UART_FLOW_OFF;
    107          	uartConfig0.flowControlThreshold = SERIAL_COM_THRESH;
    108          	uartConfig0.rx.maxBufSize        = SERIAL_COM_RX_SZ;
    109          	uartConfig0.tx.maxBufSize        = SERIAL_COM_TX_SZ;
    110          	uartConfig0.idleTimeout          = SERIAL_COM_IDLE;
    111          	uartConfig0.intEnable            = TRUE;
    112          	uartConfig0.callBackFunc         = SerialTx_CallBack;
    113          
    114          	uartConfig1.configured           = TRUE;
    115          	uartConfig1.baudRate             = SERIAL_COM_BAUD1;
    116          	uartConfig1.flowControl          = HAL_UART_FLOW_OFF;
    117          	uartConfig1.flowControlThreshold = SERIAL_COM_THRESH;
    118          	uartConfig1.rx.maxBufSize        = SERIAL_COM_RX_SZ;
    119          	uartConfig1.tx.maxBufSize        = SERIAL_COM_TX_SZ;
    120          	uartConfig1.idleTimeout          = SERIAL_COM_IDLE;
    121          	uartConfig1.intEnable            = TRUE;
    122          	uartConfig1.callBackFunc         = SerialTx_CallBack;
    123          	
    124          	HalUARTOpen (SERIAL_COM_PORT0, &uartConfig0);
    125          	HalUARTOpen (SERIAL_COM_PORT1, &uartConfig1);
    126          }
    127          #endif
    128          
    129          /*********************************************************************
    130           * @fn      SerialTx_CallBack()
    131           *
    132           * @brief   receive data from serial port
    133           *
    134           * @param   serial receive port, event
    135           *
    136           * @return  none
    137           */

   \                                 In  segment BANKED_CODE, align 1, keep-with-next
    138          void SerialTx_CallBack(uint8 port, uint8 event)
   \                     SerialTx_CallBack:
    139          {
   \   000000   74F5         MOV     A,#-0xb
   \   000002   12....       LCALL   ?BANKED_ENTER_XDATA
   \   000005                ; Saved register size: 11
   \   000005                ; Auto size: 64
   \   000005   74C0         MOV     A,#-0x40
   \   000007   12....       LCALL   ?ALLOC_XSTACK8
   \   00000A   EA           MOV     A,R2
   \   00000B   FF           MOV     R7,A
    140            uint8 data_TxLen = 0;
    141            uint8 data_TxBuf[FRAME_DATA_LENGTH] = {0};
   \   00000C   85..82       MOV     DPL,?XSP + 0
   \   00000F   85..83       MOV     DPH,?XSP + 1
   \   000012   AC82         MOV     R4,DPL
   \   000014   AD83         MOV     R5,DPH
   \   000016   7583..       MOV     DPH,#(`?<Constant {0}>` >> 8) & 0xff
   \   000019   7582..       MOV     DPL,#`?<Constant {0}>` & 0xff
   \   00001C   7440         MOV     A,#0x40
   \   00001E   12....       LCALL   ?MOVE_LONG8_XDATA_XDATA
    142          
    143            if ((event & (HAL_UART_RX_FULL | HAL_UART_RX_ABOUT_FULL 
    144            			| HAL_UART_RX_TIMEOUT)) && !Serial_TxLen)
   \   000021   7407         MOV     A,#0x7
   \   000023   5F           ANL     A,R7
   \   000024   7003         JNZ     $+5
   \   000026   02....       LJMP    ??SerialTx_CallBack_0 & 0xFFFF
   \   000029   90....       MOV     DPTR,#Serial_TxLen
   \   00002C   E0           MOVX    A,@DPTR
   \   00002D   707D         JNZ     ??SerialTx_CallBack_0
    145            {
    146              if (Serial_TxLen < SERIAL_COM_TX_MAX)
    147              {
    148                Serial_TxLen = HalUARTRead( port, Serial_TxBuf, SERIAL_COM_TX_MAX);
   \   00002F                ; Setup parameters for call to function HalUARTRead
   \   00002F   7C50         MOV     R4,#0x50
   \   000031   7D00         MOV     R5,#0x0
   \   000033   7A..         MOV     R2,#Serial_TxBuf & 0xff
   \   000035   7B..         MOV     R3,#(Serial_TxBuf >> 8) & 0xff
   \   000037   12....       LCALL   ??HalUARTRead?relay
   \   00003A   EA           MOV     A,R2
   \   00003B   90....       MOV     DPTR,#Serial_TxLen
   \   00003E   F0           MOVX    @DPTR,A
    149              }
    150          
    151              if(Serial_TxLen)
   \   00003F   606B         JZ      ??SerialTx_CallBack_0
    152              {  
    153          	  if(Serial_TxLen<FRAME_DATA_LENGTH)
   \   000041   C3           CLR     C
   \   000042   9440         SUBB    A,#0x40
   \   000044   5005         JNC     ??SerialTx_CallBack_1
    154                  data_TxLen = Serial_TxLen;
   \   000046   E0           MOVX    A,@DPTR
   \   000047   F5..         MOV     ?V0 + 2,A
   \   000049   8003         SJMP    ??SerialTx_CallBack_2
    155          	  else
    156          	  	data_TxLen = FRAME_DATA_LENGTH;
   \                     ??SerialTx_CallBack_1:
   \   00004B   75..40       MOV     ?V0 + 2,#0x40
    157          	  
    158                memcpy(data_TxBuf, Serial_TxBuf, data_TxLen);
   \                     ??SerialTx_CallBack_2:
   \   00004E                ; Setup parameters for call to function memcpy
   \   00004E   85....       MOV     ?V0 + 0,?V0 + 2
   \   000051   75..00       MOV     ?V0 + 1,#0x0
   \   000054   78..         MOV     R0,#?V0 + 0
   \   000056   12....       LCALL   ?PUSH_XSTACK_I_TWO
   \   000059   7C..         MOV     R4,#Serial_TxBuf & 0xff
   \   00005B   7D..         MOV     R5,#(Serial_TxBuf >> 8) & 0xff
   \   00005D   7402         MOV     A,#0x2
   \   00005F   12....       LCALL   ?XSTACK_DISP0_8
   \   000062   AA82         MOV     R2,DPL
   \   000064   AB83         MOV     R3,DPH
   \   000066   12....       LCALL   ??memcpy?relay
   \   000069   7402         MOV     A,#0x2
   \   00006B   12....       LCALL   ?DEALLOC_XSTACK8
    159          
    160                memset(Serial_TxBuf, 0, SERIAL_COM_TX_MAX);
   \   00006E                ; Setup parameters for call to function memset
   \   00006E   75..50       MOV     ?V0 + 0,#0x50
   \   000071   78..         MOV     R0,#?V0 + 0
   \   000073   12....       LCALL   ?PUSH_XSTACK_I_TWO
   \   000076   7C00         MOV     R4,#0x0
   \   000078   7D00         MOV     R5,#0x0
   \   00007A   7A..         MOV     R2,#Serial_TxBuf & 0xff
   \   00007C   7B..         MOV     R3,#(Serial_TxBuf >> 8) & 0xff
   \   00007E   12....       LCALL   ??memset?relay
   \   000081   7402         MOV     A,#0x2
   \   000083   12....       LCALL   ?DEALLOC_XSTACK8
    161                Serial_TxLen = 0;
   \   000086   90....       MOV     DPTR,#Serial_TxLen
   \   000089   E4           CLR     A
   \   00008A   F0           MOVX    @DPTR,A
    162          
    163            	  SerialTx_DataCB(port, data_TxBuf, data_TxLen);
   \   00008B                ; Setup parameters for call to function HalLedSet
   \   00008B   7A02         MOV     R2,#0x2
   \   00008D   7902         MOV     R1,#0x2
   \   00008F   12....       LCALL   ??HalLedSet?relay
   \   000092                ; Setup parameters for indirect call
   \   000092   A9..         MOV     R1,?V0 + 2
   \   000094   85..82       MOV     DPL,?XSP + 0
   \   000097   85..83       MOV     DPH,?XSP + 1
   \   00009A   AA82         MOV     R2,DPL
   \   00009C   AB83         MOV     R3,DPH
   \   00009E   90....       MOV     DPTR,#mData_TxHandler
   \   0000A1   E0           MOVX    A,@DPTR
   \   0000A2   F8           MOV     R0,A
   \   0000A3   A3           INC     DPTR
   \   0000A4   E0           MOVX    A,@DPTR
   \   0000A5   F583         MOV     DPH,A
   \   0000A7   8882         MOV     DPL,R0
   \   0000A9   12....       LCALL   ?CALL_IND
    164          	}
    165            }
    166          }
   \                     ??SerialTx_CallBack_0:
   \   0000AC   7440         MOV     A,#0x40
   \   0000AE   12....       LCALL   ?DEALLOC_XSTACK8
   \   0000B1   7F03         MOV     R7,#0x3
   \   0000B3   02....       LJMP    ?BANKED_LEAVE_XDATA
    167          
    168          
    169          /*********************************************************************
    170           * @fn      SerialTx_DataCB()
    171           *
    172           * @brief   deal with serial receice data
    173           *
    174           * @param   none
    175           *
    176           * @return  none
    177           */
    178          void SerialTx_DataCB( uint8 port, uint8 txBuf[] , uint8 txLen)
    179          {
    180            HalLedSet(HAL_LED_2, HAL_LED_MODE_BLINK);
    181          #ifndef HAL_UART01_BOTH
    182            mData_TxHandler(txBuf, txLen);
    183          #else
    184            
    185            if(port == SERIAL_COM_PORT0)
    186            {
    187          	mData0_TxHandler(txBuf, txLen);
    188            }
    189            else if(port == SERIAL_COM_PORT1)
    190            {
    191          	mData1_TxHandler(txBuf, txLen);
    192            }
    193          #endif
    194          }
    195          
    196          
    197          /*********************************************************************
    198           * @fn      SerialTx_Handler
    199           *
    200           * @brief   update user uart receive handler
    201           *
    202           * @param   uart receive handler
    203           *
    204           * @return  none
    205           */

   \                                 In  segment BANKED_CODE, align 1, keep-with-next
    206          void SerialTx_Handler(int port, UART_TxHandler txHandler)
   \                     SerialTx_Handler:
    207          {
   \   000000   C082         PUSH    DPL
   \   000002   C083         PUSH    DPH
   \   000004                ; Saved register size: 2
   \   000004                ; Auto size: 0
    208          #if(HAL_UART==TRUE)
    209            if(txHandler != NULL)
   \   000004   EC           MOV     A,R4
   \   000005   4D           ORL     A,R5
   \   000006   6008         JZ      ??SerialTx_Handler_0
    210            {
    211          #ifndef HAL_UART01_BOTH
    212            	mData_TxHandler = txHandler;
   \   000008   90....       MOV     DPTR,#mData_TxHandler
   \   00000B   EC           MOV     A,R4
   \   00000C   F0           MOVX    @DPTR,A
   \   00000D   A3           INC     DPTR
   \   00000E   ED           MOV     A,R5
   \   00000F   F0           MOVX    @DPTR,A
    213          #else
    214          	if(port == SERIAL_COM_PORT0)
    215          	{
    216          	  mData0_TxHandler = txHandler;
    217          	}
    218          	else if(port == SERIAL_COM_PORT1)
    219          	{
    220          	  mData1_TxHandler = txHandler;
    221          	}
    222          #endif
    223            }
    224          #endif
    225          }
   \                     ??SerialTx_Handler_0:
   \   000010   02....       LJMP    ?Subroutine0 & 0xFFFF
    226          
    227          
    228          #ifndef HAL_UART01_BOTH
    229          /*********************************************************************
    230           * @fn      Data_TxHandler()
    231           *
    232           * @brief   deault function to deal with serial receice data
    233           *
    234           * @param   point to data, data length
    235           *
    236           * @return  none
    237           */

   \                                 In  segment BANKED_CODE, align 1, keep-with-next
    238          void Data_TxHandler(uint8 txBuf[], uint8 txLen)
   \                     Data_TxHandler:
    239          {
   \   000000   74F6         MOV     A,#-0xa
   \   000002   12....       LCALL   ?BANKED_ENTER_XDATA
   \   000005                ; Saved register size: 10
   \   000005                ; Auto size: 0
   \   000005   E9           MOV     A,R1
    240            HalUARTWrite(SERIAL_COM_PORT, txBuf, txLen);
   \   000006                ; Setup parameters for call to function HalUARTWrite
   \   000006   FC           MOV     R4,A
   \   000007   7D00         MOV     R5,#0x0
   \   000009   7900         MOV     R1,#0x0
   \   00000B   12....       LCALL   ??HalUARTWrite?relay
    241          }
   \   00000E   7F02         MOV     R7,#0x2
   \   000010   02....       LJMP    ?BANKED_LEAVE_XDATA

   \                                 In  segment BANK_RELAYS, align 1
   \                     ??Serial_Init?relay:
   \   000000   12....       LCALL   ?BDISPATCH
   \   000003   ......       DC24    Serial_Init

   \                                 In  segment BANK_RELAYS, align 1
   \                     ??SerialTx_CallBack?relay:
   \   000000   12....       LCALL   ?BDISPATCH
   \   000003   ......       DC24    SerialTx_CallBack

   \                                 In  segment BANK_RELAYS, align 1
   \                     ??SerialTx_Handler?relay:
   \   000000   12....       LCALL   ?BDISPATCH
   \   000003   ......       DC24    SerialTx_Handler

   \                                 In  segment BANK_RELAYS, align 1
   \                     ??Data_TxHandler?relay:
   \   000000   12....       LCALL   ?BDISPATCH
   \   000003   ......       DC24    Data_TxHandler

   \                                 In  segment XDATA_ROM_C, align 1
   \                     `?<Constant {0}>`:
   \   000000   00           DB 0
   \   000001   00000000     DB 0, 0, 0, 0, 0, 0, 0, 0
   \            00000000
   \   000009   00000000     DB 0, 0, 0, 0, 0, 0, 0, 0
   \            00000000
   \   000011   00000000     DB 0, 0, 0, 0, 0, 0, 0, 0
   \            00000000
   \   000019   00000000     DB 0, 0, 0, 0, 0, 0, 0, 0
   \            00000000
   \   000021   00000000     DB 0, 0, 0, 0, 0, 0, 0, 0
   \            00000000
   \   000029   00000000     DB 0, 0, 0, 0, 0, 0, 0, 0
   \            00000000
   \   000031   00000000     DB 0, 0, 0, 0, 0, 0, 0, 0
   \            00000000
   \   000039   00000000     DB 0, 0, 0, 0, 0, 0, 0
   \            000000  
    242          #else
    243          void Data0_TxHandler(uint8 txBuf[], uint8 txLen)
    244          {
    245            HalUARTWrite(SERIAL_COM_PORT1, txBuf, txLen);
    246          }
    247          
    248          void Data1_TxHandler(uint8 txBuf[], uint8 txLen)
    249          {
    250            HalUARTWrite(SERIAL_COM_PORT0, txBuf, txLen);
    251          }
    252          #endif
    253          #endif

   Maximum stack usage in bytes:

     Function          ISTACK PSTACK XSTACK
     --------          ------ ------ ------
     Data_TxHandler        0      0     10
       -> HalUARTWrite     0      0     20
     SerialTx_CallBack     2      0     77
       -> HalUARTRead      0      0    150
       -> memcpy           0      0    154
       -> memset           0      0    154
       -> HalLedSet        0      0    150
     SerialTx_Handler      2      0      0
     Serial_Init           2      0     29
       -> HalUARTOpen      4      0     58


   Segment part sizes:

     Function/Label            Bytes
     --------------            -----
     Serial_TxBuf                80
     Serial_TxLen                 1
     mData_TxHandler              2
     Serial_Init                123
     ?Subroutine0                 7
     SerialTx_CallBack          182
     SerialTx_Handler            19
     Data_TxHandler              19
     ??Serial_Init?relay          6
     ??SerialTx_CallBack?relay    6
     ??SerialTx_Handler?relay     6
     ??Data_TxHandler?relay       6
     ?<Constant {0}>             64

 
 350 bytes in segment BANKED_CODE
  24 bytes in segment BANK_RELAYS
  64 bytes in segment XDATA_ROM_C
  83 bytes in segment XDATA_Z
 
 374 bytes of CODE  memory
  64 bytes of CONST memory
  83 bytes of XDATA memory

Errors: none
Warnings: none
